
Voltmetru_project.elf:     file format elf32-littlearm

Sections:
Idx Name          Size      VMA       LMA       File off  Algn
  0 .isr_vector   000000bc  08000000  08000000  00001000  2**0
                  CONTENTS, ALLOC, LOAD, READONLY, DATA
  1 .text         00005b90  080000bc  080000bc  000010bc  2**2
                  CONTENTS, ALLOC, LOAD, READONLY, CODE
  2 .rodata       00000bac  08005c4c  08005c4c  00006c4c  2**2
                  CONTENTS, ALLOC, LOAD, READONLY, DATA
  3 .ARM.extab    00000000  080067f8  080067f8  00008424  2**0
                  CONTENTS, READONLY
  4 .ARM          00000000  080067f8  080067f8  00008424  2**0
                  CONTENTS, READONLY
  5 .preinit_array 00000000  080067f8  080067f8  00008424  2**0
                  CONTENTS, ALLOC, LOAD, DATA
  6 .init_array   00000004  080067f8  080067f8  000077f8  2**2
                  CONTENTS, ALLOC, LOAD, READONLY, DATA
  7 .fini_array   00000004  080067fc  080067fc  000077fc  2**2
                  CONTENTS, ALLOC, LOAD, READONLY, DATA
  8 .data         00000424  20000000  08006800  00008000  2**2
                  CONTENTS, ALLOC, LOAD, DATA
  9 .bss          00000614  20000424  08006c24  00008424  2**2
                  ALLOC
 10 ._user_heap_stack 00000600  20000a38  08006c24  00008a38  2**0
                  ALLOC
 11 .ARM.attributes 00000028  00000000  00000000  00008424  2**0
                  CONTENTS, READONLY
 12 .debug_line   00014df1  00000000  00000000  0000844c  2**0
                  CONTENTS, READONLY, DEBUGGING, OCTETS
 13 .debug_line_str 00000069  00000000  00000000  0001d23d  2**0
                  CONTENTS, READONLY, DEBUGGING, OCTETS
 14 .debug_info   0000e73e  00000000  00000000  0001d2a6  2**0
                  CONTENTS, READONLY, DEBUGGING, OCTETS
 15 .debug_abbrev 00002cb7  00000000  00000000  0002b9e4  2**0
                  CONTENTS, READONLY, DEBUGGING, OCTETS
 16 .debug_aranges 00000ec8  00000000  00000000  0002e6a0  2**3
                  CONTENTS, READONLY, DEBUGGING, OCTETS
 17 .debug_str    000a9d71  00000000  00000000  0002f568  2**0
                  CONTENTS, READONLY, DEBUGGING, OCTETS
 18 .debug_rnglists 00000b65  00000000  00000000  000d92d9  2**0
                  CONTENTS, READONLY, DEBUGGING, OCTETS
 19 .debug_macro  0001c243  00000000  00000000  000d9e3e  2**0
                  CONTENTS, READONLY, DEBUGGING, OCTETS
 20 .comment      00000043  00000000  00000000  000f6081  2**0
                  CONTENTS, READONLY
 21 .debug_frame  000033c0  00000000  00000000  000f60c4  2**2
                  CONTENTS, READONLY, DEBUGGING, OCTETS

Disassembly of section .text:

080000bc <__do_global_dtors_aux>:
 80000bc:	b510      	push	{r4, lr}
 80000be:	4c06      	ldr	r4, [pc, #24]	@ (80000d8 <__do_global_dtors_aux+0x1c>)
 80000c0:	7823      	ldrb	r3, [r4, #0]
 80000c2:	2b00      	cmp	r3, #0
 80000c4:	d107      	bne.n	80000d6 <__do_global_dtors_aux+0x1a>
 80000c6:	4b05      	ldr	r3, [pc, #20]	@ (80000dc <__do_global_dtors_aux+0x20>)
 80000c8:	2b00      	cmp	r3, #0
 80000ca:	d002      	beq.n	80000d2 <__do_global_dtors_aux+0x16>
 80000cc:	4804      	ldr	r0, [pc, #16]	@ (80000e0 <__do_global_dtors_aux+0x24>)
 80000ce:	e000      	b.n	80000d2 <__do_global_dtors_aux+0x16>
 80000d0:	bf00      	nop
 80000d2:	2301      	movs	r3, #1
 80000d4:	7023      	strb	r3, [r4, #0]
 80000d6:	bd10      	pop	{r4, pc}
 80000d8:	20000424 	.word	0x20000424
 80000dc:	00000000 	.word	0x00000000
 80000e0:	08005c34 	.word	0x08005c34

080000e4 <frame_dummy>:
 80000e4:	4b04      	ldr	r3, [pc, #16]	@ (80000f8 <frame_dummy+0x14>)
 80000e6:	b510      	push	{r4, lr}
 80000e8:	2b00      	cmp	r3, #0
 80000ea:	d003      	beq.n	80000f4 <frame_dummy+0x10>
 80000ec:	4903      	ldr	r1, [pc, #12]	@ (80000fc <frame_dummy+0x18>)
 80000ee:	4804      	ldr	r0, [pc, #16]	@ (8000100 <frame_dummy+0x1c>)
 80000f0:	e000      	b.n	80000f4 <frame_dummy+0x10>
 80000f2:	bf00      	nop
 80000f4:	bd10      	pop	{r4, pc}
 80000f6:	46c0      	nop			@ (mov r8, r8)
 80000f8:	00000000 	.word	0x00000000
 80000fc:	20000428 	.word	0x20000428
 8000100:	08005c34 	.word	0x08005c34

08000104 <__udivsi3>:
 8000104:	2200      	movs	r2, #0
 8000106:	0843      	lsrs	r3, r0, #1
 8000108:	428b      	cmp	r3, r1
 800010a:	d374      	bcc.n	80001f6 <__udivsi3+0xf2>
 800010c:	0903      	lsrs	r3, r0, #4
 800010e:	428b      	cmp	r3, r1
 8000110:	d35f      	bcc.n	80001d2 <__udivsi3+0xce>
 8000112:	0a03      	lsrs	r3, r0, #8
 8000114:	428b      	cmp	r3, r1
 8000116:	d344      	bcc.n	80001a2 <__udivsi3+0x9e>
 8000118:	0b03      	lsrs	r3, r0, #12
 800011a:	428b      	cmp	r3, r1
 800011c:	d328      	bcc.n	8000170 <__udivsi3+0x6c>
 800011e:	0c03      	lsrs	r3, r0, #16
 8000120:	428b      	cmp	r3, r1
 8000122:	d30d      	bcc.n	8000140 <__udivsi3+0x3c>
 8000124:	22ff      	movs	r2, #255	@ 0xff
 8000126:	0209      	lsls	r1, r1, #8
 8000128:	ba12      	rev	r2, r2
 800012a:	0c03      	lsrs	r3, r0, #16
 800012c:	428b      	cmp	r3, r1
 800012e:	d302      	bcc.n	8000136 <__udivsi3+0x32>
 8000130:	1212      	asrs	r2, r2, #8
 8000132:	0209      	lsls	r1, r1, #8
 8000134:	d065      	beq.n	8000202 <__udivsi3+0xfe>
 8000136:	0b03      	lsrs	r3, r0, #12
 8000138:	428b      	cmp	r3, r1
 800013a:	d319      	bcc.n	8000170 <__udivsi3+0x6c>
 800013c:	e000      	b.n	8000140 <__udivsi3+0x3c>
 800013e:	0a09      	lsrs	r1, r1, #8
 8000140:	0bc3      	lsrs	r3, r0, #15
 8000142:	428b      	cmp	r3, r1
 8000144:	d301      	bcc.n	800014a <__udivsi3+0x46>
 8000146:	03cb      	lsls	r3, r1, #15
 8000148:	1ac0      	subs	r0, r0, r3
 800014a:	4152      	adcs	r2, r2
 800014c:	0b83      	lsrs	r3, r0, #14
 800014e:	428b      	cmp	r3, r1
 8000150:	d301      	bcc.n	8000156 <__udivsi3+0x52>
 8000152:	038b      	lsls	r3, r1, #14
 8000154:	1ac0      	subs	r0, r0, r3
 8000156:	4152      	adcs	r2, r2
 8000158:	0b43      	lsrs	r3, r0, #13
 800015a:	428b      	cmp	r3, r1
 800015c:	d301      	bcc.n	8000162 <__udivsi3+0x5e>
 800015e:	034b      	lsls	r3, r1, #13
 8000160:	1ac0      	subs	r0, r0, r3
 8000162:	4152      	adcs	r2, r2
 8000164:	0b03      	lsrs	r3, r0, #12
 8000166:	428b      	cmp	r3, r1
 8000168:	d301      	bcc.n	800016e <__udivsi3+0x6a>
 800016a:	030b      	lsls	r3, r1, #12
 800016c:	1ac0      	subs	r0, r0, r3
 800016e:	4152      	adcs	r2, r2
 8000170:	0ac3      	lsrs	r3, r0, #11
 8000172:	428b      	cmp	r3, r1
 8000174:	d301      	bcc.n	800017a <__udivsi3+0x76>
 8000176:	02cb      	lsls	r3, r1, #11
 8000178:	1ac0      	subs	r0, r0, r3
 800017a:	4152      	adcs	r2, r2
 800017c:	0a83      	lsrs	r3, r0, #10
 800017e:	428b      	cmp	r3, r1
 8000180:	d301      	bcc.n	8000186 <__udivsi3+0x82>
 8000182:	028b      	lsls	r3, r1, #10
 8000184:	1ac0      	subs	r0, r0, r3
 8000186:	4152      	adcs	r2, r2
 8000188:	0a43      	lsrs	r3, r0, #9
 800018a:	428b      	cmp	r3, r1
 800018c:	d301      	bcc.n	8000192 <__udivsi3+0x8e>
 800018e:	024b      	lsls	r3, r1, #9
 8000190:	1ac0      	subs	r0, r0, r3
 8000192:	4152      	adcs	r2, r2
 8000194:	0a03      	lsrs	r3, r0, #8
 8000196:	428b      	cmp	r3, r1
 8000198:	d301      	bcc.n	800019e <__udivsi3+0x9a>
 800019a:	020b      	lsls	r3, r1, #8
 800019c:	1ac0      	subs	r0, r0, r3
 800019e:	4152      	adcs	r2, r2
 80001a0:	d2cd      	bcs.n	800013e <__udivsi3+0x3a>
 80001a2:	09c3      	lsrs	r3, r0, #7
 80001a4:	428b      	cmp	r3, r1
 80001a6:	d301      	bcc.n	80001ac <__udivsi3+0xa8>
 80001a8:	01cb      	lsls	r3, r1, #7
 80001aa:	1ac0      	subs	r0, r0, r3
 80001ac:	4152      	adcs	r2, r2
 80001ae:	0983      	lsrs	r3, r0, #6
 80001b0:	428b      	cmp	r3, r1
 80001b2:	d301      	bcc.n	80001b8 <__udivsi3+0xb4>
 80001b4:	018b      	lsls	r3, r1, #6
 80001b6:	1ac0      	subs	r0, r0, r3
 80001b8:	4152      	adcs	r2, r2
 80001ba:	0943      	lsrs	r3, r0, #5
 80001bc:	428b      	cmp	r3, r1
 80001be:	d301      	bcc.n	80001c4 <__udivsi3+0xc0>
 80001c0:	014b      	lsls	r3, r1, #5
 80001c2:	1ac0      	subs	r0, r0, r3
 80001c4:	4152      	adcs	r2, r2
 80001c6:	0903      	lsrs	r3, r0, #4
 80001c8:	428b      	cmp	r3, r1
 80001ca:	d301      	bcc.n	80001d0 <__udivsi3+0xcc>
 80001cc:	010b      	lsls	r3, r1, #4
 80001ce:	1ac0      	subs	r0, r0, r3
 80001d0:	4152      	adcs	r2, r2
 80001d2:	08c3      	lsrs	r3, r0, #3
 80001d4:	428b      	cmp	r3, r1
 80001d6:	d301      	bcc.n	80001dc <__udivsi3+0xd8>
 80001d8:	00cb      	lsls	r3, r1, #3
 80001da:	1ac0      	subs	r0, r0, r3
 80001dc:	4152      	adcs	r2, r2
 80001de:	0883      	lsrs	r3, r0, #2
 80001e0:	428b      	cmp	r3, r1
 80001e2:	d301      	bcc.n	80001e8 <__udivsi3+0xe4>
 80001e4:	008b      	lsls	r3, r1, #2
 80001e6:	1ac0      	subs	r0, r0, r3
 80001e8:	4152      	adcs	r2, r2
 80001ea:	0843      	lsrs	r3, r0, #1
 80001ec:	428b      	cmp	r3, r1
 80001ee:	d301      	bcc.n	80001f4 <__udivsi3+0xf0>
 80001f0:	004b      	lsls	r3, r1, #1
 80001f2:	1ac0      	subs	r0, r0, r3
 80001f4:	4152      	adcs	r2, r2
 80001f6:	1a41      	subs	r1, r0, r1
 80001f8:	d200      	bcs.n	80001fc <__udivsi3+0xf8>
 80001fa:	4601      	mov	r1, r0
 80001fc:	4152      	adcs	r2, r2
 80001fe:	4610      	mov	r0, r2
 8000200:	4770      	bx	lr
 8000202:	e7ff      	b.n	8000204 <__udivsi3+0x100>
 8000204:	b501      	push	{r0, lr}
 8000206:	2000      	movs	r0, #0
 8000208:	f000 f8f0 	bl	80003ec <__aeabi_idiv0>
 800020c:	bd02      	pop	{r1, pc}
 800020e:	46c0      	nop			@ (mov r8, r8)

08000210 <__aeabi_uidivmod>:
 8000210:	2900      	cmp	r1, #0
 8000212:	d0f7      	beq.n	8000204 <__udivsi3+0x100>
 8000214:	e776      	b.n	8000104 <__udivsi3>
 8000216:	4770      	bx	lr

08000218 <__divsi3>:
 8000218:	4603      	mov	r3, r0
 800021a:	430b      	orrs	r3, r1
 800021c:	d47f      	bmi.n	800031e <__divsi3+0x106>
 800021e:	2200      	movs	r2, #0
 8000220:	0843      	lsrs	r3, r0, #1
 8000222:	428b      	cmp	r3, r1
 8000224:	d374      	bcc.n	8000310 <__divsi3+0xf8>
 8000226:	0903      	lsrs	r3, r0, #4
 8000228:	428b      	cmp	r3, r1
 800022a:	d35f      	bcc.n	80002ec <__divsi3+0xd4>
 800022c:	0a03      	lsrs	r3, r0, #8
 800022e:	428b      	cmp	r3, r1
 8000230:	d344      	bcc.n	80002bc <__divsi3+0xa4>
 8000232:	0b03      	lsrs	r3, r0, #12
 8000234:	428b      	cmp	r3, r1
 8000236:	d328      	bcc.n	800028a <__divsi3+0x72>
 8000238:	0c03      	lsrs	r3, r0, #16
 800023a:	428b      	cmp	r3, r1
 800023c:	d30d      	bcc.n	800025a <__divsi3+0x42>
 800023e:	22ff      	movs	r2, #255	@ 0xff
 8000240:	0209      	lsls	r1, r1, #8
 8000242:	ba12      	rev	r2, r2
 8000244:	0c03      	lsrs	r3, r0, #16
 8000246:	428b      	cmp	r3, r1
 8000248:	d302      	bcc.n	8000250 <__divsi3+0x38>
 800024a:	1212      	asrs	r2, r2, #8
 800024c:	0209      	lsls	r1, r1, #8
 800024e:	d065      	beq.n	800031c <__divsi3+0x104>
 8000250:	0b03      	lsrs	r3, r0, #12
 8000252:	428b      	cmp	r3, r1
 8000254:	d319      	bcc.n	800028a <__divsi3+0x72>
 8000256:	e000      	b.n	800025a <__divsi3+0x42>
 8000258:	0a09      	lsrs	r1, r1, #8
 800025a:	0bc3      	lsrs	r3, r0, #15
 800025c:	428b      	cmp	r3, r1
 800025e:	d301      	bcc.n	8000264 <__divsi3+0x4c>
 8000260:	03cb      	lsls	r3, r1, #15
 8000262:	1ac0      	subs	r0, r0, r3
 8000264:	4152      	adcs	r2, r2
 8000266:	0b83      	lsrs	r3, r0, #14
 8000268:	428b      	cmp	r3, r1
 800026a:	d301      	bcc.n	8000270 <__divsi3+0x58>
 800026c:	038b      	lsls	r3, r1, #14
 800026e:	1ac0      	subs	r0, r0, r3
 8000270:	4152      	adcs	r2, r2
 8000272:	0b43      	lsrs	r3, r0, #13
 8000274:	428b      	cmp	r3, r1
 8000276:	d301      	bcc.n	800027c <__divsi3+0x64>
 8000278:	034b      	lsls	r3, r1, #13
 800027a:	1ac0      	subs	r0, r0, r3
 800027c:	4152      	adcs	r2, r2
 800027e:	0b03      	lsrs	r3, r0, #12
 8000280:	428b      	cmp	r3, r1
 8000282:	d301      	bcc.n	8000288 <__divsi3+0x70>
 8000284:	030b      	lsls	r3, r1, #12
 8000286:	1ac0      	subs	r0, r0, r3
 8000288:	4152      	adcs	r2, r2
 800028a:	0ac3      	lsrs	r3, r0, #11
 800028c:	428b      	cmp	r3, r1
 800028e:	d301      	bcc.n	8000294 <__divsi3+0x7c>
 8000290:	02cb      	lsls	r3, r1, #11
 8000292:	1ac0      	subs	r0, r0, r3
 8000294:	4152      	adcs	r2, r2
 8000296:	0a83      	lsrs	r3, r0, #10
 8000298:	428b      	cmp	r3, r1
 800029a:	d301      	bcc.n	80002a0 <__divsi3+0x88>
 800029c:	028b      	lsls	r3, r1, #10
 800029e:	1ac0      	subs	r0, r0, r3
 80002a0:	4152      	adcs	r2, r2
 80002a2:	0a43      	lsrs	r3, r0, #9
 80002a4:	428b      	cmp	r3, r1
 80002a6:	d301      	bcc.n	80002ac <__divsi3+0x94>
 80002a8:	024b      	lsls	r3, r1, #9
 80002aa:	1ac0      	subs	r0, r0, r3
 80002ac:	4152      	adcs	r2, r2
 80002ae:	0a03      	lsrs	r3, r0, #8
 80002b0:	428b      	cmp	r3, r1
 80002b2:	d301      	bcc.n	80002b8 <__divsi3+0xa0>
 80002b4:	020b      	lsls	r3, r1, #8
 80002b6:	1ac0      	subs	r0, r0, r3
 80002b8:	4152      	adcs	r2, r2
 80002ba:	d2cd      	bcs.n	8000258 <__divsi3+0x40>
 80002bc:	09c3      	lsrs	r3, r0, #7
 80002be:	428b      	cmp	r3, r1
 80002c0:	d301      	bcc.n	80002c6 <__divsi3+0xae>
 80002c2:	01cb      	lsls	r3, r1, #7
 80002c4:	1ac0      	subs	r0, r0, r3
 80002c6:	4152      	adcs	r2, r2
 80002c8:	0983      	lsrs	r3, r0, #6
 80002ca:	428b      	cmp	r3, r1
 80002cc:	d301      	bcc.n	80002d2 <__divsi3+0xba>
 80002ce:	018b      	lsls	r3, r1, #6
 80002d0:	1ac0      	subs	r0, r0, r3
 80002d2:	4152      	adcs	r2, r2
 80002d4:	0943      	lsrs	r3, r0, #5
 80002d6:	428b      	cmp	r3, r1
 80002d8:	d301      	bcc.n	80002de <__divsi3+0xc6>
 80002da:	014b      	lsls	r3, r1, #5
 80002dc:	1ac0      	subs	r0, r0, r3
 80002de:	4152      	adcs	r2, r2
 80002e0:	0903      	lsrs	r3, r0, #4
 80002e2:	428b      	cmp	r3, r1
 80002e4:	d301      	bcc.n	80002ea <__divsi3+0xd2>
 80002e6:	010b      	lsls	r3, r1, #4
 80002e8:	1ac0      	subs	r0, r0, r3
 80002ea:	4152      	adcs	r2, r2
 80002ec:	08c3      	lsrs	r3, r0, #3
 80002ee:	428b      	cmp	r3, r1
 80002f0:	d301      	bcc.n	80002f6 <__divsi3+0xde>
 80002f2:	00cb      	lsls	r3, r1, #3
 80002f4:	1ac0      	subs	r0, r0, r3
 80002f6:	4152      	adcs	r2, r2
 80002f8:	0883      	lsrs	r3, r0, #2
 80002fa:	428b      	cmp	r3, r1
 80002fc:	d301      	bcc.n	8000302 <__divsi3+0xea>
 80002fe:	008b      	lsls	r3, r1, #2
 8000300:	1ac0      	subs	r0, r0, r3
 8000302:	4152      	adcs	r2, r2
 8000304:	0843      	lsrs	r3, r0, #1
 8000306:	428b      	cmp	r3, r1
 8000308:	d301      	bcc.n	800030e <__divsi3+0xf6>
 800030a:	004b      	lsls	r3, r1, #1
 800030c:	1ac0      	subs	r0, r0, r3
 800030e:	4152      	adcs	r2, r2
 8000310:	1a41      	subs	r1, r0, r1
 8000312:	d200      	bcs.n	8000316 <__divsi3+0xfe>
 8000314:	4601      	mov	r1, r0
 8000316:	4152      	adcs	r2, r2
 8000318:	4610      	mov	r0, r2
 800031a:	4770      	bx	lr
 800031c:	e05d      	b.n	80003da <__divsi3+0x1c2>
 800031e:	0fca      	lsrs	r2, r1, #31
 8000320:	d000      	beq.n	8000324 <__divsi3+0x10c>
 8000322:	4249      	negs	r1, r1
 8000324:	1003      	asrs	r3, r0, #32
 8000326:	d300      	bcc.n	800032a <__divsi3+0x112>
 8000328:	4240      	negs	r0, r0
 800032a:	4053      	eors	r3, r2
 800032c:	2200      	movs	r2, #0
 800032e:	469c      	mov	ip, r3
 8000330:	0903      	lsrs	r3, r0, #4
 8000332:	428b      	cmp	r3, r1
 8000334:	d32d      	bcc.n	8000392 <__divsi3+0x17a>
 8000336:	0a03      	lsrs	r3, r0, #8
 8000338:	428b      	cmp	r3, r1
 800033a:	d312      	bcc.n	8000362 <__divsi3+0x14a>
 800033c:	22fc      	movs	r2, #252	@ 0xfc
 800033e:	0189      	lsls	r1, r1, #6
 8000340:	ba12      	rev	r2, r2
 8000342:	0a03      	lsrs	r3, r0, #8
 8000344:	428b      	cmp	r3, r1
 8000346:	d30c      	bcc.n	8000362 <__divsi3+0x14a>
 8000348:	0189      	lsls	r1, r1, #6
 800034a:	1192      	asrs	r2, r2, #6
 800034c:	428b      	cmp	r3, r1
 800034e:	d308      	bcc.n	8000362 <__divsi3+0x14a>
 8000350:	0189      	lsls	r1, r1, #6
 8000352:	1192      	asrs	r2, r2, #6
 8000354:	428b      	cmp	r3, r1
 8000356:	d304      	bcc.n	8000362 <__divsi3+0x14a>
 8000358:	0189      	lsls	r1, r1, #6
 800035a:	d03a      	beq.n	80003d2 <__divsi3+0x1ba>
 800035c:	1192      	asrs	r2, r2, #6
 800035e:	e000      	b.n	8000362 <__divsi3+0x14a>
 8000360:	0989      	lsrs	r1, r1, #6
 8000362:	09c3      	lsrs	r3, r0, #7
 8000364:	428b      	cmp	r3, r1
 8000366:	d301      	bcc.n	800036c <__divsi3+0x154>
 8000368:	01cb      	lsls	r3, r1, #7
 800036a:	1ac0      	subs	r0, r0, r3
 800036c:	4152      	adcs	r2, r2
 800036e:	0983      	lsrs	r3, r0, #6
 8000370:	428b      	cmp	r3, r1
 8000372:	d301      	bcc.n	8000378 <__divsi3+0x160>
 8000374:	018b      	lsls	r3, r1, #6
 8000376:	1ac0      	subs	r0, r0, r3
 8000378:	4152      	adcs	r2, r2
 800037a:	0943      	lsrs	r3, r0, #5
 800037c:	428b      	cmp	r3, r1
 800037e:	d301      	bcc.n	8000384 <__divsi3+0x16c>
 8000380:	014b      	lsls	r3, r1, #5
 8000382:	1ac0      	subs	r0, r0, r3
 8000384:	4152      	adcs	r2, r2
 8000386:	0903      	lsrs	r3, r0, #4
 8000388:	428b      	cmp	r3, r1
 800038a:	d301      	bcc.n	8000390 <__divsi3+0x178>
 800038c:	010b      	lsls	r3, r1, #4
 800038e:	1ac0      	subs	r0, r0, r3
 8000390:	4152      	adcs	r2, r2
 8000392:	08c3      	lsrs	r3, r0, #3
 8000394:	428b      	cmp	r3, r1
 8000396:	d301      	bcc.n	800039c <__divsi3+0x184>
 8000398:	00cb      	lsls	r3, r1, #3
 800039a:	1ac0      	subs	r0, r0, r3
 800039c:	4152      	adcs	r2, r2
 800039e:	0883      	lsrs	r3, r0, #2
 80003a0:	428b      	cmp	r3, r1
 80003a2:	d301      	bcc.n	80003a8 <__divsi3+0x190>
 80003a4:	008b      	lsls	r3, r1, #2
 80003a6:	1ac0      	subs	r0, r0, r3
 80003a8:	4152      	adcs	r2, r2
 80003aa:	d2d9      	bcs.n	8000360 <__divsi3+0x148>
 80003ac:	0843      	lsrs	r3, r0, #1
 80003ae:	428b      	cmp	r3, r1
 80003b0:	d301      	bcc.n	80003b6 <__divsi3+0x19e>
 80003b2:	004b      	lsls	r3, r1, #1
 80003b4:	1ac0      	subs	r0, r0, r3
 80003b6:	4152      	adcs	r2, r2
 80003b8:	1a41      	subs	r1, r0, r1
 80003ba:	d200      	bcs.n	80003be <__divsi3+0x1a6>
 80003bc:	4601      	mov	r1, r0
 80003be:	4663      	mov	r3, ip
 80003c0:	4152      	adcs	r2, r2
 80003c2:	105b      	asrs	r3, r3, #1
 80003c4:	4610      	mov	r0, r2
 80003c6:	d301      	bcc.n	80003cc <__divsi3+0x1b4>
 80003c8:	4240      	negs	r0, r0
 80003ca:	2b00      	cmp	r3, #0
 80003cc:	d500      	bpl.n	80003d0 <__divsi3+0x1b8>
 80003ce:	4249      	negs	r1, r1
 80003d0:	4770      	bx	lr
 80003d2:	4663      	mov	r3, ip
 80003d4:	105b      	asrs	r3, r3, #1
 80003d6:	d300      	bcc.n	80003da <__divsi3+0x1c2>
 80003d8:	4240      	negs	r0, r0
 80003da:	b501      	push	{r0, lr}
 80003dc:	2000      	movs	r0, #0
 80003de:	f000 f805 	bl	80003ec <__aeabi_idiv0>
 80003e2:	bd02      	pop	{r1, pc}

080003e4 <__aeabi_idivmod>:
 80003e4:	2900      	cmp	r1, #0
 80003e6:	d0f8      	beq.n	80003da <__divsi3+0x1c2>
 80003e8:	e716      	b.n	8000218 <__divsi3>
 80003ea:	4770      	bx	lr

080003ec <__aeabi_idiv0>:
 80003ec:	4770      	bx	lr
 80003ee:	46c0      	nop			@ (mov r8, r8)

080003f0 <Reset_Handler>:

  .section .text.Reset_Handler
  .weak Reset_Handler
  .type Reset_Handler, %function
Reset_Handler:
  ldr   r0, =_estack
 80003f0:	480d      	ldr	r0, [pc, #52]	@ (8000428 <LoopForever+0x2>)
  mov   sp, r0          /* set stack pointer */
 80003f2:	4685      	mov	sp, r0
  
/* Call the clock system initialization function.*/
  bl  SystemInit
 80003f4:	f000 fac8 	bl	8000988 <SystemInit>

/* Copy the data segment initializers from flash to SRAM */
  ldr r0, =_sdata
 80003f8:	480c      	ldr	r0, [pc, #48]	@ (800042c <LoopForever+0x6>)
  ldr r1, =_edata
 80003fa:	490d      	ldr	r1, [pc, #52]	@ (8000430 <LoopForever+0xa>)
  ldr r2, =_sidata
 80003fc:	4a0d      	ldr	r2, [pc, #52]	@ (8000434 <LoopForever+0xe>)
  movs r3, #0
 80003fe:	2300      	movs	r3, #0
  b LoopCopyDataInit
 8000400:	e002      	b.n	8000408 <LoopCopyDataInit>

08000402 <CopyDataInit>:

CopyDataInit:
  ldr r4, [r2, r3]
 8000402:	58d4      	ldr	r4, [r2, r3]
  str r4, [r0, r3]
 8000404:	50c4      	str	r4, [r0, r3]
  adds r3, r3, #4
 8000406:	3304      	adds	r3, #4

08000408 <LoopCopyDataInit>:

LoopCopyDataInit:
  adds r4, r0, r3
 8000408:	18c4      	adds	r4, r0, r3
  cmp r4, r1
 800040a:	428c      	cmp	r4, r1
  bcc CopyDataInit
 800040c:	d3f9      	bcc.n	8000402 <CopyDataInit>
  
/* Zero fill the bss segment. */
  ldr r2, =_sbss
 800040e:	4a0a      	ldr	r2, [pc, #40]	@ (8000438 <LoopForever+0x12>)
  ldr r4, =_ebss
 8000410:	4c0a      	ldr	r4, [pc, #40]	@ (800043c <LoopForever+0x16>)
  movs r3, #0
 8000412:	2300      	movs	r3, #0
  b LoopFillZerobss
 8000414:	e001      	b.n	800041a <LoopFillZerobss>

08000416 <FillZerobss>:

FillZerobss:
  str  r3, [r2]
 8000416:	6013      	str	r3, [r2, #0]
  adds r2, r2, #4
 8000418:	3204      	adds	r2, #4

0800041a <LoopFillZerobss>:

LoopFillZerobss:
  cmp r2, r4
 800041a:	42a2      	cmp	r2, r4
  bcc FillZerobss
 800041c:	d3fb      	bcc.n	8000416 <FillZerobss>

/* Call static constructors */
  bl __libc_init_array
 800041e:	f005 fbdb 	bl	8005bd8 <__libc_init_array>
/* Call the application's entry point.*/
  bl main
 8000422:	f001 fbdb 	bl	8001bdc <main>

08000426 <LoopForever>:

LoopForever:
    b LoopForever
 8000426:	e7fe      	b.n	8000426 <LoopForever>
  ldr   r0, =_estack
 8000428:	20008000 	.word	0x20008000
  ldr r0, =_sdata
 800042c:	20000000 	.word	0x20000000
  ldr r1, =_edata
 8000430:	20000424 	.word	0x20000424
  ldr r2, =_sidata
 8000434:	08006800 	.word	0x08006800
  ldr r2, =_sbss
 8000438:	20000424 	.word	0x20000424
  ldr r4, =_ebss
 800043c:	20000a38 	.word	0x20000a38

08000440 <ADC1_COMP_IRQHandler>:
 * @retval : None
*/
    .section .text.Default_Handler,"ax",%progbits
Default_Handler:
Infinite_Loop:
  b Infinite_Loop
 8000440:	e7fe      	b.n	8000440 <ADC1_COMP_IRQHandler>
	...

08000444 <MX_ADC_Init>:
ADC_HandleTypeDef hadc;
DMA_HandleTypeDef hdma_adc;

/* ADC init function */
void MX_ADC_Init(void)
{
 8000444:	b580      	push	{r7, lr}
 8000446:	b084      	sub	sp, #16
 8000448:	af00      	add	r7, sp, #0

  /* USER CODE BEGIN ADC_Init 0 */

  /* USER CODE END ADC_Init 0 */

  ADC_ChannelConfTypeDef sConfig = {0};
 800044a:	1d3b      	adds	r3, r7, #4
 800044c:	0018      	movs	r0, r3
 800044e:	230c      	movs	r3, #12
 8000450:	001a      	movs	r2, r3
 8000452:	2100      	movs	r1, #0
 8000454:	f005 fbb8 	bl	8005bc8 <memset>

  /* USER CODE END ADC_Init 1 */

  /** Configure the global features of the ADC (Clock, Resolution, Data Alignment and number of conversion)
  */
  hadc.Instance = ADC1;
 8000458:	4b2c      	ldr	r3, [pc, #176]	@ (800050c <MX_ADC_Init+0xc8>)
 800045a:	4a2d      	ldr	r2, [pc, #180]	@ (8000510 <MX_ADC_Init+0xcc>)
 800045c:	601a      	str	r2, [r3, #0]
  hadc.Init.ClockPrescaler = ADC_CLOCK_ASYNC_DIV1;
 800045e:	4b2b      	ldr	r3, [pc, #172]	@ (800050c <MX_ADC_Init+0xc8>)
 8000460:	2200      	movs	r2, #0
 8000462:	605a      	str	r2, [r3, #4]
  hadc.Init.Resolution = ADC_RESOLUTION_12B;
 8000464:	4b29      	ldr	r3, [pc, #164]	@ (800050c <MX_ADC_Init+0xc8>)
 8000466:	2200      	movs	r2, #0
 8000468:	609a      	str	r2, [r3, #8]
  hadc.Init.DataAlign = ADC_DATAALIGN_RIGHT;
 800046a:	4b28      	ldr	r3, [pc, #160]	@ (800050c <MX_ADC_Init+0xc8>)
 800046c:	2200      	movs	r2, #0
 800046e:	60da      	str	r2, [r3, #12]
  hadc.Init.ScanConvMode = ADC_SCAN_DIRECTION_FORWARD;
 8000470:	4b26      	ldr	r3, [pc, #152]	@ (800050c <MX_ADC_Init+0xc8>)
 8000472:	2201      	movs	r2, #1
 8000474:	611a      	str	r2, [r3, #16]
  hadc.Init.EOCSelection = ADC_EOC_SINGLE_CONV;
 8000476:	4b25      	ldr	r3, [pc, #148]	@ (800050c <MX_ADC_Init+0xc8>)
 8000478:	2204      	movs	r2, #4
 800047a:	615a      	str	r2, [r3, #20]
  hadc.Init.LowPowerAutoWait = DISABLE;
 800047c:	4b23      	ldr	r3, [pc, #140]	@ (800050c <MX_ADC_Init+0xc8>)
 800047e:	2200      	movs	r2, #0
 8000480:	761a      	strb	r2, [r3, #24]
  hadc.Init.LowPowerAutoPowerOff = DISABLE;
 8000482:	4b22      	ldr	r3, [pc, #136]	@ (800050c <MX_ADC_Init+0xc8>)
 8000484:	2200      	movs	r2, #0
 8000486:	765a      	strb	r2, [r3, #25]
  hadc.Init.ContinuousConvMode = DISABLE;
 8000488:	4b20      	ldr	r3, [pc, #128]	@ (800050c <MX_ADC_Init+0xc8>)
 800048a:	2200      	movs	r2, #0
 800048c:	769a      	strb	r2, [r3, #26]
  hadc.Init.DiscontinuousConvMode = DISABLE;
 800048e:	4b1f      	ldr	r3, [pc, #124]	@ (800050c <MX_ADC_Init+0xc8>)
 8000490:	2200      	movs	r2, #0
 8000492:	76da      	strb	r2, [r3, #27]
  hadc.Init.ExternalTrigConv = ADC_EXTERNALTRIGCONV_T3_TRGO;
 8000494:	4b1d      	ldr	r3, [pc, #116]	@ (800050c <MX_ADC_Init+0xc8>)
 8000496:	22c0      	movs	r2, #192	@ 0xc0
 8000498:	61da      	str	r2, [r3, #28]
  hadc.Init.ExternalTrigConvEdge = ADC_EXTERNALTRIGCONVEDGE_RISINGFALLING;
 800049a:	4b1c      	ldr	r3, [pc, #112]	@ (800050c <MX_ADC_Init+0xc8>)
 800049c:	22c0      	movs	r2, #192	@ 0xc0
 800049e:	0112      	lsls	r2, r2, #4
 80004a0:	621a      	str	r2, [r3, #32]
  hadc.Init.DMAContinuousRequests = ENABLE;
 80004a2:	4b1a      	ldr	r3, [pc, #104]	@ (800050c <MX_ADC_Init+0xc8>)
 80004a4:	2224      	movs	r2, #36	@ 0x24
 80004a6:	2101      	movs	r1, #1
 80004a8:	5499      	strb	r1, [r3, r2]
  hadc.Init.Overrun = ADC_OVR_DATA_PRESERVED;
 80004aa:	4b18      	ldr	r3, [pc, #96]	@ (800050c <MX_ADC_Init+0xc8>)
 80004ac:	2201      	movs	r2, #1
 80004ae:	629a      	str	r2, [r3, #40]	@ 0x28
  if (HAL_ADC_Init(&hadc) != HAL_OK)
 80004b0:	4b16      	ldr	r3, [pc, #88]	@ (800050c <MX_ADC_Init+0xc8>)
 80004b2:	0018      	movs	r0, r3
 80004b4:	f002 feca 	bl	800324c <HAL_ADC_Init>
 80004b8:	1e03      	subs	r3, r0, #0
 80004ba:	d001      	beq.n	80004c0 <MX_ADC_Init+0x7c>
  {
    Error_Handler();
 80004bc:	f002 fd80 	bl	8002fc0 <Error_Handler>
  }

  /** Configure for the selected ADC regular channel to be converted.
  */
  sConfig.Channel = ADC_CHANNEL_0;
 80004c0:	1d3b      	adds	r3, r7, #4
 80004c2:	2200      	movs	r2, #0
 80004c4:	601a      	str	r2, [r3, #0]
  sConfig.Rank = ADC_RANK_CHANNEL_NUMBER;
 80004c6:	1d3b      	adds	r3, r7, #4
 80004c8:	2280      	movs	r2, #128	@ 0x80
 80004ca:	0152      	lsls	r2, r2, #5
 80004cc:	605a      	str	r2, [r3, #4]
  sConfig.SamplingTime = ADC_SAMPLETIME_239CYCLES_5;
 80004ce:	1d3b      	adds	r3, r7, #4
 80004d0:	2207      	movs	r2, #7
 80004d2:	609a      	str	r2, [r3, #8]
  if (HAL_ADC_ConfigChannel(&hadc, &sConfig) != HAL_OK)
 80004d4:	1d3a      	adds	r2, r7, #4
 80004d6:	4b0d      	ldr	r3, [pc, #52]	@ (800050c <MX_ADC_Init+0xc8>)
 80004d8:	0011      	movs	r1, r2
 80004da:	0018      	movs	r0, r3
 80004dc:	f003 f890 	bl	8003600 <HAL_ADC_ConfigChannel>
 80004e0:	1e03      	subs	r3, r0, #0
 80004e2:	d001      	beq.n	80004e8 <MX_ADC_Init+0xa4>
  {
    Error_Handler();
 80004e4:	f002 fd6c 	bl	8002fc0 <Error_Handler>
  }

  /** Configure for the selected ADC regular channel to be converted.
  */
  sConfig.Channel = ADC_CHANNEL_1;
 80004e8:	1d3b      	adds	r3, r7, #4
 80004ea:	2201      	movs	r2, #1
 80004ec:	601a      	str	r2, [r3, #0]
  if (HAL_ADC_ConfigChannel(&hadc, &sConfig) != HAL_OK)
 80004ee:	1d3a      	adds	r2, r7, #4
 80004f0:	4b06      	ldr	r3, [pc, #24]	@ (800050c <MX_ADC_Init+0xc8>)
 80004f2:	0011      	movs	r1, r2
 80004f4:	0018      	movs	r0, r3
 80004f6:	f003 f883 	bl	8003600 <HAL_ADC_ConfigChannel>
 80004fa:	1e03      	subs	r3, r0, #0
 80004fc:	d001      	beq.n	8000502 <MX_ADC_Init+0xbe>
  {
    Error_Handler();
 80004fe:	f002 fd5f 	bl	8002fc0 <Error_Handler>
  }
  /* USER CODE BEGIN ADC_Init 2 */

  /* USER CODE END ADC_Init 2 */

}
 8000502:	46c0      	nop			@ (mov r8, r8)
 8000504:	46bd      	mov	sp, r7
 8000506:	b004      	add	sp, #16
 8000508:	bd80      	pop	{r7, pc}
 800050a:	46c0      	nop			@ (mov r8, r8)
 800050c:	20000440 	.word	0x20000440
 8000510:	40012400 	.word	0x40012400

08000514 <HAL_ADC_MspInit>:

void HAL_ADC_MspInit(ADC_HandleTypeDef* adcHandle)
{
 8000514:	b590      	push	{r4, r7, lr}
 8000516:	b08b      	sub	sp, #44	@ 0x2c
 8000518:	af00      	add	r7, sp, #0
 800051a:	6078      	str	r0, [r7, #4]

  GPIO_InitTypeDef GPIO_InitStruct = {0};
 800051c:	2414      	movs	r4, #20
 800051e:	193b      	adds	r3, r7, r4
 8000520:	0018      	movs	r0, r3
 8000522:	2314      	movs	r3, #20
 8000524:	001a      	movs	r2, r3
 8000526:	2100      	movs	r1, #0
 8000528:	f005 fb4e 	bl	8005bc8 <memset>
  if(adcHandle->Instance==ADC1)
 800052c:	687b      	ldr	r3, [r7, #4]
 800052e:	681b      	ldr	r3, [r3, #0]
 8000530:	4a35      	ldr	r2, [pc, #212]	@ (8000608 <HAL_ADC_MspInit+0xf4>)
 8000532:	4293      	cmp	r3, r2
 8000534:	d164      	bne.n	8000600 <HAL_ADC_MspInit+0xec>
  {
  /* USER CODE BEGIN ADC1_MspInit 0 */

  /* USER CODE END ADC1_MspInit 0 */
    /* ADC1 clock enable */
    __HAL_RCC_ADC1_CLK_ENABLE();
 8000536:	4b35      	ldr	r3, [pc, #212]	@ (800060c <HAL_ADC_MspInit+0xf8>)
 8000538:	699a      	ldr	r2, [r3, #24]
 800053a:	4b34      	ldr	r3, [pc, #208]	@ (800060c <HAL_ADC_MspInit+0xf8>)
 800053c:	2180      	movs	r1, #128	@ 0x80
 800053e:	0089      	lsls	r1, r1, #2
 8000540:	430a      	orrs	r2, r1
 8000542:	619a      	str	r2, [r3, #24]
 8000544:	4b31      	ldr	r3, [pc, #196]	@ (800060c <HAL_ADC_MspInit+0xf8>)
 8000546:	699a      	ldr	r2, [r3, #24]
 8000548:	2380      	movs	r3, #128	@ 0x80
 800054a:	009b      	lsls	r3, r3, #2
 800054c:	4013      	ands	r3, r2
 800054e:	613b      	str	r3, [r7, #16]
 8000550:	693b      	ldr	r3, [r7, #16]

    __HAL_RCC_GPIOA_CLK_ENABLE();
 8000552:	4b2e      	ldr	r3, [pc, #184]	@ (800060c <HAL_ADC_MspInit+0xf8>)
 8000554:	695a      	ldr	r2, [r3, #20]
 8000556:	4b2d      	ldr	r3, [pc, #180]	@ (800060c <HAL_ADC_MspInit+0xf8>)
 8000558:	2180      	movs	r1, #128	@ 0x80
 800055a:	0289      	lsls	r1, r1, #10
 800055c:	430a      	orrs	r2, r1
 800055e:	615a      	str	r2, [r3, #20]
 8000560:	4b2a      	ldr	r3, [pc, #168]	@ (800060c <HAL_ADC_MspInit+0xf8>)
 8000562:	695a      	ldr	r2, [r3, #20]
 8000564:	2380      	movs	r3, #128	@ 0x80
 8000566:	029b      	lsls	r3, r3, #10
 8000568:	4013      	ands	r3, r2
 800056a:	60fb      	str	r3, [r7, #12]
 800056c:	68fb      	ldr	r3, [r7, #12]
    /**ADC GPIO Configuration
    PA0     ------> ADC_IN0
    PA1     ------> ADC_IN1
    */
    GPIO_InitStruct.Pin = GPIO_PIN_0|GPIO_PIN_1;
 800056e:	193b      	adds	r3, r7, r4
 8000570:	2203      	movs	r2, #3
 8000572:	601a      	str	r2, [r3, #0]
    GPIO_InitStruct.Mode = GPIO_MODE_ANALOG;
 8000574:	193b      	adds	r3, r7, r4
 8000576:	2203      	movs	r2, #3
 8000578:	605a      	str	r2, [r3, #4]
    GPIO_InitStruct.Pull = GPIO_NOPULL;
 800057a:	193b      	adds	r3, r7, r4
 800057c:	2200      	movs	r2, #0
 800057e:	609a      	str	r2, [r3, #8]
    HAL_GPIO_Init(GPIOA, &GPIO_InitStruct);
 8000580:	193a      	adds	r2, r7, r4
 8000582:	2390      	movs	r3, #144	@ 0x90
 8000584:	05db      	lsls	r3, r3, #23
 8000586:	0011      	movs	r1, r2
 8000588:	0018      	movs	r0, r3
 800058a:	f003 fce3 	bl	8003f54 <HAL_GPIO_Init>

    /* ADC1 DMA Init */
    /* ADC Init */
    hdma_adc.Instance = DMA1_Channel2;
 800058e:	4b20      	ldr	r3, [pc, #128]	@ (8000610 <HAL_ADC_MspInit+0xfc>)
 8000590:	4a20      	ldr	r2, [pc, #128]	@ (8000614 <HAL_ADC_MspInit+0x100>)
 8000592:	601a      	str	r2, [r3, #0]
    hdma_adc.Init.Direction = DMA_PERIPH_TO_MEMORY;
 8000594:	4b1e      	ldr	r3, [pc, #120]	@ (8000610 <HAL_ADC_MspInit+0xfc>)
 8000596:	2200      	movs	r2, #0
 8000598:	605a      	str	r2, [r3, #4]
    hdma_adc.Init.PeriphInc = DMA_PINC_DISABLE;
 800059a:	4b1d      	ldr	r3, [pc, #116]	@ (8000610 <HAL_ADC_MspInit+0xfc>)
 800059c:	2200      	movs	r2, #0
 800059e:	609a      	str	r2, [r3, #8]
    hdma_adc.Init.MemInc = DMA_MINC_ENABLE;
 80005a0:	4b1b      	ldr	r3, [pc, #108]	@ (8000610 <HAL_ADC_MspInit+0xfc>)
 80005a2:	2280      	movs	r2, #128	@ 0x80
 80005a4:	60da      	str	r2, [r3, #12]
    hdma_adc.Init.PeriphDataAlignment = DMA_PDATAALIGN_HALFWORD;
 80005a6:	4b1a      	ldr	r3, [pc, #104]	@ (8000610 <HAL_ADC_MspInit+0xfc>)
 80005a8:	2280      	movs	r2, #128	@ 0x80
 80005aa:	0052      	lsls	r2, r2, #1
 80005ac:	611a      	str	r2, [r3, #16]
    hdma_adc.Init.MemDataAlignment = DMA_MDATAALIGN_HALFWORD;
 80005ae:	4b18      	ldr	r3, [pc, #96]	@ (8000610 <HAL_ADC_MspInit+0xfc>)
 80005b0:	2280      	movs	r2, #128	@ 0x80
 80005b2:	00d2      	lsls	r2, r2, #3
 80005b4:	615a      	str	r2, [r3, #20]
    hdma_adc.Init.Mode = DMA_CIRCULAR;
 80005b6:	4b16      	ldr	r3, [pc, #88]	@ (8000610 <HAL_ADC_MspInit+0xfc>)
 80005b8:	2220      	movs	r2, #32
 80005ba:	619a      	str	r2, [r3, #24]
    hdma_adc.Init.Priority = DMA_PRIORITY_MEDIUM;
 80005bc:	4b14      	ldr	r3, [pc, #80]	@ (8000610 <HAL_ADC_MspInit+0xfc>)
 80005be:	2280      	movs	r2, #128	@ 0x80
 80005c0:	0152      	lsls	r2, r2, #5
 80005c2:	61da      	str	r2, [r3, #28]
    if (HAL_DMA_Init(&hdma_adc) != HAL_OK)
 80005c4:	4b12      	ldr	r3, [pc, #72]	@ (8000610 <HAL_ADC_MspInit+0xfc>)
 80005c6:	0018      	movs	r0, r3
 80005c8:	f003 fb0e 	bl	8003be8 <HAL_DMA_Init>
 80005cc:	1e03      	subs	r3, r0, #0
 80005ce:	d001      	beq.n	80005d4 <HAL_ADC_MspInit+0xc0>
    {
      Error_Handler();
 80005d0:	f002 fcf6 	bl	8002fc0 <Error_Handler>
    }

    __HAL_DMA1_REMAP(HAL_DMA1_CH2_ADC);
 80005d4:	4a10      	ldr	r2, [pc, #64]	@ (8000618 <HAL_ADC_MspInit+0x104>)
 80005d6:	23a8      	movs	r3, #168	@ 0xa8
 80005d8:	58d3      	ldr	r3, [r2, r3]
 80005da:	490f      	ldr	r1, [pc, #60]	@ (8000618 <HAL_ADC_MspInit+0x104>)
 80005dc:	22f0      	movs	r2, #240	@ 0xf0
 80005de:	4393      	bics	r3, r2
 80005e0:	22a8      	movs	r2, #168	@ 0xa8
 80005e2:	508b      	str	r3, [r1, r2]
 80005e4:	4a0c      	ldr	r2, [pc, #48]	@ (8000618 <HAL_ADC_MspInit+0x104>)
 80005e6:	23a8      	movs	r3, #168	@ 0xa8
 80005e8:	58d3      	ldr	r3, [r2, r3]
 80005ea:	490b      	ldr	r1, [pc, #44]	@ (8000618 <HAL_ADC_MspInit+0x104>)
 80005ec:	2210      	movs	r2, #16
 80005ee:	4313      	orrs	r3, r2
 80005f0:	22a8      	movs	r2, #168	@ 0xa8
 80005f2:	508b      	str	r3, [r1, r2]

    __HAL_LINKDMA(adcHandle,DMA_Handle,hdma_adc);
 80005f4:	687b      	ldr	r3, [r7, #4]
 80005f6:	4a06      	ldr	r2, [pc, #24]	@ (8000610 <HAL_ADC_MspInit+0xfc>)
 80005f8:	631a      	str	r2, [r3, #48]	@ 0x30
 80005fa:	4b05      	ldr	r3, [pc, #20]	@ (8000610 <HAL_ADC_MspInit+0xfc>)
 80005fc:	687a      	ldr	r2, [r7, #4]
 80005fe:	625a      	str	r2, [r3, #36]	@ 0x24

  /* USER CODE BEGIN ADC1_MspInit 1 */

  /* USER CODE END ADC1_MspInit 1 */
  }
}
 8000600:	46c0      	nop			@ (mov r8, r8)
 8000602:	46bd      	mov	sp, r7
 8000604:	b00b      	add	sp, #44	@ 0x2c
 8000606:	bd90      	pop	{r4, r7, pc}
 8000608:	40012400 	.word	0x40012400
 800060c:	40021000 	.word	0x40021000
 8000610:	20000480 	.word	0x20000480
 8000614:	4002001c 	.word	0x4002001c
 8000618:	40020000 	.word	0x40020000

0800061c <MX_DMA_Init>:

/**
  * Enable DMA controller clock
  */
void MX_DMA_Init(void)
{
 800061c:	b580      	push	{r7, lr}
 800061e:	b082      	sub	sp, #8
 8000620:	af00      	add	r7, sp, #0

  /* DMA controller clock enable */
  __HAL_RCC_DMA1_CLK_ENABLE();
 8000622:	4b0c      	ldr	r3, [pc, #48]	@ (8000654 <MX_DMA_Init+0x38>)
 8000624:	695a      	ldr	r2, [r3, #20]
 8000626:	4b0b      	ldr	r3, [pc, #44]	@ (8000654 <MX_DMA_Init+0x38>)
 8000628:	2101      	movs	r1, #1
 800062a:	430a      	orrs	r2, r1
 800062c:	615a      	str	r2, [r3, #20]
 800062e:	4b09      	ldr	r3, [pc, #36]	@ (8000654 <MX_DMA_Init+0x38>)
 8000630:	695b      	ldr	r3, [r3, #20]
 8000632:	2201      	movs	r2, #1
 8000634:	4013      	ands	r3, r2
 8000636:	607b      	str	r3, [r7, #4]
 8000638:	687b      	ldr	r3, [r7, #4]

  /* DMA interrupt init */
  /* DMA1_Ch2_3_DMA2_Ch1_2_IRQn interrupt configuration */
  HAL_NVIC_SetPriority(DMA1_Ch2_3_DMA2_Ch1_2_IRQn, 0, 0);
 800063a:	2200      	movs	r2, #0
 800063c:	2100      	movs	r1, #0
 800063e:	200a      	movs	r0, #10
 8000640:	f003 faa0 	bl	8003b84 <HAL_NVIC_SetPriority>
  HAL_NVIC_EnableIRQ(DMA1_Ch2_3_DMA2_Ch1_2_IRQn);
 8000644:	200a      	movs	r0, #10
 8000646:	f003 fab2 	bl	8003bae <HAL_NVIC_EnableIRQ>

}
 800064a:	46c0      	nop			@ (mov r8, r8)
 800064c:	46bd      	mov	sp, r7
 800064e:	b002      	add	sp, #8
 8000650:	bd80      	pop	{r7, pc}
 8000652:	46c0      	nop			@ (mov r8, r8)
 8000654:	40021000 	.word	0x40021000

08000658 <MX_GPIO_Init>:
        * EXTI
     PA2   ------> USART2_TX
     PA3   ------> USART2_RX
*/
void MX_GPIO_Init(void)
{
 8000658:	b590      	push	{r4, r7, lr}
 800065a:	b08b      	sub	sp, #44	@ 0x2c
 800065c:	af00      	add	r7, sp, #0

  GPIO_InitTypeDef GPIO_InitStruct = {0};
 800065e:	2414      	movs	r4, #20
 8000660:	193b      	adds	r3, r7, r4
 8000662:	0018      	movs	r0, r3
 8000664:	2314      	movs	r3, #20
 8000666:	001a      	movs	r2, r3
 8000668:	2100      	movs	r1, #0
 800066a:	f005 faad 	bl	8005bc8 <memset>

  /* GPIO Ports Clock Enable */
  __HAL_RCC_GPIOC_CLK_ENABLE();
 800066e:	4b59      	ldr	r3, [pc, #356]	@ (80007d4 <MX_GPIO_Init+0x17c>)
 8000670:	695a      	ldr	r2, [r3, #20]
 8000672:	4b58      	ldr	r3, [pc, #352]	@ (80007d4 <MX_GPIO_Init+0x17c>)
 8000674:	2180      	movs	r1, #128	@ 0x80
 8000676:	0309      	lsls	r1, r1, #12
 8000678:	430a      	orrs	r2, r1
 800067a:	615a      	str	r2, [r3, #20]
 800067c:	4b55      	ldr	r3, [pc, #340]	@ (80007d4 <MX_GPIO_Init+0x17c>)
 800067e:	695a      	ldr	r2, [r3, #20]
 8000680:	2380      	movs	r3, #128	@ 0x80
 8000682:	031b      	lsls	r3, r3, #12
 8000684:	4013      	ands	r3, r2
 8000686:	613b      	str	r3, [r7, #16]
 8000688:	693b      	ldr	r3, [r7, #16]
  __HAL_RCC_GPIOF_CLK_ENABLE();
 800068a:	4b52      	ldr	r3, [pc, #328]	@ (80007d4 <MX_GPIO_Init+0x17c>)
 800068c:	695a      	ldr	r2, [r3, #20]
 800068e:	4b51      	ldr	r3, [pc, #324]	@ (80007d4 <MX_GPIO_Init+0x17c>)
 8000690:	2180      	movs	r1, #128	@ 0x80
 8000692:	03c9      	lsls	r1, r1, #15
 8000694:	430a      	orrs	r2, r1
 8000696:	615a      	str	r2, [r3, #20]
 8000698:	4b4e      	ldr	r3, [pc, #312]	@ (80007d4 <MX_GPIO_Init+0x17c>)
 800069a:	695a      	ldr	r2, [r3, #20]
 800069c:	2380      	movs	r3, #128	@ 0x80
 800069e:	03db      	lsls	r3, r3, #15
 80006a0:	4013      	ands	r3, r2
 80006a2:	60fb      	str	r3, [r7, #12]
 80006a4:	68fb      	ldr	r3, [r7, #12]
  __HAL_RCC_GPIOA_CLK_ENABLE();
 80006a6:	4b4b      	ldr	r3, [pc, #300]	@ (80007d4 <MX_GPIO_Init+0x17c>)
 80006a8:	695a      	ldr	r2, [r3, #20]
 80006aa:	4b4a      	ldr	r3, [pc, #296]	@ (80007d4 <MX_GPIO_Init+0x17c>)
 80006ac:	2180      	movs	r1, #128	@ 0x80
 80006ae:	0289      	lsls	r1, r1, #10
 80006b0:	430a      	orrs	r2, r1
 80006b2:	615a      	str	r2, [r3, #20]
 80006b4:	4b47      	ldr	r3, [pc, #284]	@ (80007d4 <MX_GPIO_Init+0x17c>)
 80006b6:	695a      	ldr	r2, [r3, #20]
 80006b8:	2380      	movs	r3, #128	@ 0x80
 80006ba:	029b      	lsls	r3, r3, #10
 80006bc:	4013      	ands	r3, r2
 80006be:	60bb      	str	r3, [r7, #8]
 80006c0:	68bb      	ldr	r3, [r7, #8]
  __HAL_RCC_GPIOB_CLK_ENABLE();
 80006c2:	4b44      	ldr	r3, [pc, #272]	@ (80007d4 <MX_GPIO_Init+0x17c>)
 80006c4:	695a      	ldr	r2, [r3, #20]
 80006c6:	4b43      	ldr	r3, [pc, #268]	@ (80007d4 <MX_GPIO_Init+0x17c>)
 80006c8:	2180      	movs	r1, #128	@ 0x80
 80006ca:	02c9      	lsls	r1, r1, #11
 80006cc:	430a      	orrs	r2, r1
 80006ce:	615a      	str	r2, [r3, #20]
 80006d0:	4b40      	ldr	r3, [pc, #256]	@ (80007d4 <MX_GPIO_Init+0x17c>)
 80006d2:	695a      	ldr	r2, [r3, #20]
 80006d4:	2380      	movs	r3, #128	@ 0x80
 80006d6:	02db      	lsls	r3, r3, #11
 80006d8:	4013      	ands	r3, r2
 80006da:	607b      	str	r3, [r7, #4]
 80006dc:	687b      	ldr	r3, [r7, #4]

  /*Configure GPIO pin Output Level */
  HAL_GPIO_WritePin(SPICD_GPIO_Port, SPICD_Pin, GPIO_PIN_RESET);
 80006de:	4b3e      	ldr	r3, [pc, #248]	@ (80007d8 <MX_GPIO_Init+0x180>)
 80006e0:	2200      	movs	r2, #0
 80006e2:	2180      	movs	r1, #128	@ 0x80
 80006e4:	0018      	movs	r0, r3
 80006e6:	f003 fdad 	bl	8004244 <HAL_GPIO_WritePin>

  /*Configure GPIO pin Output Level */
  HAL_GPIO_WritePin(GPIOA, BL_Pin|SPIRST_Pin, GPIO_PIN_RESET);
 80006ea:	23c0      	movs	r3, #192	@ 0xc0
 80006ec:	0099      	lsls	r1, r3, #2
 80006ee:	2390      	movs	r3, #144	@ 0x90
 80006f0:	05db      	lsls	r3, r3, #23
 80006f2:	2200      	movs	r2, #0
 80006f4:	0018      	movs	r0, r3
 80006f6:	f003 fda5 	bl	8004244 <HAL_GPIO_WritePin>

  /*Configure GPIO pin Output Level */
  HAL_GPIO_WritePin(SPICS_GPIO_Port, SPICS_Pin, GPIO_PIN_RESET);
 80006fa:	4b38      	ldr	r3, [pc, #224]	@ (80007dc <MX_GPIO_Init+0x184>)
 80006fc:	2200      	movs	r2, #0
 80006fe:	2140      	movs	r1, #64	@ 0x40
 8000700:	0018      	movs	r0, r3
 8000702:	f003 fd9f 	bl	8004244 <HAL_GPIO_WritePin>

  /*Configure GPIO pin : B1_Pin */
  GPIO_InitStruct.Pin = B1_Pin;
 8000706:	193b      	adds	r3, r7, r4
 8000708:	2280      	movs	r2, #128	@ 0x80
 800070a:	0192      	lsls	r2, r2, #6
 800070c:	601a      	str	r2, [r3, #0]
  GPIO_InitStruct.Mode = GPIO_MODE_IT_FALLING;
 800070e:	193b      	adds	r3, r7, r4
 8000710:	2284      	movs	r2, #132	@ 0x84
 8000712:	0392      	lsls	r2, r2, #14
 8000714:	605a      	str	r2, [r3, #4]
  GPIO_InitStruct.Pull = GPIO_NOPULL;
 8000716:	193b      	adds	r3, r7, r4
 8000718:	2200      	movs	r2, #0
 800071a:	609a      	str	r2, [r3, #8]
  HAL_GPIO_Init(B1_GPIO_Port, &GPIO_InitStruct);
 800071c:	193b      	adds	r3, r7, r4
 800071e:	4a2e      	ldr	r2, [pc, #184]	@ (80007d8 <MX_GPIO_Init+0x180>)
 8000720:	0019      	movs	r1, r3
 8000722:	0010      	movs	r0, r2
 8000724:	f003 fc16 	bl	8003f54 <HAL_GPIO_Init>

  /*Configure GPIO pins : USART_TX_Pin USART_RX_Pin */
  GPIO_InitStruct.Pin = USART_TX_Pin|USART_RX_Pin;
 8000728:	193b      	adds	r3, r7, r4
 800072a:	220c      	movs	r2, #12
 800072c:	601a      	str	r2, [r3, #0]
  GPIO_InitStruct.Mode = GPIO_MODE_AF_PP;
 800072e:	193b      	adds	r3, r7, r4
 8000730:	2202      	movs	r2, #2
 8000732:	605a      	str	r2, [r3, #4]
  GPIO_InitStruct.Pull = GPIO_NOPULL;
 8000734:	193b      	adds	r3, r7, r4
 8000736:	2200      	movs	r2, #0
 8000738:	609a      	str	r2, [r3, #8]
  GPIO_InitStruct.Speed = GPIO_SPEED_FREQ_LOW;
 800073a:	193b      	adds	r3, r7, r4
 800073c:	2200      	movs	r2, #0
 800073e:	60da      	str	r2, [r3, #12]
  GPIO_InitStruct.Alternate = GPIO_AF1_USART2;
 8000740:	193b      	adds	r3, r7, r4
 8000742:	2201      	movs	r2, #1
 8000744:	611a      	str	r2, [r3, #16]
  HAL_GPIO_Init(GPIOA, &GPIO_InitStruct);
 8000746:	193a      	adds	r2, r7, r4
 8000748:	2390      	movs	r3, #144	@ 0x90
 800074a:	05db      	lsls	r3, r3, #23
 800074c:	0011      	movs	r1, r2
 800074e:	0018      	movs	r0, r3
 8000750:	f003 fc00 	bl	8003f54 <HAL_GPIO_Init>

  /*Configure GPIO pin : SPICD_Pin */
  GPIO_InitStruct.Pin = SPICD_Pin;
 8000754:	193b      	adds	r3, r7, r4
 8000756:	2280      	movs	r2, #128	@ 0x80
 8000758:	601a      	str	r2, [r3, #0]
  GPIO_InitStruct.Mode = GPIO_MODE_OUTPUT_PP;
 800075a:	193b      	adds	r3, r7, r4
 800075c:	2201      	movs	r2, #1
 800075e:	605a      	str	r2, [r3, #4]
  GPIO_InitStruct.Pull = GPIO_NOPULL;
 8000760:	193b      	adds	r3, r7, r4
 8000762:	2200      	movs	r2, #0
 8000764:	609a      	str	r2, [r3, #8]
  GPIO_InitStruct.Speed = GPIO_SPEED_FREQ_LOW;
 8000766:	193b      	adds	r3, r7, r4
 8000768:	2200      	movs	r2, #0
 800076a:	60da      	str	r2, [r3, #12]
  HAL_GPIO_Init(SPICD_GPIO_Port, &GPIO_InitStruct);
 800076c:	193b      	adds	r3, r7, r4
 800076e:	4a1a      	ldr	r2, [pc, #104]	@ (80007d8 <MX_GPIO_Init+0x180>)
 8000770:	0019      	movs	r1, r3
 8000772:	0010      	movs	r0, r2
 8000774:	f003 fbee 	bl	8003f54 <HAL_GPIO_Init>

  /*Configure GPIO pins : BL_Pin SPIRST_Pin */
  GPIO_InitStruct.Pin = BL_Pin|SPIRST_Pin;
 8000778:	0021      	movs	r1, r4
 800077a:	187b      	adds	r3, r7, r1
 800077c:	22c0      	movs	r2, #192	@ 0xc0
 800077e:	0092      	lsls	r2, r2, #2
 8000780:	601a      	str	r2, [r3, #0]
  GPIO_InitStruct.Mode = GPIO_MODE_OUTPUT_PP;
 8000782:	000c      	movs	r4, r1
 8000784:	193b      	adds	r3, r7, r4
 8000786:	2201      	movs	r2, #1
 8000788:	605a      	str	r2, [r3, #4]
  GPIO_InitStruct.Pull = GPIO_NOPULL;
 800078a:	193b      	adds	r3, r7, r4
 800078c:	2200      	movs	r2, #0
 800078e:	609a      	str	r2, [r3, #8]
  GPIO_InitStruct.Speed = GPIO_SPEED_FREQ_LOW;
 8000790:	193b      	adds	r3, r7, r4
 8000792:	2200      	movs	r2, #0
 8000794:	60da      	str	r2, [r3, #12]
  HAL_GPIO_Init(GPIOA, &GPIO_InitStruct);
 8000796:	193a      	adds	r2, r7, r4
 8000798:	2390      	movs	r3, #144	@ 0x90
 800079a:	05db      	lsls	r3, r3, #23
 800079c:	0011      	movs	r1, r2
 800079e:	0018      	movs	r0, r3
 80007a0:	f003 fbd8 	bl	8003f54 <HAL_GPIO_Init>

  /*Configure GPIO pin : SPICS_Pin */
  GPIO_InitStruct.Pin = SPICS_Pin;
 80007a4:	0021      	movs	r1, r4
 80007a6:	187b      	adds	r3, r7, r1
 80007a8:	2240      	movs	r2, #64	@ 0x40
 80007aa:	601a      	str	r2, [r3, #0]
  GPIO_InitStruct.Mode = GPIO_MODE_OUTPUT_PP;
 80007ac:	187b      	adds	r3, r7, r1
 80007ae:	2201      	movs	r2, #1
 80007b0:	605a      	str	r2, [r3, #4]
  GPIO_InitStruct.Pull = GPIO_NOPULL;
 80007b2:	187b      	adds	r3, r7, r1
 80007b4:	2200      	movs	r2, #0
 80007b6:	609a      	str	r2, [r3, #8]
  GPIO_InitStruct.Speed = GPIO_SPEED_FREQ_LOW;
 80007b8:	187b      	adds	r3, r7, r1
 80007ba:	2200      	movs	r2, #0
 80007bc:	60da      	str	r2, [r3, #12]
  HAL_GPIO_Init(SPICS_GPIO_Port, &GPIO_InitStruct);
 80007be:	187b      	adds	r3, r7, r1
 80007c0:	4a06      	ldr	r2, [pc, #24]	@ (80007dc <MX_GPIO_Init+0x184>)
 80007c2:	0019      	movs	r1, r3
 80007c4:	0010      	movs	r0, r2
 80007c6:	f003 fbc5 	bl	8003f54 <HAL_GPIO_Init>

}
 80007ca:	46c0      	nop			@ (mov r8, r8)
 80007cc:	46bd      	mov	sp, r7
 80007ce:	b00b      	add	sp, #44	@ 0x2c
 80007d0:	bd90      	pop	{r4, r7, pc}
 80007d2:	46c0      	nop			@ (mov r8, r8)
 80007d4:	40021000 	.word	0x40021000
 80007d8:	48000800 	.word	0x48000800
 80007dc:	48000400 	.word	0x48000400

080007e0 <MX_SPI1_Init>:

SPI_HandleTypeDef hspi1;

/* SPI1 init function */
void MX_SPI1_Init(void)
{
 80007e0:	b580      	push	{r7, lr}
 80007e2:	af00      	add	r7, sp, #0
  /* USER CODE END SPI1_Init 0 */

  /* USER CODE BEGIN SPI1_Init 1 */

  /* USER CODE END SPI1_Init 1 */
  hspi1.Instance = SPI1;
 80007e4:	4b1b      	ldr	r3, [pc, #108]	@ (8000854 <MX_SPI1_Init+0x74>)
 80007e6:	4a1c      	ldr	r2, [pc, #112]	@ (8000858 <MX_SPI1_Init+0x78>)
 80007e8:	601a      	str	r2, [r3, #0]
  hspi1.Init.Mode = SPI_MODE_MASTER;
 80007ea:	4b1a      	ldr	r3, [pc, #104]	@ (8000854 <MX_SPI1_Init+0x74>)
 80007ec:	2282      	movs	r2, #130	@ 0x82
 80007ee:	0052      	lsls	r2, r2, #1
 80007f0:	605a      	str	r2, [r3, #4]
  hspi1.Init.Direction = SPI_DIRECTION_2LINES;
 80007f2:	4b18      	ldr	r3, [pc, #96]	@ (8000854 <MX_SPI1_Init+0x74>)
 80007f4:	2200      	movs	r2, #0
 80007f6:	609a      	str	r2, [r3, #8]
  hspi1.Init.DataSize = SPI_DATASIZE_8BIT;
 80007f8:	4b16      	ldr	r3, [pc, #88]	@ (8000854 <MX_SPI1_Init+0x74>)
 80007fa:	22e0      	movs	r2, #224	@ 0xe0
 80007fc:	00d2      	lsls	r2, r2, #3
 80007fe:	60da      	str	r2, [r3, #12]
  hspi1.Init.CLKPolarity = SPI_POLARITY_LOW;
 8000800:	4b14      	ldr	r3, [pc, #80]	@ (8000854 <MX_SPI1_Init+0x74>)
 8000802:	2200      	movs	r2, #0
 8000804:	611a      	str	r2, [r3, #16]
  hspi1.Init.CLKPhase = SPI_PHASE_1EDGE;
 8000806:	4b13      	ldr	r3, [pc, #76]	@ (8000854 <MX_SPI1_Init+0x74>)
 8000808:	2200      	movs	r2, #0
 800080a:	615a      	str	r2, [r3, #20]
  hspi1.Init.NSS = SPI_NSS_SOFT;
 800080c:	4b11      	ldr	r3, [pc, #68]	@ (8000854 <MX_SPI1_Init+0x74>)
 800080e:	2280      	movs	r2, #128	@ 0x80
 8000810:	0092      	lsls	r2, r2, #2
 8000812:	619a      	str	r2, [r3, #24]
  hspi1.Init.BaudRatePrescaler = SPI_BAUDRATEPRESCALER_16;
 8000814:	4b0f      	ldr	r3, [pc, #60]	@ (8000854 <MX_SPI1_Init+0x74>)
 8000816:	2218      	movs	r2, #24
 8000818:	61da      	str	r2, [r3, #28]
  hspi1.Init.FirstBit = SPI_FIRSTBIT_MSB;
 800081a:	4b0e      	ldr	r3, [pc, #56]	@ (8000854 <MX_SPI1_Init+0x74>)
 800081c:	2200      	movs	r2, #0
 800081e:	621a      	str	r2, [r3, #32]
  hspi1.Init.TIMode = SPI_TIMODE_DISABLE;
 8000820:	4b0c      	ldr	r3, [pc, #48]	@ (8000854 <MX_SPI1_Init+0x74>)
 8000822:	2200      	movs	r2, #0
 8000824:	625a      	str	r2, [r3, #36]	@ 0x24
  hspi1.Init.CRCCalculation = SPI_CRCCALCULATION_DISABLE;
 8000826:	4b0b      	ldr	r3, [pc, #44]	@ (8000854 <MX_SPI1_Init+0x74>)
 8000828:	2200      	movs	r2, #0
 800082a:	629a      	str	r2, [r3, #40]	@ 0x28
  hspi1.Init.CRCPolynomial = 7;
 800082c:	4b09      	ldr	r3, [pc, #36]	@ (8000854 <MX_SPI1_Init+0x74>)
 800082e:	2207      	movs	r2, #7
 8000830:	62da      	str	r2, [r3, #44]	@ 0x2c
  hspi1.Init.CRCLength = SPI_CRC_LENGTH_DATASIZE;
 8000832:	4b08      	ldr	r3, [pc, #32]	@ (8000854 <MX_SPI1_Init+0x74>)
 8000834:	2200      	movs	r2, #0
 8000836:	631a      	str	r2, [r3, #48]	@ 0x30
  hspi1.Init.NSSPMode = SPI_NSS_PULSE_ENABLE;
 8000838:	4b06      	ldr	r3, [pc, #24]	@ (8000854 <MX_SPI1_Init+0x74>)
 800083a:	2208      	movs	r2, #8
 800083c:	635a      	str	r2, [r3, #52]	@ 0x34
  if (HAL_SPI_Init(&hspi1) != HAL_OK)
 800083e:	4b05      	ldr	r3, [pc, #20]	@ (8000854 <MX_SPI1_Init+0x74>)
 8000840:	0018      	movs	r0, r3
 8000842:	f004 faef 	bl	8004e24 <HAL_SPI_Init>
 8000846:	1e03      	subs	r3, r0, #0
 8000848:	d001      	beq.n	800084e <MX_SPI1_Init+0x6e>
  {
    Error_Handler();
 800084a:	f002 fbb9 	bl	8002fc0 <Error_Handler>
  }
  /* USER CODE BEGIN SPI1_Init 2 */

  /* USER CODE END SPI1_Init 2 */

}
 800084e:	46c0      	nop			@ (mov r8, r8)
 8000850:	46bd      	mov	sp, r7
 8000852:	bd80      	pop	{r7, pc}
 8000854:	200004c4 	.word	0x200004c4
 8000858:	40013000 	.word	0x40013000

0800085c <HAL_SPI_MspInit>:

void HAL_SPI_MspInit(SPI_HandleTypeDef* spiHandle)
{
 800085c:	b590      	push	{r4, r7, lr}
 800085e:	b08b      	sub	sp, #44	@ 0x2c
 8000860:	af00      	add	r7, sp, #0
 8000862:	6078      	str	r0, [r7, #4]

  GPIO_InitTypeDef GPIO_InitStruct = {0};
 8000864:	2414      	movs	r4, #20
 8000866:	193b      	adds	r3, r7, r4
 8000868:	0018      	movs	r0, r3
 800086a:	2314      	movs	r3, #20
 800086c:	001a      	movs	r2, r3
 800086e:	2100      	movs	r1, #0
 8000870:	f005 f9aa 	bl	8005bc8 <memset>
  if(spiHandle->Instance==SPI1)
 8000874:	687b      	ldr	r3, [r7, #4]
 8000876:	681b      	ldr	r3, [r3, #0]
 8000878:	4a1c      	ldr	r2, [pc, #112]	@ (80008ec <HAL_SPI_MspInit+0x90>)
 800087a:	4293      	cmp	r3, r2
 800087c:	d132      	bne.n	80008e4 <HAL_SPI_MspInit+0x88>
  {
  /* USER CODE BEGIN SPI1_MspInit 0 */

  /* USER CODE END SPI1_MspInit 0 */
    /* SPI1 clock enable */
    __HAL_RCC_SPI1_CLK_ENABLE();
 800087e:	4b1c      	ldr	r3, [pc, #112]	@ (80008f0 <HAL_SPI_MspInit+0x94>)
 8000880:	699a      	ldr	r2, [r3, #24]
 8000882:	4b1b      	ldr	r3, [pc, #108]	@ (80008f0 <HAL_SPI_MspInit+0x94>)
 8000884:	2180      	movs	r1, #128	@ 0x80
 8000886:	0149      	lsls	r1, r1, #5
 8000888:	430a      	orrs	r2, r1
 800088a:	619a      	str	r2, [r3, #24]
 800088c:	4b18      	ldr	r3, [pc, #96]	@ (80008f0 <HAL_SPI_MspInit+0x94>)
 800088e:	699a      	ldr	r2, [r3, #24]
 8000890:	2380      	movs	r3, #128	@ 0x80
 8000892:	015b      	lsls	r3, r3, #5
 8000894:	4013      	ands	r3, r2
 8000896:	613b      	str	r3, [r7, #16]
 8000898:	693b      	ldr	r3, [r7, #16]

    __HAL_RCC_GPIOA_CLK_ENABLE();
 800089a:	4b15      	ldr	r3, [pc, #84]	@ (80008f0 <HAL_SPI_MspInit+0x94>)
 800089c:	695a      	ldr	r2, [r3, #20]
 800089e:	4b14      	ldr	r3, [pc, #80]	@ (80008f0 <HAL_SPI_MspInit+0x94>)
 80008a0:	2180      	movs	r1, #128	@ 0x80
 80008a2:	0289      	lsls	r1, r1, #10
 80008a4:	430a      	orrs	r2, r1
 80008a6:	615a      	str	r2, [r3, #20]
 80008a8:	4b11      	ldr	r3, [pc, #68]	@ (80008f0 <HAL_SPI_MspInit+0x94>)
 80008aa:	695a      	ldr	r2, [r3, #20]
 80008ac:	2380      	movs	r3, #128	@ 0x80
 80008ae:	029b      	lsls	r3, r3, #10
 80008b0:	4013      	ands	r3, r2
 80008b2:	60fb      	str	r3, [r7, #12]
 80008b4:	68fb      	ldr	r3, [r7, #12]
    /**SPI1 GPIO Configuration
    PA5     ------> SPI1_SCK
    PA7     ------> SPI1_MOSI
    */
    GPIO_InitStruct.Pin = GPIO_PIN_5|GPIO_PIN_7;
 80008b6:	0021      	movs	r1, r4
 80008b8:	187b      	adds	r3, r7, r1
 80008ba:	22a0      	movs	r2, #160	@ 0xa0
 80008bc:	601a      	str	r2, [r3, #0]
    GPIO_InitStruct.Mode = GPIO_MODE_AF_PP;
 80008be:	187b      	adds	r3, r7, r1
 80008c0:	2202      	movs	r2, #2
 80008c2:	605a      	str	r2, [r3, #4]
    GPIO_InitStruct.Pull = GPIO_NOPULL;
 80008c4:	187b      	adds	r3, r7, r1
 80008c6:	2200      	movs	r2, #0
 80008c8:	609a      	str	r2, [r3, #8]
    GPIO_InitStruct.Speed = GPIO_SPEED_FREQ_HIGH;
 80008ca:	187b      	adds	r3, r7, r1
 80008cc:	2203      	movs	r2, #3
 80008ce:	60da      	str	r2, [r3, #12]
    GPIO_InitStruct.Alternate = GPIO_AF0_SPI1;
 80008d0:	187b      	adds	r3, r7, r1
 80008d2:	2200      	movs	r2, #0
 80008d4:	611a      	str	r2, [r3, #16]
    HAL_GPIO_Init(GPIOA, &GPIO_InitStruct);
 80008d6:	187a      	adds	r2, r7, r1
 80008d8:	2390      	movs	r3, #144	@ 0x90
 80008da:	05db      	lsls	r3, r3, #23
 80008dc:	0011      	movs	r1, r2
 80008de:	0018      	movs	r0, r3
 80008e0:	f003 fb38 	bl	8003f54 <HAL_GPIO_Init>

  /* USER CODE BEGIN SPI1_MspInit 1 */

  /* USER CODE END SPI1_MspInit 1 */
  }
}
 80008e4:	46c0      	nop			@ (mov r8, r8)
 80008e6:	46bd      	mov	sp, r7
 80008e8:	b00b      	add	sp, #44	@ 0x2c
 80008ea:	bd90      	pop	{r4, r7, pc}
 80008ec:	40013000 	.word	0x40013000
 80008f0:	40021000 	.word	0x40021000

080008f4 <HAL_MspInit>:
/* USER CODE END 0 */
/**
  * Initializes the Global MSP.
  */
void HAL_MspInit(void)
{
 80008f4:	b580      	push	{r7, lr}
 80008f6:	b082      	sub	sp, #8
 80008f8:	af00      	add	r7, sp, #0

  /* USER CODE BEGIN MspInit 0 */

  /* USER CODE END MspInit 0 */

  __HAL_RCC_SYSCFG_CLK_ENABLE();
 80008fa:	4b0f      	ldr	r3, [pc, #60]	@ (8000938 <HAL_MspInit+0x44>)
 80008fc:	699a      	ldr	r2, [r3, #24]
 80008fe:	4b0e      	ldr	r3, [pc, #56]	@ (8000938 <HAL_MspInit+0x44>)
 8000900:	2101      	movs	r1, #1
 8000902:	430a      	orrs	r2, r1
 8000904:	619a      	str	r2, [r3, #24]
 8000906:	4b0c      	ldr	r3, [pc, #48]	@ (8000938 <HAL_MspInit+0x44>)
 8000908:	699b      	ldr	r3, [r3, #24]
 800090a:	2201      	movs	r2, #1
 800090c:	4013      	ands	r3, r2
 800090e:	607b      	str	r3, [r7, #4]
 8000910:	687b      	ldr	r3, [r7, #4]
  __HAL_RCC_PWR_CLK_ENABLE();
 8000912:	4b09      	ldr	r3, [pc, #36]	@ (8000938 <HAL_MspInit+0x44>)
 8000914:	69da      	ldr	r2, [r3, #28]
 8000916:	4b08      	ldr	r3, [pc, #32]	@ (8000938 <HAL_MspInit+0x44>)
 8000918:	2180      	movs	r1, #128	@ 0x80
 800091a:	0549      	lsls	r1, r1, #21
 800091c:	430a      	orrs	r2, r1
 800091e:	61da      	str	r2, [r3, #28]
 8000920:	4b05      	ldr	r3, [pc, #20]	@ (8000938 <HAL_MspInit+0x44>)
 8000922:	69da      	ldr	r2, [r3, #28]
 8000924:	2380      	movs	r3, #128	@ 0x80
 8000926:	055b      	lsls	r3, r3, #21
 8000928:	4013      	ands	r3, r2
 800092a:	603b      	str	r3, [r7, #0]
 800092c:	683b      	ldr	r3, [r7, #0]
  /* System interrupt init*/

  /* USER CODE BEGIN MspInit 1 */

  /* USER CODE END MspInit 1 */
}
 800092e:	46c0      	nop			@ (mov r8, r8)
 8000930:	46bd      	mov	sp, r7
 8000932:	b002      	add	sp, #8
 8000934:	bd80      	pop	{r7, pc}
 8000936:	46c0      	nop			@ (mov r8, r8)
 8000938:	40021000 	.word	0x40021000

0800093c <NMI_Handler>:
/******************************************************************************/
/**
  * @brief This function handles Non maskable interrupt.
  */
void NMI_Handler(void)
{
 800093c:	b580      	push	{r7, lr}
 800093e:	af00      	add	r7, sp, #0
  /* USER CODE BEGIN NonMaskableInt_IRQn 0 */

  /* USER CODE END NonMaskableInt_IRQn 0 */
  /* USER CODE BEGIN NonMaskableInt_IRQn 1 */
   while (1)
 8000940:	46c0      	nop			@ (mov r8, r8)
 8000942:	e7fd      	b.n	8000940 <NMI_Handler+0x4>

08000944 <HardFault_Handler>:

/**
  * @brief This function handles Hard fault interrupt.
  */
void HardFault_Handler(void)
{
 8000944:	b580      	push	{r7, lr}
 8000946:	af00      	add	r7, sp, #0
  /* USER CODE BEGIN HardFault_IRQn 0 */

  /* USER CODE END HardFault_IRQn 0 */
  while (1)
 8000948:	46c0      	nop			@ (mov r8, r8)
 800094a:	e7fd      	b.n	8000948 <HardFault_Handler+0x4>

0800094c <SVC_Handler>:

/**
  * @brief This function handles System service call via SWI instruction.
  */
void SVC_Handler(void)
{
 800094c:	b580      	push	{r7, lr}
 800094e:	af00      	add	r7, sp, #0

  /* USER CODE END SVC_IRQn 0 */
  /* USER CODE BEGIN SVC_IRQn 1 */

  /* USER CODE END SVC_IRQn 1 */
}
 8000950:	46c0      	nop			@ (mov r8, r8)
 8000952:	46bd      	mov	sp, r7
 8000954:	bd80      	pop	{r7, pc}

08000956 <PendSV_Handler>:

/**
  * @brief This function handles Pendable request for system service.
  */
void PendSV_Handler(void)
{
 8000956:	b580      	push	{r7, lr}
 8000958:	af00      	add	r7, sp, #0

  /* USER CODE END PendSV_IRQn 0 */
  /* USER CODE BEGIN PendSV_IRQn 1 */

  /* USER CODE END PendSV_IRQn 1 */
}
 800095a:	46c0      	nop			@ (mov r8, r8)
 800095c:	46bd      	mov	sp, r7
 800095e:	bd80      	pop	{r7, pc}

08000960 <SysTick_Handler>:

/**
  * @brief This function handles System tick timer.
  */
void SysTick_Handler(void)
{
 8000960:	b580      	push	{r7, lr}
 8000962:	af00      	add	r7, sp, #0
  /* USER CODE BEGIN SysTick_IRQn 0 */

  /* USER CODE END SysTick_IRQn 0 */
  HAL_IncTick();
 8000964:	f002 fc32 	bl	80031cc <HAL_IncTick>
  /* USER CODE BEGIN SysTick_IRQn 1 */

  /* USER CODE END SysTick_IRQn 1 */
}
 8000968:	46c0      	nop			@ (mov r8, r8)
 800096a:	46bd      	mov	sp, r7
 800096c:	bd80      	pop	{r7, pc}
	...

08000970 <DMA1_Ch2_3_DMA2_Ch1_2_IRQHandler>:

/**
  * @brief This function handles DMA1 channel 2 to 3 and DMA2 channel 1 to 2 interrupts.
  */
void DMA1_Ch2_3_DMA2_Ch1_2_IRQHandler(void)
{
 8000970:	b580      	push	{r7, lr}
 8000972:	af00      	add	r7, sp, #0
  /* USER CODE BEGIN DMA1_Ch2_3_DMA2_Ch1_2_IRQn 0 */

  /* USER CODE END DMA1_Ch2_3_DMA2_Ch1_2_IRQn 0 */
  HAL_DMA_IRQHandler(&hdma_adc);
 8000974:	4b03      	ldr	r3, [pc, #12]	@ (8000984 <DMA1_Ch2_3_DMA2_Ch1_2_IRQHandler+0x14>)
 8000976:	0018      	movs	r0, r3
 8000978:	f003 f9e4 	bl	8003d44 <HAL_DMA_IRQHandler>
  /* USER CODE BEGIN DMA1_Ch2_3_DMA2_Ch1_2_IRQn 1 */

  /* USER CODE END DMA1_Ch2_3_DMA2_Ch1_2_IRQn 1 */
}
 800097c:	46c0      	nop			@ (mov r8, r8)
 800097e:	46bd      	mov	sp, r7
 8000980:	bd80      	pop	{r7, pc}
 8000982:	46c0      	nop			@ (mov r8, r8)
 8000984:	20000480 	.word	0x20000480

08000988 <SystemInit>:
  * @brief  Setup the microcontroller system
  * @param  None
  * @retval None
  */
void SystemInit(void)
{
 8000988:	b580      	push	{r7, lr}
 800098a:	af00      	add	r7, sp, #0
                         before branch to main program. This call is made inside
                         the "startup_stm32f0xx.s" file.
                         User can setups the default system clock (System clock source, PLL Multiplier
                         and Divider factors, AHB/APBx prescalers and Flash settings).
   */
}
 800098c:	46c0      	nop			@ (mov r8, r8)
 800098e:	46bd      	mov	sp, r7
 8000990:	bd80      	pop	{r7, pc}
	...

08000994 <MX_TIM2_Init>:
TIM_HandleTypeDef htim2;
TIM_HandleTypeDef htim3;

/* TIM2 init function */
void MX_TIM2_Init(void)
{
 8000994:	b580      	push	{r7, lr}
 8000996:	b086      	sub	sp, #24
 8000998:	af00      	add	r7, sp, #0

  /* USER CODE BEGIN TIM2_Init 0 */

  /* USER CODE END TIM2_Init 0 */

  TIM_ClockConfigTypeDef sClockSourceConfig = {0};
 800099a:	2308      	movs	r3, #8
 800099c:	18fb      	adds	r3, r7, r3
 800099e:	0018      	movs	r0, r3
 80009a0:	2310      	movs	r3, #16
 80009a2:	001a      	movs	r2, r3
 80009a4:	2100      	movs	r1, #0
 80009a6:	f005 f90f 	bl	8005bc8 <memset>
  TIM_MasterConfigTypeDef sMasterConfig = {0};
 80009aa:	003b      	movs	r3, r7
 80009ac:	0018      	movs	r0, r3
 80009ae:	2308      	movs	r3, #8
 80009b0:	001a      	movs	r2, r3
 80009b2:	2100      	movs	r1, #0
 80009b4:	f005 f908 	bl	8005bc8 <memset>

  /* USER CODE BEGIN TIM2_Init 1 */

  /* USER CODE END TIM2_Init 1 */
  htim2.Instance = TIM2;
 80009b8:	4b1f      	ldr	r3, [pc, #124]	@ (8000a38 <MX_TIM2_Init+0xa4>)
 80009ba:	2280      	movs	r2, #128	@ 0x80
 80009bc:	05d2      	lsls	r2, r2, #23
 80009be:	601a      	str	r2, [r3, #0]
  htim2.Init.Prescaler = 47;
 80009c0:	4b1d      	ldr	r3, [pc, #116]	@ (8000a38 <MX_TIM2_Init+0xa4>)
 80009c2:	222f      	movs	r2, #47	@ 0x2f
 80009c4:	605a      	str	r2, [r3, #4]
  htim2.Init.CounterMode = TIM_COUNTERMODE_UP;
 80009c6:	4b1c      	ldr	r3, [pc, #112]	@ (8000a38 <MX_TIM2_Init+0xa4>)
 80009c8:	2200      	movs	r2, #0
 80009ca:	609a      	str	r2, [r3, #8]
  htim2.Init.Period = 4294967295;
 80009cc:	4b1a      	ldr	r3, [pc, #104]	@ (8000a38 <MX_TIM2_Init+0xa4>)
 80009ce:	2201      	movs	r2, #1
 80009d0:	4252      	negs	r2, r2
 80009d2:	60da      	str	r2, [r3, #12]
  htim2.Init.ClockDivision = TIM_CLOCKDIVISION_DIV1;
 80009d4:	4b18      	ldr	r3, [pc, #96]	@ (8000a38 <MX_TIM2_Init+0xa4>)
 80009d6:	2200      	movs	r2, #0
 80009d8:	611a      	str	r2, [r3, #16]
  htim2.Init.AutoReloadPreload = TIM_AUTORELOAD_PRELOAD_DISABLE;
 80009da:	4b17      	ldr	r3, [pc, #92]	@ (8000a38 <MX_TIM2_Init+0xa4>)
 80009dc:	2200      	movs	r2, #0
 80009de:	619a      	str	r2, [r3, #24]
  if (HAL_TIM_Base_Init(&htim2) != HAL_OK)
 80009e0:	4b15      	ldr	r3, [pc, #84]	@ (8000a38 <MX_TIM2_Init+0xa4>)
 80009e2:	0018      	movs	r0, r3
 80009e4:	f004 fdac 	bl	8005540 <HAL_TIM_Base_Init>
 80009e8:	1e03      	subs	r3, r0, #0
 80009ea:	d001      	beq.n	80009f0 <MX_TIM2_Init+0x5c>
  {
    Error_Handler();
 80009ec:	f002 fae8 	bl	8002fc0 <Error_Handler>
  }
  sClockSourceConfig.ClockSource = TIM_CLOCKSOURCE_INTERNAL;
 80009f0:	2108      	movs	r1, #8
 80009f2:	187b      	adds	r3, r7, r1
 80009f4:	2280      	movs	r2, #128	@ 0x80
 80009f6:	0152      	lsls	r2, r2, #5
 80009f8:	601a      	str	r2, [r3, #0]
  if (HAL_TIM_ConfigClockSource(&htim2, &sClockSourceConfig) != HAL_OK)
 80009fa:	187a      	adds	r2, r7, r1
 80009fc:	4b0e      	ldr	r3, [pc, #56]	@ (8000a38 <MX_TIM2_Init+0xa4>)
 80009fe:	0011      	movs	r1, r2
 8000a00:	0018      	movs	r0, r3
 8000a02:	f004 fe37 	bl	8005674 <HAL_TIM_ConfigClockSource>
 8000a06:	1e03      	subs	r3, r0, #0
 8000a08:	d001      	beq.n	8000a0e <MX_TIM2_Init+0x7a>
  {
    Error_Handler();
 8000a0a:	f002 fad9 	bl	8002fc0 <Error_Handler>
  }
  sMasterConfig.MasterOutputTrigger = TIM_TRGO_RESET;
 8000a0e:	003b      	movs	r3, r7
 8000a10:	2200      	movs	r2, #0
 8000a12:	601a      	str	r2, [r3, #0]
  sMasterConfig.MasterSlaveMode = TIM_MASTERSLAVEMODE_DISABLE;
 8000a14:	003b      	movs	r3, r7
 8000a16:	2200      	movs	r2, #0
 8000a18:	605a      	str	r2, [r3, #4]
  if (HAL_TIMEx_MasterConfigSynchronization(&htim2, &sMasterConfig) != HAL_OK)
 8000a1a:	003a      	movs	r2, r7
 8000a1c:	4b06      	ldr	r3, [pc, #24]	@ (8000a38 <MX_TIM2_Init+0xa4>)
 8000a1e:	0011      	movs	r1, r2
 8000a20:	0018      	movs	r0, r3
 8000a22:	f005 f823 	bl	8005a6c <HAL_TIMEx_MasterConfigSynchronization>
 8000a26:	1e03      	subs	r3, r0, #0
 8000a28:	d001      	beq.n	8000a2e <MX_TIM2_Init+0x9a>
  {
    Error_Handler();
 8000a2a:	f002 fac9 	bl	8002fc0 <Error_Handler>
  }
  /* USER CODE BEGIN TIM2_Init 2 */

  /* USER CODE END TIM2_Init 2 */

}
 8000a2e:	46c0      	nop			@ (mov r8, r8)
 8000a30:	46bd      	mov	sp, r7
 8000a32:	b006      	add	sp, #24
 8000a34:	bd80      	pop	{r7, pc}
 8000a36:	46c0      	nop			@ (mov r8, r8)
 8000a38:	20000528 	.word	0x20000528

08000a3c <MX_TIM3_Init>:
/* TIM3 init function */
void MX_TIM3_Init(void)
{
 8000a3c:	b580      	push	{r7, lr}
 8000a3e:	b086      	sub	sp, #24
 8000a40:	af00      	add	r7, sp, #0

  /* USER CODE BEGIN TIM3_Init 0 */

  /* USER CODE END TIM3_Init 0 */

  TIM_ClockConfigTypeDef sClockSourceConfig = {0};
 8000a42:	2308      	movs	r3, #8
 8000a44:	18fb      	adds	r3, r7, r3
 8000a46:	0018      	movs	r0, r3
 8000a48:	2310      	movs	r3, #16
 8000a4a:	001a      	movs	r2, r3
 8000a4c:	2100      	movs	r1, #0
 8000a4e:	f005 f8bb 	bl	8005bc8 <memset>
  TIM_MasterConfigTypeDef sMasterConfig = {0};
 8000a52:	003b      	movs	r3, r7
 8000a54:	0018      	movs	r0, r3
 8000a56:	2308      	movs	r3, #8
 8000a58:	001a      	movs	r2, r3
 8000a5a:	2100      	movs	r1, #0
 8000a5c:	f005 f8b4 	bl	8005bc8 <memset>

  /* USER CODE BEGIN TIM3_Init 1 */

  /* USER CODE END TIM3_Init 1 */
  htim3.Instance = TIM3;
 8000a60:	4b1e      	ldr	r3, [pc, #120]	@ (8000adc <MX_TIM3_Init+0xa0>)
 8000a62:	4a1f      	ldr	r2, [pc, #124]	@ (8000ae0 <MX_TIM3_Init+0xa4>)
 8000a64:	601a      	str	r2, [r3, #0]
  htim3.Init.Prescaler = 14;
 8000a66:	4b1d      	ldr	r3, [pc, #116]	@ (8000adc <MX_TIM3_Init+0xa0>)
 8000a68:	220e      	movs	r2, #14
 8000a6a:	605a      	str	r2, [r3, #4]
  htim3.Init.CounterMode = TIM_COUNTERMODE_UP;
 8000a6c:	4b1b      	ldr	r3, [pc, #108]	@ (8000adc <MX_TIM3_Init+0xa0>)
 8000a6e:	2200      	movs	r2, #0
 8000a70:	609a      	str	r2, [r3, #8]
  htim3.Init.Period = 999;
 8000a72:	4b1a      	ldr	r3, [pc, #104]	@ (8000adc <MX_TIM3_Init+0xa0>)
 8000a74:	4a1b      	ldr	r2, [pc, #108]	@ (8000ae4 <MX_TIM3_Init+0xa8>)
 8000a76:	60da      	str	r2, [r3, #12]
  htim3.Init.ClockDivision = TIM_CLOCKDIVISION_DIV1;
 8000a78:	4b18      	ldr	r3, [pc, #96]	@ (8000adc <MX_TIM3_Init+0xa0>)
 8000a7a:	2200      	movs	r2, #0
 8000a7c:	611a      	str	r2, [r3, #16]
  htim3.Init.AutoReloadPreload = TIM_AUTORELOAD_PRELOAD_DISABLE;
 8000a7e:	4b17      	ldr	r3, [pc, #92]	@ (8000adc <MX_TIM3_Init+0xa0>)
 8000a80:	2200      	movs	r2, #0
 8000a82:	619a      	str	r2, [r3, #24]
  if (HAL_TIM_Base_Init(&htim3) != HAL_OK)
 8000a84:	4b15      	ldr	r3, [pc, #84]	@ (8000adc <MX_TIM3_Init+0xa0>)
 8000a86:	0018      	movs	r0, r3
 8000a88:	f004 fd5a 	bl	8005540 <HAL_TIM_Base_Init>
 8000a8c:	1e03      	subs	r3, r0, #0
 8000a8e:	d001      	beq.n	8000a94 <MX_TIM3_Init+0x58>
  {
    Error_Handler();
 8000a90:	f002 fa96 	bl	8002fc0 <Error_Handler>
  }
  sClockSourceConfig.ClockSource = TIM_CLOCKSOURCE_INTERNAL;
 8000a94:	2108      	movs	r1, #8
 8000a96:	187b      	adds	r3, r7, r1
 8000a98:	2280      	movs	r2, #128	@ 0x80
 8000a9a:	0152      	lsls	r2, r2, #5
 8000a9c:	601a      	str	r2, [r3, #0]
  if (HAL_TIM_ConfigClockSource(&htim3, &sClockSourceConfig) != HAL_OK)
 8000a9e:	187a      	adds	r2, r7, r1
 8000aa0:	4b0e      	ldr	r3, [pc, #56]	@ (8000adc <MX_TIM3_Init+0xa0>)
 8000aa2:	0011      	movs	r1, r2
 8000aa4:	0018      	movs	r0, r3
 8000aa6:	f004 fde5 	bl	8005674 <HAL_TIM_ConfigClockSource>
 8000aaa:	1e03      	subs	r3, r0, #0
 8000aac:	d001      	beq.n	8000ab2 <MX_TIM3_Init+0x76>
  {
    Error_Handler();
 8000aae:	f002 fa87 	bl	8002fc0 <Error_Handler>
  }
  sMasterConfig.MasterOutputTrigger = TIM_TRGO_UPDATE;
 8000ab2:	003b      	movs	r3, r7
 8000ab4:	2220      	movs	r2, #32
 8000ab6:	601a      	str	r2, [r3, #0]
  sMasterConfig.MasterSlaveMode = TIM_MASTERSLAVEMODE_DISABLE;
 8000ab8:	003b      	movs	r3, r7
 8000aba:	2200      	movs	r2, #0
 8000abc:	605a      	str	r2, [r3, #4]
  if (HAL_TIMEx_MasterConfigSynchronization(&htim3, &sMasterConfig) != HAL_OK)
 8000abe:	003a      	movs	r2, r7
 8000ac0:	4b06      	ldr	r3, [pc, #24]	@ (8000adc <MX_TIM3_Init+0xa0>)
 8000ac2:	0011      	movs	r1, r2
 8000ac4:	0018      	movs	r0, r3
 8000ac6:	f004 ffd1 	bl	8005a6c <HAL_TIMEx_MasterConfigSynchronization>
 8000aca:	1e03      	subs	r3, r0, #0
 8000acc:	d001      	beq.n	8000ad2 <MX_TIM3_Init+0x96>
  {
    Error_Handler();
 8000ace:	f002 fa77 	bl	8002fc0 <Error_Handler>
  }
  /* USER CODE BEGIN TIM3_Init 2 */

  /* USER CODE END TIM3_Init 2 */

}
 8000ad2:	46c0      	nop			@ (mov r8, r8)
 8000ad4:	46bd      	mov	sp, r7
 8000ad6:	b006      	add	sp, #24
 8000ad8:	bd80      	pop	{r7, pc}
 8000ada:	46c0      	nop			@ (mov r8, r8)
 8000adc:	20000570 	.word	0x20000570
 8000ae0:	40000400 	.word	0x40000400
 8000ae4:	000003e7 	.word	0x000003e7

08000ae8 <HAL_TIM_Base_MspInit>:

void HAL_TIM_Base_MspInit(TIM_HandleTypeDef* tim_baseHandle)
{
 8000ae8:	b580      	push	{r7, lr}
 8000aea:	b084      	sub	sp, #16
 8000aec:	af00      	add	r7, sp, #0
 8000aee:	6078      	str	r0, [r7, #4]

  if(tim_baseHandle->Instance==TIM2)
 8000af0:	687b      	ldr	r3, [r7, #4]
 8000af2:	681a      	ldr	r2, [r3, #0]
 8000af4:	2380      	movs	r3, #128	@ 0x80
 8000af6:	05db      	lsls	r3, r3, #23
 8000af8:	429a      	cmp	r2, r3
 8000afa:	d10c      	bne.n	8000b16 <HAL_TIM_Base_MspInit+0x2e>
  {
  /* USER CODE BEGIN TIM2_MspInit 0 */

  /* USER CODE END TIM2_MspInit 0 */
    /* TIM2 clock enable */
    __HAL_RCC_TIM2_CLK_ENABLE();
 8000afc:	4b10      	ldr	r3, [pc, #64]	@ (8000b40 <HAL_TIM_Base_MspInit+0x58>)
 8000afe:	69da      	ldr	r2, [r3, #28]
 8000b00:	4b0f      	ldr	r3, [pc, #60]	@ (8000b40 <HAL_TIM_Base_MspInit+0x58>)
 8000b02:	2101      	movs	r1, #1
 8000b04:	430a      	orrs	r2, r1
 8000b06:	61da      	str	r2, [r3, #28]
 8000b08:	4b0d      	ldr	r3, [pc, #52]	@ (8000b40 <HAL_TIM_Base_MspInit+0x58>)
 8000b0a:	69db      	ldr	r3, [r3, #28]
 8000b0c:	2201      	movs	r2, #1
 8000b0e:	4013      	ands	r3, r2
 8000b10:	60fb      	str	r3, [r7, #12]
 8000b12:	68fb      	ldr	r3, [r7, #12]
    __HAL_RCC_TIM3_CLK_ENABLE();
  /* USER CODE BEGIN TIM3_MspInit 1 */

  /* USER CODE END TIM3_MspInit 1 */
  }
}
 8000b14:	e010      	b.n	8000b38 <HAL_TIM_Base_MspInit+0x50>
  else if(tim_baseHandle->Instance==TIM3)
 8000b16:	687b      	ldr	r3, [r7, #4]
 8000b18:	681b      	ldr	r3, [r3, #0]
 8000b1a:	4a0a      	ldr	r2, [pc, #40]	@ (8000b44 <HAL_TIM_Base_MspInit+0x5c>)
 8000b1c:	4293      	cmp	r3, r2
 8000b1e:	d10b      	bne.n	8000b38 <HAL_TIM_Base_MspInit+0x50>
    __HAL_RCC_TIM3_CLK_ENABLE();
 8000b20:	4b07      	ldr	r3, [pc, #28]	@ (8000b40 <HAL_TIM_Base_MspInit+0x58>)
 8000b22:	69da      	ldr	r2, [r3, #28]
 8000b24:	4b06      	ldr	r3, [pc, #24]	@ (8000b40 <HAL_TIM_Base_MspInit+0x58>)
 8000b26:	2102      	movs	r1, #2
 8000b28:	430a      	orrs	r2, r1
 8000b2a:	61da      	str	r2, [r3, #28]
 8000b2c:	4b04      	ldr	r3, [pc, #16]	@ (8000b40 <HAL_TIM_Base_MspInit+0x58>)
 8000b2e:	69db      	ldr	r3, [r3, #28]
 8000b30:	2202      	movs	r2, #2
 8000b32:	4013      	ands	r3, r2
 8000b34:	60bb      	str	r3, [r7, #8]
 8000b36:	68bb      	ldr	r3, [r7, #8]
}
 8000b38:	46c0      	nop			@ (mov r8, r8)
 8000b3a:	46bd      	mov	sp, r7
 8000b3c:	b004      	add	sp, #16
 8000b3e:	bd80      	pop	{r7, pc}
 8000b40:	40021000 	.word	0x40021000
 8000b44:	40000400 	.word	0x40000400

08000b48 <update_tim3_frequency>:

FrequencyMode currentFreqMode = FREQ_50HZ;



void update_tim3_frequency(FrequencyMode mode) {
 8000b48:	b580      	push	{r7, lr}
 8000b4a:	b082      	sub	sp, #8
 8000b4c:	af00      	add	r7, sp, #0
 8000b4e:	0002      	movs	r2, r0
 8000b50:	1dfb      	adds	r3, r7, #7
 8000b52:	701a      	strb	r2, [r3, #0]
    __HAL_TIM_DISABLE(&htim3);
 8000b54:	4b19      	ldr	r3, [pc, #100]	@ (8000bbc <update_tim3_frequency+0x74>)
 8000b56:	681b      	ldr	r3, [r3, #0]
 8000b58:	6a1b      	ldr	r3, [r3, #32]
 8000b5a:	4a19      	ldr	r2, [pc, #100]	@ (8000bc0 <update_tim3_frequency+0x78>)
 8000b5c:	4013      	ands	r3, r2
 8000b5e:	d10d      	bne.n	8000b7c <update_tim3_frequency+0x34>
 8000b60:	4b16      	ldr	r3, [pc, #88]	@ (8000bbc <update_tim3_frequency+0x74>)
 8000b62:	681b      	ldr	r3, [r3, #0]
 8000b64:	6a1b      	ldr	r3, [r3, #32]
 8000b66:	4a17      	ldr	r2, [pc, #92]	@ (8000bc4 <update_tim3_frequency+0x7c>)
 8000b68:	4013      	ands	r3, r2
 8000b6a:	d107      	bne.n	8000b7c <update_tim3_frequency+0x34>
 8000b6c:	4b13      	ldr	r3, [pc, #76]	@ (8000bbc <update_tim3_frequency+0x74>)
 8000b6e:	681b      	ldr	r3, [r3, #0]
 8000b70:	681a      	ldr	r2, [r3, #0]
 8000b72:	4b12      	ldr	r3, [pc, #72]	@ (8000bbc <update_tim3_frequency+0x74>)
 8000b74:	681b      	ldr	r3, [r3, #0]
 8000b76:	2101      	movs	r1, #1
 8000b78:	438a      	bics	r2, r1
 8000b7a:	601a      	str	r2, [r3, #0]
    __HAL_TIM_SET_AUTORELOAD(&htim3, tim3_arr_values[mode]);
 8000b7c:	1dfb      	adds	r3, r7, #7
 8000b7e:	7819      	ldrb	r1, [r3, #0]
 8000b80:	4b0e      	ldr	r3, [pc, #56]	@ (8000bbc <update_tim3_frequency+0x74>)
 8000b82:	681b      	ldr	r3, [r3, #0]
 8000b84:	4a10      	ldr	r2, [pc, #64]	@ (8000bc8 <update_tim3_frequency+0x80>)
 8000b86:	0089      	lsls	r1, r1, #2
 8000b88:	588a      	ldr	r2, [r1, r2]
 8000b8a:	62da      	str	r2, [r3, #44]	@ 0x2c
 8000b8c:	1dfb      	adds	r3, r7, #7
 8000b8e:	781a      	ldrb	r2, [r3, #0]
 8000b90:	4b0d      	ldr	r3, [pc, #52]	@ (8000bc8 <update_tim3_frequency+0x80>)
 8000b92:	0092      	lsls	r2, r2, #2
 8000b94:	58d2      	ldr	r2, [r2, r3]
 8000b96:	4b09      	ldr	r3, [pc, #36]	@ (8000bbc <update_tim3_frequency+0x74>)
 8000b98:	60da      	str	r2, [r3, #12]
    __HAL_TIM_SET_COUNTER(&htim3, 0);
 8000b9a:	4b08      	ldr	r3, [pc, #32]	@ (8000bbc <update_tim3_frequency+0x74>)
 8000b9c:	681b      	ldr	r3, [r3, #0]
 8000b9e:	2200      	movs	r2, #0
 8000ba0:	625a      	str	r2, [r3, #36]	@ 0x24
    __HAL_TIM_ENABLE(&htim3);
 8000ba2:	4b06      	ldr	r3, [pc, #24]	@ (8000bbc <update_tim3_frequency+0x74>)
 8000ba4:	681b      	ldr	r3, [r3, #0]
 8000ba6:	681a      	ldr	r2, [r3, #0]
 8000ba8:	4b04      	ldr	r3, [pc, #16]	@ (8000bbc <update_tim3_frequency+0x74>)
 8000baa:	681b      	ldr	r3, [r3, #0]
 8000bac:	2101      	movs	r1, #1
 8000bae:	430a      	orrs	r2, r1
 8000bb0:	601a      	str	r2, [r3, #0]
}
 8000bb2:	46c0      	nop			@ (mov r8, r8)
 8000bb4:	46bd      	mov	sp, r7
 8000bb6:	b002      	add	sp, #8
 8000bb8:	bd80      	pop	{r7, pc}
 8000bba:	46c0      	nop			@ (mov r8, r8)
 8000bbc:	20000570 	.word	0x20000570
 8000bc0:	00001111 	.word	0x00001111
 8000bc4:	00000444 	.word	0x00000444
 8000bc8:	08005da0 	.word	0x08005da0

08000bcc <HAL_GetTick_us>:
    TIM2->ARR = 0xFFFFFFFF;                          // free-run
    TIM2->CR1 = TIM_CR1_CEN;
}*/

uint32_t HAL_GetTick_us(void)
{
 8000bcc:	b580      	push	{r7, lr}
 8000bce:	af00      	add	r7, sp, #0
    return TIM2->CNT;          // 1-s resolution
 8000bd0:	2380      	movs	r3, #128	@ 0x80
 8000bd2:	05db      	lsls	r3, r3, #23
 8000bd4:	6a5b      	ldr	r3, [r3, #36]	@ 0x24
}
 8000bd6:	0018      	movs	r0, r3
 8000bd8:	46bd      	mov	sp, r7
 8000bda:	bd80      	pop	{r7, pc}

08000bdc <st7565_write_buffer>:
        }
    }
}
#else
void st7565_write_buffer(uint8_t *buffer)
{
 8000bdc:	b590      	push	{r4, r7, lr}
 8000bde:	b085      	sub	sp, #20
 8000be0:	af00      	add	r7, sp, #0
 8000be2:	6078      	str	r0, [r7, #4]
    uint8_t p;
    for (p = 0; p < 8; p++) {
 8000be4:	230f      	movs	r3, #15
 8000be6:	18fb      	adds	r3, r7, r3
 8000be8:	2200      	movs	r2, #0
 8000bea:	701a      	strb	r2, [r3, #0]
 8000bec:	e042      	b.n	8000c74 <st7565_write_buffer+0x98>
        CMD(ST7565_CMD_SET_PAGE | pagemap[p]);
 8000bee:	4b26      	ldr	r3, [pc, #152]	@ (8000c88 <st7565_write_buffer+0xac>)
 8000bf0:	2200      	movs	r2, #0
 8000bf2:	2180      	movs	r1, #128	@ 0x80
 8000bf4:	0018      	movs	r0, r3
 8000bf6:	f003 fb25 	bl	8004244 <HAL_GPIO_WritePin>
 8000bfa:	240f      	movs	r4, #15
 8000bfc:	193b      	adds	r3, r7, r4
 8000bfe:	781b      	ldrb	r3, [r3, #0]
 8000c00:	4a22      	ldr	r2, [pc, #136]	@ (8000c8c <st7565_write_buffer+0xb0>)
 8000c02:	5cd3      	ldrb	r3, [r2, r3]
 8000c04:	2250      	movs	r2, #80	@ 0x50
 8000c06:	4252      	negs	r2, r2
 8000c08:	4313      	orrs	r3, r2
 8000c0a:	b2db      	uxtb	r3, r3
 8000c0c:	0018      	movs	r0, r3
 8000c0e:	f000 f841 	bl	8000c94 <st7565_sendbyte>
        CMD(ST7565_CMD_SET_COLUMN_LOWER | (0x0 & 0xf));
 8000c12:	4b1d      	ldr	r3, [pc, #116]	@ (8000c88 <st7565_write_buffer+0xac>)
 8000c14:	2200      	movs	r2, #0
 8000c16:	2180      	movs	r1, #128	@ 0x80
 8000c18:	0018      	movs	r0, r3
 8000c1a:	f003 fb13 	bl	8004244 <HAL_GPIO_WritePin>
 8000c1e:	2000      	movs	r0, #0
 8000c20:	f000 f838 	bl	8000c94 <st7565_sendbyte>
        CMD(ST7565_CMD_SET_COLUMN_UPPER | ((0x0 >> 4) & 0xf));
 8000c24:	4b18      	ldr	r3, [pc, #96]	@ (8000c88 <st7565_write_buffer+0xac>)
 8000c26:	2200      	movs	r2, #0
 8000c28:	2180      	movs	r1, #128	@ 0x80
 8000c2a:	0018      	movs	r0, r3
 8000c2c:	f003 fb0a 	bl	8004244 <HAL_GPIO_WritePin>
 8000c30:	2010      	movs	r0, #16
 8000c32:	f000 f82f 	bl	8000c94 <st7565_sendbyte>
        CMD(ST7565_CMD_RMW);
 8000c36:	4b14      	ldr	r3, [pc, #80]	@ (8000c88 <st7565_write_buffer+0xac>)
 8000c38:	2200      	movs	r2, #0
 8000c3a:	2180      	movs	r1, #128	@ 0x80
 8000c3c:	0018      	movs	r0, r3
 8000c3e:	f003 fb01 	bl	8004244 <HAL_GPIO_WritePin>
 8000c42:	20e0      	movs	r0, #224	@ 0xe0
 8000c44:	f000 f826 	bl	8000c94 <st7565_sendbyte>
        HAL_GPIO_WritePin(SPICD_GPIO_Port, ST7565_A0_PIN, 1);
 8000c48:	4b0f      	ldr	r3, [pc, #60]	@ (8000c88 <st7565_write_buffer+0xac>)
 8000c4a:	2201      	movs	r2, #1
 8000c4c:	2180      	movs	r1, #128	@ 0x80
 8000c4e:	0018      	movs	r0, r3
 8000c50:	f003 faf8 	bl	8004244 <HAL_GPIO_WritePin>
        HAL_SPI_Transmit(&hspi1, &buffer[128 * p], 128, 6);
 8000c54:	193b      	adds	r3, r7, r4
 8000c56:	781b      	ldrb	r3, [r3, #0]
 8000c58:	01db      	lsls	r3, r3, #7
 8000c5a:	001a      	movs	r2, r3
 8000c5c:	687b      	ldr	r3, [r7, #4]
 8000c5e:	1899      	adds	r1, r3, r2
 8000c60:	480b      	ldr	r0, [pc, #44]	@ (8000c90 <st7565_write_buffer+0xb4>)
 8000c62:	2306      	movs	r3, #6
 8000c64:	2280      	movs	r2, #128	@ 0x80
 8000c66:	f004 f995 	bl	8004f94 <HAL_SPI_Transmit>
    for (p = 0; p < 8; p++) {
 8000c6a:	193b      	adds	r3, r7, r4
 8000c6c:	781a      	ldrb	r2, [r3, #0]
 8000c6e:	193b      	adds	r3, r7, r4
 8000c70:	3201      	adds	r2, #1
 8000c72:	701a      	strb	r2, [r3, #0]
 8000c74:	230f      	movs	r3, #15
 8000c76:	18fb      	adds	r3, r7, r3
 8000c78:	781b      	ldrb	r3, [r3, #0]
 8000c7a:	2b07      	cmp	r3, #7
 8000c7c:	d9b7      	bls.n	8000bee <st7565_write_buffer+0x12>
    }
}
 8000c7e:	46c0      	nop			@ (mov r8, r8)
 8000c80:	46c0      	nop			@ (mov r8, r8)
 8000c82:	46bd      	mov	sp, r7
 8000c84:	b005      	add	sp, #20
 8000c86:	bd90      	pop	{r4, r7, pc}
 8000c88:	48000800 	.word	0x48000800
 8000c8c:	20000414 	.word	0x20000414
 8000c90:	200004c4 	.word	0x200004c4

08000c94 <st7565_sendbyte>:
#endif

// Simulates an SPI write using GPIO
// with byte, The byte to send
void st7565_sendbyte(uint8_t byte) {
 8000c94:	b580      	push	{r7, lr}
 8000c96:	b082      	sub	sp, #8
 8000c98:	af00      	add	r7, sp, #0
 8000c9a:	0002      	movs	r2, r0
 8000c9c:	1dfb      	adds	r3, r7, #7
 8000c9e:	701a      	strb	r2, [r3, #0]

	HAL_SPI_Transmit(&hspi1, &byte, 1, 100);
 8000ca0:	1df9      	adds	r1, r7, #7
 8000ca2:	4804      	ldr	r0, [pc, #16]	@ (8000cb4 <st7565_sendbyte+0x20>)
 8000ca4:	2364      	movs	r3, #100	@ 0x64
 8000ca6:	2201      	movs	r2, #1
 8000ca8:	f004 f974 	bl	8004f94 <HAL_SPI_Transmit>
}
 8000cac:	46c0      	nop			@ (mov r8, r8)
 8000cae:	46bd      	mov	sp, r7
 8000cb0:	b002      	add	sp, #8
 8000cb2:	bd80      	pop	{r7, pc}
 8000cb4:	200004c4 	.word	0x200004c4

08000cb8 <st7565_init>:

//Initialises the ST7565 LCD display
void st7565_init(void) {
 8000cb8:	b580      	push	{r7, lr}
 8000cba:	af00      	add	r7, sp, #0
	// Set clock pin to high
//	HAL_GPIO_WritePin(SPISCLK_GPIO_Port, ST7565_SCLK_PIN, 1);
	// Set data pin to output and high
//	HAL_GPIO_WritePin(SPISDAT_GPIO_Port, ST7565_SDAT_PIN, 1);
	// Configure backlight pin to output and set high (off)
	HAL_GPIO_WritePin(BL_GPIO_Port, ST7565_BL_PIN, 1);
 8000cbc:	2380      	movs	r3, #128	@ 0x80
 8000cbe:	0059      	lsls	r1, r3, #1
 8000cc0:	2390      	movs	r3, #144	@ 0x90
 8000cc2:	05db      	lsls	r3, r3, #23
 8000cc4:	2201      	movs	r2, #1
 8000cc6:	0018      	movs	r0, r3
 8000cc8:	f003 fabc 	bl	8004244 <HAL_GPIO_WritePin>

	// Configure A0 pin to output and set high
	HAL_GPIO_WritePin(SPICD_GPIO_Port, ST7565_A0_PIN, 1);
 8000ccc:	4b4e      	ldr	r3, [pc, #312]	@ (8000e08 <st7565_init+0x150>)
 8000cce:	2201      	movs	r2, #1
 8000cd0:	2180      	movs	r1, #128	@ 0x80
 8000cd2:	0018      	movs	r0, r3
 8000cd4:	f003 fab6 	bl	8004244 <HAL_GPIO_WritePin>

	// Configure Reset pin and set high
	HAL_GPIO_WritePin(SPIRST_GPIO_Port, ST7565_RST_PIN, 1);
 8000cd8:	2380      	movs	r3, #128	@ 0x80
 8000cda:	0099      	lsls	r1, r3, #2
 8000cdc:	2390      	movs	r3, #144	@ 0x90
 8000cde:	05db      	lsls	r3, r3, #23
 8000ce0:	2201      	movs	r2, #1
 8000ce2:	0018      	movs	r0, r3
 8000ce4:	f003 faae 	bl	8004244 <HAL_GPIO_WritePin>

	// Configure select pin and set high
	HAL_GPIO_WritePin(SPICS_GPIO_Port, ST7565_CS_PIN, 1);
 8000ce8:	4b48      	ldr	r3, [pc, #288]	@ (8000e0c <st7565_init+0x154>)
 8000cea:	2201      	movs	r2, #1
 8000cec:	2140      	movs	r1, #64	@ 0x40
 8000cee:	0018      	movs	r0, r3
 8000cf0:	f003 faa8 	bl	8004244 <HAL_GPIO_WritePin>

	// Reset
	HAL_GPIO_WritePin(SPICS_GPIO_Port, ST7565_CS_PIN, 0);    // Set CS low
 8000cf4:	4b45      	ldr	r3, [pc, #276]	@ (8000e0c <st7565_init+0x154>)
 8000cf6:	2200      	movs	r2, #0
 8000cf8:	2140      	movs	r1, #64	@ 0x40
 8000cfa:	0018      	movs	r0, r3
 8000cfc:	f003 faa2 	bl	8004244 <HAL_GPIO_WritePin>
	HAL_GPIO_WritePin(SPIRST_GPIO_Port, ST7565_RST_PIN, 0);  // Set reset low
 8000d00:	2380      	movs	r3, #128	@ 0x80
 8000d02:	0099      	lsls	r1, r3, #2
 8000d04:	2390      	movs	r3, #144	@ 0x90
 8000d06:	05db      	lsls	r3, r3, #23
 8000d08:	2200      	movs	r2, #0
 8000d0a:	0018      	movs	r0, r3
 8000d0c:	f003 fa9a 	bl	8004244 <HAL_GPIO_WritePin>
	DELAY(500);                                              // Wait 500ms
 8000d10:	23fa      	movs	r3, #250	@ 0xfa
 8000d12:	005b      	lsls	r3, r3, #1
 8000d14:	0018      	movs	r0, r3
 8000d16:	f002 fa75 	bl	8003204 <HAL_Delay>
	HAL_GPIO_WritePin(SPIRST_GPIO_Port, ST7565_RST_PIN, 1);  // Set reset high
 8000d1a:	2380      	movs	r3, #128	@ 0x80
 8000d1c:	0099      	lsls	r1, r3, #2
 8000d1e:	2390      	movs	r3, #144	@ 0x90
 8000d20:	05db      	lsls	r3, r3, #23
 8000d22:	2201      	movs	r2, #1
 8000d24:	0018      	movs	r0, r3
 8000d26:	f003 fa8d 	bl	8004244 <HAL_GPIO_WritePin>

	// Configure Display
	CMD(ST7565_CMD_SET_BIAS_7);                      // LCD Bias Select
 8000d2a:	4b37      	ldr	r3, [pc, #220]	@ (8000e08 <st7565_init+0x150>)
 8000d2c:	2200      	movs	r2, #0
 8000d2e:	2180      	movs	r1, #128	@ 0x80
 8000d30:	0018      	movs	r0, r3
 8000d32:	f003 fa87 	bl	8004244 <HAL_GPIO_WritePin>
 8000d36:	20a3      	movs	r0, #163	@ 0xa3
 8000d38:	f7ff ffac 	bl	8000c94 <st7565_sendbyte>
	CMD(ST7565_CMD_SET_ADC_NORMAL);                  // ADC Select
 8000d3c:	4b32      	ldr	r3, [pc, #200]	@ (8000e08 <st7565_init+0x150>)
 8000d3e:	2200      	movs	r2, #0
 8000d40:	2180      	movs	r1, #128	@ 0x80
 8000d42:	0018      	movs	r0, r3
 8000d44:	f003 fa7e 	bl	8004244 <HAL_GPIO_WritePin>
 8000d48:	20a0      	movs	r0, #160	@ 0xa0
 8000d4a:	f7ff ffa3 	bl	8000c94 <st7565_sendbyte>
	CMD(ST7565_CMD_SET_COM_NORMAL);                  // SHL Select
 8000d4e:	4b2e      	ldr	r3, [pc, #184]	@ (8000e08 <st7565_init+0x150>)
 8000d50:	2200      	movs	r2, #0
 8000d52:	2180      	movs	r1, #128	@ 0x80
 8000d54:	0018      	movs	r0, r3
 8000d56:	f003 fa75 	bl	8004244 <HAL_GPIO_WritePin>
 8000d5a:	20c0      	movs	r0, #192	@ 0xc0
 8000d5c:	f7ff ff9a 	bl	8000c94 <st7565_sendbyte>
	CMD(ST7565_CMD_SET_DISP_START_LINE);             // Initial Display Line
 8000d60:	4b29      	ldr	r3, [pc, #164]	@ (8000e08 <st7565_init+0x150>)
 8000d62:	2200      	movs	r2, #0
 8000d64:	2180      	movs	r1, #128	@ 0x80
 8000d66:	0018      	movs	r0, r3
 8000d68:	f003 fa6c 	bl	8004244 <HAL_GPIO_WritePin>
 8000d6c:	2040      	movs	r0, #64	@ 0x40
 8000d6e:	f7ff ff91 	bl	8000c94 <st7565_sendbyte>
	CMD(ST7565_CMD_SET_POWER_CONTROL | 0x04);        // Turn on voltage converter (VC=1, VR=0, VF=0)
 8000d72:	4b25      	ldr	r3, [pc, #148]	@ (8000e08 <st7565_init+0x150>)
 8000d74:	2200      	movs	r2, #0
 8000d76:	2180      	movs	r1, #128	@ 0x80
 8000d78:	0018      	movs	r0, r3
 8000d7a:	f003 fa63 	bl	8004244 <HAL_GPIO_WritePin>
 8000d7e:	202c      	movs	r0, #44	@ 0x2c
 8000d80:	f7ff ff88 	bl	8000c94 <st7565_sendbyte>
	DELAY(50);                						 // Wait 50ms
 8000d84:	2032      	movs	r0, #50	@ 0x32
 8000d86:	f002 fa3d 	bl	8003204 <HAL_Delay>
	CMD(ST7565_CMD_SET_POWER_CONTROL | 0x06);        // Turn on voltage regulator (VC=1, VR=1, VF=0)
 8000d8a:	4b1f      	ldr	r3, [pc, #124]	@ (8000e08 <st7565_init+0x150>)
 8000d8c:	2200      	movs	r2, #0
 8000d8e:	2180      	movs	r1, #128	@ 0x80
 8000d90:	0018      	movs	r0, r3
 8000d92:	f003 fa57 	bl	8004244 <HAL_GPIO_WritePin>
 8000d96:	202e      	movs	r0, #46	@ 0x2e
 8000d98:	f7ff ff7c 	bl	8000c94 <st7565_sendbyte>
	DELAY(50);                                       // Wait 50ms
 8000d9c:	2032      	movs	r0, #50	@ 0x32
 8000d9e:	f002 fa31 	bl	8003204 <HAL_Delay>
	CMD(ST7565_CMD_SET_POWER_CONTROL | 0x07);        // Turn on voltage follower
 8000da2:	4b19      	ldr	r3, [pc, #100]	@ (8000e08 <st7565_init+0x150>)
 8000da4:	2200      	movs	r2, #0
 8000da6:	2180      	movs	r1, #128	@ 0x80
 8000da8:	0018      	movs	r0, r3
 8000daa:	f003 fa4b 	bl	8004244 <HAL_GPIO_WritePin>
 8000dae:	202f      	movs	r0, #47	@ 0x2f
 8000db0:	f7ff ff70 	bl	8000c94 <st7565_sendbyte>
	DELAY(10);                                       // Wait 10ms
 8000db4:	200a      	movs	r0, #10
 8000db6:	f002 fa25 	bl	8003204 <HAL_Delay>
	CMD(ST7565_CMD_SET_RESISTOR_RATIO | 0x6);        // Set LCD operating voltage
 8000dba:	4b13      	ldr	r3, [pc, #76]	@ (8000e08 <st7565_init+0x150>)
 8000dbc:	2200      	movs	r2, #0
 8000dbe:	2180      	movs	r1, #128	@ 0x80
 8000dc0:	0018      	movs	r0, r3
 8000dc2:	f003 fa3f 	bl	8004244 <HAL_GPIO_WritePin>
 8000dc6:	2026      	movs	r0, #38	@ 0x26
 8000dc8:	f7ff ff64 	bl	8000c94 <st7565_sendbyte>

	// Turn display on
	CMD(ST7565_CMD_DISPLAY_ON);
 8000dcc:	4b0e      	ldr	r3, [pc, #56]	@ (8000e08 <st7565_init+0x150>)
 8000dce:	2200      	movs	r2, #0
 8000dd0:	2180      	movs	r1, #128	@ 0x80
 8000dd2:	0018      	movs	r0, r3
 8000dd4:	f003 fa36 	bl	8004244 <HAL_GPIO_WritePin>
 8000dd8:	20af      	movs	r0, #175	@ 0xaf
 8000dda:	f7ff ff5b 	bl	8000c94 <st7565_sendbyte>
	CMD(ST7565_CMD_SET_ALLPTS_NORMAL);
 8000dde:	4b0a      	ldr	r3, [pc, #40]	@ (8000e08 <st7565_init+0x150>)
 8000de0:	2200      	movs	r2, #0
 8000de2:	2180      	movs	r1, #128	@ 0x80
 8000de4:	0018      	movs	r0, r3
 8000de6:	f003 fa2d 	bl	8004244 <HAL_GPIO_WritePin>
 8000dea:	20a4      	movs	r0, #164	@ 0xa4
 8000dec:	f7ff ff52 	bl	8000c94 <st7565_sendbyte>
	st7565_set_brightness(0x00);   // arduino 0x18
 8000df0:	2000      	movs	r0, #0
 8000df2:	f000 f81d 	bl	8000e30 <st7565_set_brightness>
 	st7565_clear_screen();
 8000df6:	f000 f83f 	bl	8000e78 <st7565_clear_screen>

	//Write the Adafruit-Logo, clear the buffer, wait and fade out
	//st7565_write_buffer(buffer);
	st7565_clear_buffer(buffer);
 8000dfa:	4b05      	ldr	r3, [pc, #20]	@ (8000e10 <st7565_init+0x158>)
 8000dfc:	0018      	movs	r0, r3
 8000dfe:	f000 f897 	bl	8000f30 <st7565_clear_buffer>
	//DELAY(800);
	//st7565_fade_out(24);
}
 8000e02:	46c0      	nop			@ (mov r8, r8)
 8000e04:	46bd      	mov	sp, r7
 8000e06:	bd80      	pop	{r7, pc}
 8000e08:	48000800 	.word	0x48000800
 8000e0c:	48000400 	.word	0x48000400
 8000e10:	20000014 	.word	0x20000014

08000e14 <st7565_backlight_enable>:

//Enables the backlight
void st7565_backlight_enable(void) {
 8000e14:	b580      	push	{r7, lr}
 8000e16:	af00      	add	r7, sp, #0
	HAL_GPIO_WritePin( BL_GPIO_Port, ST7565_BL_PIN, 1);
 8000e18:	2380      	movs	r3, #128	@ 0x80
 8000e1a:	0059      	lsls	r1, r3, #1
 8000e1c:	2390      	movs	r3, #144	@ 0x90
 8000e1e:	05db      	lsls	r3, r3, #23
 8000e20:	2201      	movs	r2, #1
 8000e22:	0018      	movs	r0, r3
 8000e24:	f003 fa0e 	bl	8004244 <HAL_GPIO_WritePin>
}
 8000e28:	46c0      	nop			@ (mov r8, r8)
 8000e2a:	46bd      	mov	sp, r7
 8000e2c:	bd80      	pop	{r7, pc}
	...

08000e30 <st7565_set_brightness>:
void st7565_backlight_disable(void) {
	HAL_GPIO_WritePin( BL_GPIO_Port, ST7565_BL_PIN, 0);
}

//Sets the display brightness
void st7565_set_brightness(uint8_t val) {
 8000e30:	b580      	push	{r7, lr}
 8000e32:	b082      	sub	sp, #8
 8000e34:	af00      	add	r7, sp, #0
 8000e36:	0002      	movs	r2, r0
 8000e38:	1dfb      	adds	r3, r7, #7
 8000e3a:	701a      	strb	r2, [r3, #0]
	CMD(ST7565_CMD_SET_VOLUME_FIRST);
 8000e3c:	4b0d      	ldr	r3, [pc, #52]	@ (8000e74 <st7565_set_brightness+0x44>)
 8000e3e:	2200      	movs	r2, #0
 8000e40:	2180      	movs	r1, #128	@ 0x80
 8000e42:	0018      	movs	r0, r3
 8000e44:	f003 f9fe 	bl	8004244 <HAL_GPIO_WritePin>
 8000e48:	2081      	movs	r0, #129	@ 0x81
 8000e4a:	f7ff ff23 	bl	8000c94 <st7565_sendbyte>
	CMD(ST7565_CMD_SET_VOLUME_SECOND | (val & 0x3f));
 8000e4e:	4b09      	ldr	r3, [pc, #36]	@ (8000e74 <st7565_set_brightness+0x44>)
 8000e50:	2200      	movs	r2, #0
 8000e52:	2180      	movs	r1, #128	@ 0x80
 8000e54:	0018      	movs	r0, r3
 8000e56:	f003 f9f5 	bl	8004244 <HAL_GPIO_WritePin>
 8000e5a:	1dfb      	adds	r3, r7, #7
 8000e5c:	781b      	ldrb	r3, [r3, #0]
 8000e5e:	223f      	movs	r2, #63	@ 0x3f
 8000e60:	4013      	ands	r3, r2
 8000e62:	b2db      	uxtb	r3, r3
 8000e64:	0018      	movs	r0, r3
 8000e66:	f7ff ff15 	bl	8000c94 <st7565_sendbyte>
}
 8000e6a:	46c0      	nop			@ (mov r8, r8)
 8000e6c:	46bd      	mov	sp, r7
 8000e6e:	b002      	add	sp, #8
 8000e70:	bd80      	pop	{r7, pc}
 8000e72:	46c0      	nop			@ (mov r8, r8)
 8000e74:	48000800 	.word	0x48000800

08000e78 <st7565_clear_screen>:
		DELAY(100);
	}
}

//Clears the screen
void st7565_clear_screen(void) {
 8000e78:	b580      	push	{r7, lr}
 8000e7a:	b082      	sub	sp, #8
 8000e7c:	af00      	add	r7, sp, #0
	uint8_t p, c;
	for (p = 0; p < 8; p++) {
 8000e7e:	1dfb      	adds	r3, r7, #7
 8000e80:	2200      	movs	r2, #0
 8000e82:	701a      	strb	r2, [r3, #0]
 8000e84:	e049      	b.n	8000f1a <st7565_clear_screen+0xa2>
		CMD(ST7565_CMD_SET_PAGE | p);
 8000e86:	4b29      	ldr	r3, [pc, #164]	@ (8000f2c <st7565_clear_screen+0xb4>)
 8000e88:	2200      	movs	r2, #0
 8000e8a:	2180      	movs	r1, #128	@ 0x80
 8000e8c:	0018      	movs	r0, r3
 8000e8e:	f003 f9d9 	bl	8004244 <HAL_GPIO_WritePin>
 8000e92:	1dfb      	adds	r3, r7, #7
 8000e94:	781b      	ldrb	r3, [r3, #0]
 8000e96:	2250      	movs	r2, #80	@ 0x50
 8000e98:	4252      	negs	r2, r2
 8000e9a:	4313      	orrs	r3, r2
 8000e9c:	b2db      	uxtb	r3, r3
 8000e9e:	0018      	movs	r0, r3
 8000ea0:	f7ff fef8 	bl	8000c94 <st7565_sendbyte>
		for (c = 0; c < 129; c++) {
 8000ea4:	1dbb      	adds	r3, r7, #6
 8000ea6:	2200      	movs	r2, #0
 8000ea8:	701a      	strb	r2, [r3, #0]
 8000eaa:	e02d      	b.n	8000f08 <st7565_clear_screen+0x90>
			CMD(ST7565_CMD_SET_COLUMN_LOWER | (c & 0xf));
 8000eac:	4b1f      	ldr	r3, [pc, #124]	@ (8000f2c <st7565_clear_screen+0xb4>)
 8000eae:	2200      	movs	r2, #0
 8000eb0:	2180      	movs	r1, #128	@ 0x80
 8000eb2:	0018      	movs	r0, r3
 8000eb4:	f003 f9c6 	bl	8004244 <HAL_GPIO_WritePin>
 8000eb8:	1dbb      	adds	r3, r7, #6
 8000eba:	781b      	ldrb	r3, [r3, #0]
 8000ebc:	220f      	movs	r2, #15
 8000ebe:	4013      	ands	r3, r2
 8000ec0:	b2db      	uxtb	r3, r3
 8000ec2:	0018      	movs	r0, r3
 8000ec4:	f7ff fee6 	bl	8000c94 <st7565_sendbyte>
			CMD(ST7565_CMD_SET_COLUMN_UPPER | ((c >> 4) & 0xf));
 8000ec8:	4b18      	ldr	r3, [pc, #96]	@ (8000f2c <st7565_clear_screen+0xb4>)
 8000eca:	2200      	movs	r2, #0
 8000ecc:	2180      	movs	r1, #128	@ 0x80
 8000ece:	0018      	movs	r0, r3
 8000ed0:	f003 f9b8 	bl	8004244 <HAL_GPIO_WritePin>
 8000ed4:	1dbb      	adds	r3, r7, #6
 8000ed6:	781b      	ldrb	r3, [r3, #0]
 8000ed8:	091b      	lsrs	r3, r3, #4
 8000eda:	b2db      	uxtb	r3, r3
 8000edc:	b25b      	sxtb	r3, r3
 8000ede:	2210      	movs	r2, #16
 8000ee0:	4313      	orrs	r3, r2
 8000ee2:	b25b      	sxtb	r3, r3
 8000ee4:	b2db      	uxtb	r3, r3
 8000ee6:	0018      	movs	r0, r3
 8000ee8:	f7ff fed4 	bl	8000c94 <st7565_sendbyte>
			DATA(0x0);
 8000eec:	4b0f      	ldr	r3, [pc, #60]	@ (8000f2c <st7565_clear_screen+0xb4>)
 8000eee:	2201      	movs	r2, #1
 8000ef0:	2180      	movs	r1, #128	@ 0x80
 8000ef2:	0018      	movs	r0, r3
 8000ef4:	f003 f9a6 	bl	8004244 <HAL_GPIO_WritePin>
 8000ef8:	2000      	movs	r0, #0
 8000efa:	f7ff fecb 	bl	8000c94 <st7565_sendbyte>
		for (c = 0; c < 129; c++) {
 8000efe:	1dbb      	adds	r3, r7, #6
 8000f00:	781a      	ldrb	r2, [r3, #0]
 8000f02:	1dbb      	adds	r3, r7, #6
 8000f04:	3201      	adds	r2, #1
 8000f06:	701a      	strb	r2, [r3, #0]
 8000f08:	1dbb      	adds	r3, r7, #6
 8000f0a:	781b      	ldrb	r3, [r3, #0]
 8000f0c:	2b80      	cmp	r3, #128	@ 0x80
 8000f0e:	d9cd      	bls.n	8000eac <st7565_clear_screen+0x34>
	for (p = 0; p < 8; p++) {
 8000f10:	1dfb      	adds	r3, r7, #7
 8000f12:	781a      	ldrb	r2, [r3, #0]
 8000f14:	1dfb      	adds	r3, r7, #7
 8000f16:	3201      	adds	r2, #1
 8000f18:	701a      	strb	r2, [r3, #0]
 8000f1a:	1dfb      	adds	r3, r7, #7
 8000f1c:	781b      	ldrb	r3, [r3, #0]
 8000f1e:	2b07      	cmp	r3, #7
 8000f20:	d9b1      	bls.n	8000e86 <st7565_clear_screen+0xe>
		}
	}
}
 8000f22:	46c0      	nop			@ (mov r8, r8)
 8000f24:	46c0      	nop			@ (mov r8, r8)
 8000f26:	46bd      	mov	sp, r7
 8000f28:	b002      	add	sp, #8
 8000f2a:	bd80      	pop	{r7, pc}
 8000f2c:	48000800 	.word	0x48000800

08000f30 <st7565_clear_buffer>:

// clear everything
void st7565_clear_buffer(uint8_t *buff) {
 8000f30:	b580      	push	{r7, lr}
 8000f32:	b082      	sub	sp, #8
 8000f34:	af00      	add	r7, sp, #0
 8000f36:	6078      	str	r0, [r7, #4]
	memset(buff, 0, 1024);
 8000f38:	2380      	movs	r3, #128	@ 0x80
 8000f3a:	00da      	lsls	r2, r3, #3
 8000f3c:	687b      	ldr	r3, [r7, #4]
 8000f3e:	2100      	movs	r1, #0
 8000f40:	0018      	movs	r0, r3
 8000f42:	f004 fe41 	bl	8005bc8 <memset>
}
 8000f46:	46c0      	nop			@ (mov r8, r8)
 8000f48:	46bd      	mov	sp, r7
 8000f4a:	b002      	add	sp, #8
 8000f4c:	bd80      	pop	{r7, pc}

08000f4e <st7565_setpixel>:
		}
	}
}

//set *pixel on *x/*y with *color
void st7565_setpixel(uint8_t *buff, uint8_t x, uint8_t y, uint8_t color) {
 8000f4e:	b590      	push	{r4, r7, lr}
 8000f50:	b083      	sub	sp, #12
 8000f52:	af00      	add	r7, sp, #0
 8000f54:	6078      	str	r0, [r7, #4]
 8000f56:	000c      	movs	r4, r1
 8000f58:	0010      	movs	r0, r2
 8000f5a:	0019      	movs	r1, r3
 8000f5c:	1cfb      	adds	r3, r7, #3
 8000f5e:	1c22      	adds	r2, r4, #0
 8000f60:	701a      	strb	r2, [r3, #0]
 8000f62:	1cbb      	adds	r3, r7, #2
 8000f64:	1c02      	adds	r2, r0, #0
 8000f66:	701a      	strb	r2, [r3, #0]
 8000f68:	1c7b      	adds	r3, r7, #1
 8000f6a:	1c0a      	adds	r2, r1, #0
 8000f6c:	701a      	strb	r2, [r3, #0]
	if ((x >= LCDWIDTH) || (y >= LCDHEIGHT))
 8000f6e:	1cfb      	adds	r3, r7, #3
 8000f70:	781b      	ldrb	r3, [r3, #0]
 8000f72:	b25b      	sxtb	r3, r3
 8000f74:	2b00      	cmp	r3, #0
 8000f76:	db51      	blt.n	800101c <st7565_setpixel+0xce>
 8000f78:	1cbb      	adds	r3, r7, #2
 8000f7a:	781b      	ldrb	r3, [r3, #0]
 8000f7c:	2b3f      	cmp	r3, #63	@ 0x3f
 8000f7e:	d84d      	bhi.n	800101c <st7565_setpixel+0xce>
		return;
// x is which column

	if (color)
 8000f80:	1c7b      	adds	r3, r7, #1
 8000f82:	781b      	ldrb	r3, [r3, #0]
 8000f84:	2b00      	cmp	r3, #0
 8000f86:	d023      	beq.n	8000fd0 <st7565_setpixel+0x82>
		buff[x + (y / 8) * 128] |= (1 << (7 - (y % 8)));
 8000f88:	1cfb      	adds	r3, r7, #3
 8000f8a:	781a      	ldrb	r2, [r3, #0]
 8000f8c:	1cbb      	adds	r3, r7, #2
 8000f8e:	781b      	ldrb	r3, [r3, #0]
 8000f90:	08db      	lsrs	r3, r3, #3
 8000f92:	b2d8      	uxtb	r0, r3
 8000f94:	0003      	movs	r3, r0
 8000f96:	01db      	lsls	r3, r3, #7
 8000f98:	18d3      	adds	r3, r2, r3
 8000f9a:	001a      	movs	r2, r3
 8000f9c:	687b      	ldr	r3, [r7, #4]
 8000f9e:	189b      	adds	r3, r3, r2
 8000fa0:	781b      	ldrb	r3, [r3, #0]
 8000fa2:	b25a      	sxtb	r2, r3
 8000fa4:	1cbb      	adds	r3, r7, #2
 8000fa6:	781b      	ldrb	r3, [r3, #0]
 8000fa8:	43db      	mvns	r3, r3
 8000faa:	2107      	movs	r1, #7
 8000fac:	400b      	ands	r3, r1
 8000fae:	2101      	movs	r1, #1
 8000fb0:	4099      	lsls	r1, r3
 8000fb2:	000b      	movs	r3, r1
 8000fb4:	b25b      	sxtb	r3, r3
 8000fb6:	4313      	orrs	r3, r2
 8000fb8:	b259      	sxtb	r1, r3
 8000fba:	1cfb      	adds	r3, r7, #3
 8000fbc:	781a      	ldrb	r2, [r3, #0]
 8000fbe:	0003      	movs	r3, r0
 8000fc0:	01db      	lsls	r3, r3, #7
 8000fc2:	18d3      	adds	r3, r2, r3
 8000fc4:	001a      	movs	r2, r3
 8000fc6:	687b      	ldr	r3, [r7, #4]
 8000fc8:	189b      	adds	r3, r3, r2
 8000fca:	b2ca      	uxtb	r2, r1
 8000fcc:	701a      	strb	r2, [r3, #0]
 8000fce:	e026      	b.n	800101e <st7565_setpixel+0xd0>
	else
		buff[x + (y / 8) * 128] &= ~(1 << (7 - (y % 8)));
 8000fd0:	1cfb      	adds	r3, r7, #3
 8000fd2:	781a      	ldrb	r2, [r3, #0]
 8000fd4:	1cbb      	adds	r3, r7, #2
 8000fd6:	781b      	ldrb	r3, [r3, #0]
 8000fd8:	08db      	lsrs	r3, r3, #3
 8000fda:	b2d8      	uxtb	r0, r3
 8000fdc:	0003      	movs	r3, r0
 8000fde:	01db      	lsls	r3, r3, #7
 8000fe0:	18d3      	adds	r3, r2, r3
 8000fe2:	001a      	movs	r2, r3
 8000fe4:	687b      	ldr	r3, [r7, #4]
 8000fe6:	189b      	adds	r3, r3, r2
 8000fe8:	781b      	ldrb	r3, [r3, #0]
 8000fea:	b25b      	sxtb	r3, r3
 8000fec:	1cba      	adds	r2, r7, #2
 8000fee:	7812      	ldrb	r2, [r2, #0]
 8000ff0:	43d2      	mvns	r2, r2
 8000ff2:	2107      	movs	r1, #7
 8000ff4:	400a      	ands	r2, r1
 8000ff6:	2101      	movs	r1, #1
 8000ff8:	4091      	lsls	r1, r2
 8000ffa:	000a      	movs	r2, r1
 8000ffc:	b252      	sxtb	r2, r2
 8000ffe:	43d2      	mvns	r2, r2
 8001000:	b252      	sxtb	r2, r2
 8001002:	4013      	ands	r3, r2
 8001004:	b259      	sxtb	r1, r3
 8001006:	1cfb      	adds	r3, r7, #3
 8001008:	781a      	ldrb	r2, [r3, #0]
 800100a:	0003      	movs	r3, r0
 800100c:	01db      	lsls	r3, r3, #7
 800100e:	18d3      	adds	r3, r2, r3
 8001010:	001a      	movs	r2, r3
 8001012:	687b      	ldr	r3, [r7, #4]
 8001014:	189b      	adds	r3, r3, r2
 8001016:	b2ca      	uxtb	r2, r1
 8001018:	701a      	strb	r2, [r3, #0]
 800101a:	e000      	b.n	800101e <st7565_setpixel+0xd0>
		return;
 800101c:	46c0      	nop			@ (mov r8, r8)
}
 800101e:	46bd      	mov	sp, r7
 8001020:	b003      	add	sp, #12
 8001022:	bd90      	pop	{r4, r7, pc}

08001024 <st7565_drawstring>:
		}
	}
}

//draw a sting at *x/*y
void st7565_drawstring(uint8_t *buff, uint8_t x, uint8_t line, uint8_t *c,uint8_t fontSelect) {
 8001024:	b5f0      	push	{r4, r5, r6, r7, lr}
 8001026:	b087      	sub	sp, #28
 8001028:	af02      	add	r7, sp, #8
 800102a:	60f8      	str	r0, [r7, #12]
 800102c:	0008      	movs	r0, r1
 800102e:	0011      	movs	r1, r2
 8001030:	607b      	str	r3, [r7, #4]
 8001032:	230b      	movs	r3, #11
 8001034:	18fb      	adds	r3, r7, r3
 8001036:	1c02      	adds	r2, r0, #0
 8001038:	701a      	strb	r2, [r3, #0]
 800103a:	230a      	movs	r3, #10
 800103c:	18fb      	adds	r3, r7, r3
 800103e:	1c0a      	adds	r2, r1, #0
 8001040:	701a      	strb	r2, [r3, #0]
	while (c[0] != 0) {
 8001042:	e02c      	b.n	800109e <st7565_drawstring+0x7a>
		st7565_drawchar(buff, x, line, c[0], fontSelect);
 8001044:	687b      	ldr	r3, [r7, #4]
 8001046:	781c      	ldrb	r4, [r3, #0]
 8001048:	260a      	movs	r6, #10
 800104a:	19bb      	adds	r3, r7, r6
 800104c:	781b      	ldrb	r3, [r3, #0]
 800104e:	469c      	mov	ip, r3
 8001050:	250b      	movs	r5, #11
 8001052:	197b      	adds	r3, r7, r5
 8001054:	7819      	ldrb	r1, [r3, #0]
 8001056:	68f8      	ldr	r0, [r7, #12]
 8001058:	2320      	movs	r3, #32
 800105a:	2208      	movs	r2, #8
 800105c:	189b      	adds	r3, r3, r2
 800105e:	19db      	adds	r3, r3, r7
 8001060:	781b      	ldrb	r3, [r3, #0]
 8001062:	9300      	str	r3, [sp, #0]
 8001064:	0023      	movs	r3, r4
 8001066:	4662      	mov	r2, ip
 8001068:	f000 f822 	bl	80010b0 <st7565_drawchar>
		c++;
 800106c:	687b      	ldr	r3, [r7, #4]
 800106e:	3301      	adds	r3, #1
 8001070:	607b      	str	r3, [r7, #4]
		x += 6; // 6 pixels wide
 8001072:	197b      	adds	r3, r7, r5
 8001074:	197a      	adds	r2, r7, r5
 8001076:	7812      	ldrb	r2, [r2, #0]
 8001078:	3206      	adds	r2, #6
 800107a:	701a      	strb	r2, [r3, #0]
		if (x + 6 >= LCDWIDTH) {
 800107c:	197b      	adds	r3, r7, r5
 800107e:	781b      	ldrb	r3, [r3, #0]
 8001080:	2b79      	cmp	r3, #121	@ 0x79
 8001082:	d907      	bls.n	8001094 <st7565_drawstring+0x70>
			x = 0; // ran out of this line
 8001084:	197b      	adds	r3, r7, r5
 8001086:	2200      	movs	r2, #0
 8001088:	701a      	strb	r2, [r3, #0]
			line++;
 800108a:	19bb      	adds	r3, r7, r6
 800108c:	781a      	ldrb	r2, [r3, #0]
 800108e:	19bb      	adds	r3, r7, r6
 8001090:	3201      	adds	r2, #1
 8001092:	701a      	strb	r2, [r3, #0]
		}
		if (line >= (LCDHEIGHT / 8))
 8001094:	230a      	movs	r3, #10
 8001096:	18fb      	adds	r3, r7, r3
 8001098:	781b      	ldrb	r3, [r3, #0]
 800109a:	2b07      	cmp	r3, #7
 800109c:	d804      	bhi.n	80010a8 <st7565_drawstring+0x84>
	while (c[0] != 0) {
 800109e:	687b      	ldr	r3, [r7, #4]
 80010a0:	781b      	ldrb	r3, [r3, #0]
 80010a2:	2b00      	cmp	r3, #0
 80010a4:	d1ce      	bne.n	8001044 <st7565_drawstring+0x20>
 80010a6:	e000      	b.n	80010aa <st7565_drawstring+0x86>
			return; // ran out of space :(
 80010a8:	46c0      	nop			@ (mov r8, r8)
	}
}
 80010aa:	46bd      	mov	sp, r7
 80010ac:	b005      	add	sp, #20
 80010ae:	bdf0      	pop	{r4, r5, r6, r7, pc}

080010b0 <st7565_drawchar>:

//draw a single character at *x/*y
void st7565_drawchar(uint8_t *buff, uint8_t x, uint8_t line, uint8_t c, uint8_t fontSelect) {
 80010b0:	b590      	push	{r4, r7, lr}
 80010b2:	b085      	sub	sp, #20
 80010b4:	af00      	add	r7, sp, #0
 80010b6:	6078      	str	r0, [r7, #4]
 80010b8:	000c      	movs	r4, r1
 80010ba:	0010      	movs	r0, r2
 80010bc:	0019      	movs	r1, r3
 80010be:	1cfb      	adds	r3, r7, #3
 80010c0:	1c22      	adds	r2, r4, #0
 80010c2:	701a      	strb	r2, [r3, #0]
 80010c4:	1cbb      	adds	r3, r7, #2
 80010c6:	1c02      	adds	r2, r0, #0
 80010c8:	701a      	strb	r2, [r3, #0]
 80010ca:	1c7b      	adds	r3, r7, #1
 80010cc:	1c0a      	adds	r2, r1, #0
 80010ce:	701a      	strb	r2, [r3, #0]
	uint8_t i;
	for (i = 0; i < 5; i++) {
 80010d0:	230f      	movs	r3, #15
 80010d2:	18fb      	adds	r3, r7, r3
 80010d4:	2200      	movs	r2, #0
 80010d6:	701a      	strb	r2, [r3, #0]
 80010d8:	e043      	b.n	8001162 <st7565_drawchar+0xb2>
		if(fontSelect==0)
 80010da:	2320      	movs	r3, #32
 80010dc:	18fb      	adds	r3, r7, r3
 80010de:	781b      	ldrb	r3, [r3, #0]
 80010e0:	2b00      	cmp	r3, #0
 80010e2:	d117      	bne.n	8001114 <st7565_drawchar+0x64>
		buff[x + (line * 128)] = *(lcdfont5x7 + (c * 5) + i);
 80010e4:	1c7b      	adds	r3, r7, #1
 80010e6:	781a      	ldrb	r2, [r3, #0]
 80010e8:	0013      	movs	r3, r2
 80010ea:	009b      	lsls	r3, r3, #2
 80010ec:	189b      	adds	r3, r3, r2
 80010ee:	001a      	movs	r2, r3
 80010f0:	230f      	movs	r3, #15
 80010f2:	18fb      	adds	r3, r7, r3
 80010f4:	781b      	ldrb	r3, [r3, #0]
 80010f6:	18d2      	adds	r2, r2, r3
 80010f8:	4b1f      	ldr	r3, [pc, #124]	@ (8001178 <st7565_drawchar+0xc8>)
 80010fa:	18d2      	adds	r2, r2, r3
 80010fc:	1cfb      	adds	r3, r7, #3
 80010fe:	7819      	ldrb	r1, [r3, #0]
 8001100:	1cbb      	adds	r3, r7, #2
 8001102:	781b      	ldrb	r3, [r3, #0]
 8001104:	01db      	lsls	r3, r3, #7
 8001106:	18cb      	adds	r3, r1, r3
 8001108:	0019      	movs	r1, r3
 800110a:	687b      	ldr	r3, [r7, #4]
 800110c:	185b      	adds	r3, r3, r1
 800110e:	7812      	ldrb	r2, [r2, #0]
 8001110:	701a      	strb	r2, [r3, #0]
 8001112:	e01b      	b.n	800114c <st7565_drawchar+0x9c>
		else if(fontSelect==1)
 8001114:	2320      	movs	r3, #32
 8001116:	18fb      	adds	r3, r7, r3
 8001118:	781b      	ldrb	r3, [r3, #0]
 800111a:	2b01      	cmp	r3, #1
 800111c:	d116      	bne.n	800114c <st7565_drawchar+0x9c>
		buff[x + (line * 128)] = *(ultraFont + (c * 5) + i);
 800111e:	1c7b      	adds	r3, r7, #1
 8001120:	781a      	ldrb	r2, [r3, #0]
 8001122:	0013      	movs	r3, r2
 8001124:	009b      	lsls	r3, r3, #2
 8001126:	189b      	adds	r3, r3, r2
 8001128:	001a      	movs	r2, r3
 800112a:	230f      	movs	r3, #15
 800112c:	18fb      	adds	r3, r7, r3
 800112e:	781b      	ldrb	r3, [r3, #0]
 8001130:	18d2      	adds	r2, r2, r3
 8001132:	4b12      	ldr	r3, [pc, #72]	@ (800117c <st7565_drawchar+0xcc>)
 8001134:	18d2      	adds	r2, r2, r3
 8001136:	1cfb      	adds	r3, r7, #3
 8001138:	7819      	ldrb	r1, [r3, #0]
 800113a:	1cbb      	adds	r3, r7, #2
 800113c:	781b      	ldrb	r3, [r3, #0]
 800113e:	01db      	lsls	r3, r3, #7
 8001140:	18cb      	adds	r3, r1, r3
 8001142:	0019      	movs	r1, r3
 8001144:	687b      	ldr	r3, [r7, #4]
 8001146:	185b      	adds	r3, r3, r1
 8001148:	7812      	ldrb	r2, [r2, #0]
 800114a:	701a      	strb	r2, [r3, #0]
		x++;
 800114c:	1cfb      	adds	r3, r7, #3
 800114e:	781a      	ldrb	r2, [r3, #0]
 8001150:	1cfb      	adds	r3, r7, #3
 8001152:	3201      	adds	r2, #1
 8001154:	701a      	strb	r2, [r3, #0]
	for (i = 0; i < 5; i++) {
 8001156:	210f      	movs	r1, #15
 8001158:	187b      	adds	r3, r7, r1
 800115a:	781a      	ldrb	r2, [r3, #0]
 800115c:	187b      	adds	r3, r7, r1
 800115e:	3201      	adds	r2, #1
 8001160:	701a      	strb	r2, [r3, #0]
 8001162:	230f      	movs	r3, #15
 8001164:	18fb      	adds	r3, r7, r3
 8001166:	781b      	ldrb	r3, [r3, #0]
 8001168:	2b04      	cmp	r3, #4
 800116a:	d9b6      	bls.n	80010da <st7565_drawchar+0x2a>
	}
}
 800116c:	46c0      	nop			@ (mov r8, r8)
 800116e:	46c0      	nop			@ (mov r8, r8)
 8001170:	46bd      	mov	sp, r7
 8001172:	b005      	add	sp, #20
 8001174:	bd90      	pop	{r4, r7, pc}
 8001176:	46c0      	nop			@ (mov r8, r8)
 8001178:	080062a8 	.word	0x080062a8
 800117c:	08005dac 	.word	0x08005dac

08001180 <st7565_drawline_complex>:
	buff[x + (y / 8) * 128] &= ~(1 << (7 - (y % 8)));
}

// Draw a line, based on bresenham's algorithm
void st7565_drawline_complex(uint8_t *buff, uint8_t x0, uint8_t y0, uint8_t x1,
		uint8_t y1, uint8_t color) {
 8001180:	b590      	push	{r4, r7, lr}
 8001182:	b085      	sub	sp, #20
 8001184:	af00      	add	r7, sp, #0
 8001186:	6078      	str	r0, [r7, #4]
 8001188:	000c      	movs	r4, r1
 800118a:	0010      	movs	r0, r2
 800118c:	0019      	movs	r1, r3
 800118e:	1cfb      	adds	r3, r7, #3
 8001190:	1c22      	adds	r2, r4, #0
 8001192:	701a      	strb	r2, [r3, #0]
 8001194:	1cbb      	adds	r3, r7, #2
 8001196:	1c02      	adds	r2, r0, #0
 8001198:	701a      	strb	r2, [r3, #0]
 800119a:	1c7b      	adds	r3, r7, #1
 800119c:	1c0a      	adds	r2, r1, #0
 800119e:	701a      	strb	r2, [r3, #0]
	uint8_t tmp, swap = 0;
 80011a0:	230f      	movs	r3, #15
 80011a2:	18fb      	adds	r3, r7, r3
 80011a4:	2200      	movs	r2, #0
 80011a6:	701a      	strb	r2, [r3, #0]
	uint8_t x, y;
	uint8_t dx, dy;
	int8_t ystep, err;

	if (x0 > x1)
 80011a8:	1cfa      	adds	r2, r7, #3
 80011aa:	1c7b      	adds	r3, r7, #1
 80011ac:	7812      	ldrb	r2, [r2, #0]
 80011ae:	781b      	ldrb	r3, [r3, #0]
 80011b0:	429a      	cmp	r2, r3
 80011b2:	d908      	bls.n	80011c6 <st7565_drawline_complex+0x46>
		dx = x0 - x1;
 80011b4:	230c      	movs	r3, #12
 80011b6:	18fb      	adds	r3, r7, r3
 80011b8:	1cf9      	adds	r1, r7, #3
 80011ba:	1c7a      	adds	r2, r7, #1
 80011bc:	7809      	ldrb	r1, [r1, #0]
 80011be:	7812      	ldrb	r2, [r2, #0]
 80011c0:	1a8a      	subs	r2, r1, r2
 80011c2:	701a      	strb	r2, [r3, #0]
 80011c4:	e007      	b.n	80011d6 <st7565_drawline_complex+0x56>
	else
		dx = x1 - x0;
 80011c6:	230c      	movs	r3, #12
 80011c8:	18fb      	adds	r3, r7, r3
 80011ca:	1c79      	adds	r1, r7, #1
 80011cc:	1cfa      	adds	r2, r7, #3
 80011ce:	7809      	ldrb	r1, [r1, #0]
 80011d0:	7812      	ldrb	r2, [r2, #0]
 80011d2:	1a8a      	subs	r2, r1, r2
 80011d4:	701a      	strb	r2, [r3, #0]
	if (y0 > y1)
 80011d6:	1cba      	adds	r2, r7, #2
 80011d8:	2020      	movs	r0, #32
 80011da:	183b      	adds	r3, r7, r0
 80011dc:	7812      	ldrb	r2, [r2, #0]
 80011de:	781b      	ldrb	r3, [r3, #0]
 80011e0:	429a      	cmp	r2, r3
 80011e2:	d908      	bls.n	80011f6 <st7565_drawline_complex+0x76>
		dy = y0 - y1;
 80011e4:	230b      	movs	r3, #11
 80011e6:	18fa      	adds	r2, r7, r3
 80011e8:	1cb9      	adds	r1, r7, #2
 80011ea:	183b      	adds	r3, r7, r0
 80011ec:	7809      	ldrb	r1, [r1, #0]
 80011ee:	781b      	ldrb	r3, [r3, #0]
 80011f0:	1acb      	subs	r3, r1, r3
 80011f2:	7013      	strb	r3, [r2, #0]
 80011f4:	e008      	b.n	8001208 <st7565_drawline_complex+0x88>
	else
		dy = y1 - y0;
 80011f6:	230b      	movs	r3, #11
 80011f8:	18fa      	adds	r2, r7, r3
 80011fa:	2320      	movs	r3, #32
 80011fc:	18fb      	adds	r3, r7, r3
 80011fe:	1cb8      	adds	r0, r7, #2
 8001200:	7819      	ldrb	r1, [r3, #0]
 8001202:	7803      	ldrb	r3, [r0, #0]
 8001204:	1acb      	subs	r3, r1, r3
 8001206:	7013      	strb	r3, [r2, #0]

	if (dy > dx) {
 8001208:	200b      	movs	r0, #11
 800120a:	183a      	adds	r2, r7, r0
 800120c:	240c      	movs	r4, #12
 800120e:	193b      	adds	r3, r7, r4
 8001210:	7812      	ldrb	r2, [r2, #0]
 8001212:	781b      	ldrb	r3, [r3, #0]
 8001214:	429a      	cmp	r2, r3
 8001216:	d929      	bls.n	800126c <st7565_drawline_complex+0xec>
		swap = 1;
 8001218:	230f      	movs	r3, #15
 800121a:	18fb      	adds	r3, r7, r3
 800121c:	2201      	movs	r2, #1
 800121e:	701a      	strb	r2, [r3, #0]
		tmp = dx;
 8001220:	2108      	movs	r1, #8
 8001222:	187b      	adds	r3, r7, r1
 8001224:	193a      	adds	r2, r7, r4
 8001226:	7812      	ldrb	r2, [r2, #0]
 8001228:	701a      	strb	r2, [r3, #0]
		dx = dy;
 800122a:	193b      	adds	r3, r7, r4
 800122c:	183a      	adds	r2, r7, r0
 800122e:	7812      	ldrb	r2, [r2, #0]
 8001230:	701a      	strb	r2, [r3, #0]
		dy = tmp;
 8001232:	183b      	adds	r3, r7, r0
 8001234:	187a      	adds	r2, r7, r1
 8001236:	7812      	ldrb	r2, [r2, #0]
 8001238:	701a      	strb	r2, [r3, #0]
		tmp = x0;
 800123a:	187b      	adds	r3, r7, r1
 800123c:	1cfa      	adds	r2, r7, #3
 800123e:	7812      	ldrb	r2, [r2, #0]
 8001240:	701a      	strb	r2, [r3, #0]
		x0 = y0;
 8001242:	1cfb      	adds	r3, r7, #3
 8001244:	1cba      	adds	r2, r7, #2
 8001246:	7812      	ldrb	r2, [r2, #0]
 8001248:	701a      	strb	r2, [r3, #0]
		y0 = tmp;
 800124a:	1cbb      	adds	r3, r7, #2
 800124c:	187a      	adds	r2, r7, r1
 800124e:	7812      	ldrb	r2, [r2, #0]
 8001250:	701a      	strb	r2, [r3, #0]
		tmp = x1;
 8001252:	187b      	adds	r3, r7, r1
 8001254:	1c7a      	adds	r2, r7, #1
 8001256:	7812      	ldrb	r2, [r2, #0]
 8001258:	701a      	strb	r2, [r3, #0]
		x1 = y1;
 800125a:	1c7a      	adds	r2, r7, #1
 800125c:	2020      	movs	r0, #32
 800125e:	183b      	adds	r3, r7, r0
 8001260:	781b      	ldrb	r3, [r3, #0]
 8001262:	7013      	strb	r3, [r2, #0]
		y1 = tmp;
 8001264:	183b      	adds	r3, r7, r0
 8001266:	187a      	adds	r2, r7, r1
 8001268:	7812      	ldrb	r2, [r2, #0]
 800126a:	701a      	strb	r2, [r3, #0]
	}
	if (x0 > x1) {
 800126c:	1cfa      	adds	r2, r7, #3
 800126e:	1c7b      	adds	r3, r7, #1
 8001270:	7812      	ldrb	r2, [r2, #0]
 8001272:	781b      	ldrb	r3, [r3, #0]
 8001274:	429a      	cmp	r2, r3
 8001276:	d919      	bls.n	80012ac <st7565_drawline_complex+0x12c>
		tmp = x0;
 8001278:	2108      	movs	r1, #8
 800127a:	187b      	adds	r3, r7, r1
 800127c:	1cfa      	adds	r2, r7, #3
 800127e:	7812      	ldrb	r2, [r2, #0]
 8001280:	701a      	strb	r2, [r3, #0]
		x0 = x1;
 8001282:	1cfb      	adds	r3, r7, #3
 8001284:	1c7a      	adds	r2, r7, #1
 8001286:	7812      	ldrb	r2, [r2, #0]
 8001288:	701a      	strb	r2, [r3, #0]
		x1 = tmp;
 800128a:	1c7b      	adds	r3, r7, #1
 800128c:	187a      	adds	r2, r7, r1
 800128e:	7812      	ldrb	r2, [r2, #0]
 8001290:	701a      	strb	r2, [r3, #0]
		tmp = y0;
 8001292:	187b      	adds	r3, r7, r1
 8001294:	1cba      	adds	r2, r7, #2
 8001296:	7812      	ldrb	r2, [r2, #0]
 8001298:	701a      	strb	r2, [r3, #0]
		y0 = y1;
 800129a:	1cba      	adds	r2, r7, #2
 800129c:	2020      	movs	r0, #32
 800129e:	183b      	adds	r3, r7, r0
 80012a0:	781b      	ldrb	r3, [r3, #0]
 80012a2:	7013      	strb	r3, [r2, #0]
		y1 = tmp;
 80012a4:	183b      	adds	r3, r7, r0
 80012a6:	187a      	adds	r2, r7, r1
 80012a8:	7812      	ldrb	r2, [r2, #0]
 80012aa:	701a      	strb	r2, [r3, #0]
	}

	err = dx >> 1;
 80012ac:	230c      	movs	r3, #12
 80012ae:	18fb      	adds	r3, r7, r3
 80012b0:	781b      	ldrb	r3, [r3, #0]
 80012b2:	085b      	lsrs	r3, r3, #1
 80012b4:	b2da      	uxtb	r2, r3
 80012b6:	2309      	movs	r3, #9
 80012b8:	18fb      	adds	r3, r7, r3
 80012ba:	701a      	strb	r2, [r3, #0]
	if (y1 > y0)
 80012bc:	2320      	movs	r3, #32
 80012be:	18fb      	adds	r3, r7, r3
 80012c0:	1cb9      	adds	r1, r7, #2
 80012c2:	781a      	ldrb	r2, [r3, #0]
 80012c4:	780b      	ldrb	r3, [r1, #0]
 80012c6:	429a      	cmp	r2, r3
 80012c8:	d904      	bls.n	80012d4 <st7565_drawline_complex+0x154>
		ystep = 1;
 80012ca:	230a      	movs	r3, #10
 80012cc:	18fb      	adds	r3, r7, r3
 80012ce:	2201      	movs	r2, #1
 80012d0:	701a      	strb	r2, [r3, #0]
 80012d2:	e003      	b.n	80012dc <st7565_drawline_complex+0x15c>
	else
		ystep = -1;
 80012d4:	230a      	movs	r3, #10
 80012d6:	18fb      	adds	r3, r7, r3
 80012d8:	22ff      	movs	r2, #255	@ 0xff
 80012da:	701a      	strb	r2, [r3, #0]
	y = y0;
 80012dc:	230d      	movs	r3, #13
 80012de:	18fb      	adds	r3, r7, r3
 80012e0:	1cba      	adds	r2, r7, #2
 80012e2:	7812      	ldrb	r2, [r2, #0]
 80012e4:	701a      	strb	r2, [r3, #0]
	for (x = x0; x <= x1; x++) {
 80012e6:	230e      	movs	r3, #14
 80012e8:	18fb      	adds	r3, r7, r3
 80012ea:	1cfa      	adds	r2, r7, #3
 80012ec:	7812      	ldrb	r2, [r2, #0]
 80012ee:	701a      	strb	r2, [r3, #0]
 80012f0:	e045      	b.n	800137e <st7565_drawline_complex+0x1fe>
		if (swap == 0)
 80012f2:	230f      	movs	r3, #15
 80012f4:	18fb      	adds	r3, r7, r3
 80012f6:	781b      	ldrb	r3, [r3, #0]
 80012f8:	2b00      	cmp	r3, #0
 80012fa:	d10d      	bne.n	8001318 <st7565_drawline_complex+0x198>
			st7565_setpixel(buff, x, y, color);
 80012fc:	2324      	movs	r3, #36	@ 0x24
 80012fe:	18fb      	adds	r3, r7, r3
 8001300:	781c      	ldrb	r4, [r3, #0]
 8001302:	230d      	movs	r3, #13
 8001304:	18fb      	adds	r3, r7, r3
 8001306:	781a      	ldrb	r2, [r3, #0]
 8001308:	230e      	movs	r3, #14
 800130a:	18fb      	adds	r3, r7, r3
 800130c:	7819      	ldrb	r1, [r3, #0]
 800130e:	6878      	ldr	r0, [r7, #4]
 8001310:	0023      	movs	r3, r4
 8001312:	f7ff fe1c 	bl	8000f4e <st7565_setpixel>
 8001316:	e00c      	b.n	8001332 <st7565_drawline_complex+0x1b2>
		else
			st7565_setpixel(buff, y, x, color);
 8001318:	2324      	movs	r3, #36	@ 0x24
 800131a:	18fb      	adds	r3, r7, r3
 800131c:	781c      	ldrb	r4, [r3, #0]
 800131e:	230e      	movs	r3, #14
 8001320:	18fb      	adds	r3, r7, r3
 8001322:	781a      	ldrb	r2, [r3, #0]
 8001324:	230d      	movs	r3, #13
 8001326:	18fb      	adds	r3, r7, r3
 8001328:	7819      	ldrb	r1, [r3, #0]
 800132a:	6878      	ldr	r0, [r7, #4]
 800132c:	0023      	movs	r3, r4
 800132e:	f7ff fe0e 	bl	8000f4e <st7565_setpixel>
		err -= (uint8_t) dy;
 8001332:	2009      	movs	r0, #9
 8001334:	183b      	adds	r3, r7, r0
 8001336:	781a      	ldrb	r2, [r3, #0]
 8001338:	230b      	movs	r3, #11
 800133a:	18fb      	adds	r3, r7, r3
 800133c:	781b      	ldrb	r3, [r3, #0]
 800133e:	1ad3      	subs	r3, r2, r3
 8001340:	b2da      	uxtb	r2, r3
 8001342:	183b      	adds	r3, r7, r0
 8001344:	701a      	strb	r2, [r3, #0]
		if (err < 0) {
 8001346:	183b      	adds	r3, r7, r0
 8001348:	781b      	ldrb	r3, [r3, #0]
 800134a:	2b7f      	cmp	r3, #127	@ 0x7f
 800134c:	d911      	bls.n	8001372 <st7565_drawline_complex+0x1f2>
			y += (uint8_t) ystep;
 800134e:	230a      	movs	r3, #10
 8001350:	18fb      	adds	r3, r7, r3
 8001352:	7819      	ldrb	r1, [r3, #0]
 8001354:	220d      	movs	r2, #13
 8001356:	18bb      	adds	r3, r7, r2
 8001358:	18ba      	adds	r2, r7, r2
 800135a:	7812      	ldrb	r2, [r2, #0]
 800135c:	188a      	adds	r2, r1, r2
 800135e:	701a      	strb	r2, [r3, #0]
			err += (uint8_t) dx;
 8001360:	183b      	adds	r3, r7, r0
 8001362:	781a      	ldrb	r2, [r3, #0]
 8001364:	230c      	movs	r3, #12
 8001366:	18fb      	adds	r3, r7, r3
 8001368:	781b      	ldrb	r3, [r3, #0]
 800136a:	18d3      	adds	r3, r2, r3
 800136c:	b2da      	uxtb	r2, r3
 800136e:	183b      	adds	r3, r7, r0
 8001370:	701a      	strb	r2, [r3, #0]
	for (x = x0; x <= x1; x++) {
 8001372:	210e      	movs	r1, #14
 8001374:	187b      	adds	r3, r7, r1
 8001376:	781a      	ldrb	r2, [r3, #0]
 8001378:	187b      	adds	r3, r7, r1
 800137a:	3201      	adds	r2, #1
 800137c:	701a      	strb	r2, [r3, #0]
 800137e:	230e      	movs	r3, #14
 8001380:	18fa      	adds	r2, r7, r3
 8001382:	1c7b      	adds	r3, r7, #1
 8001384:	7812      	ldrb	r2, [r2, #0]
 8001386:	781b      	ldrb	r3, [r3, #0]
 8001388:	429a      	cmp	r2, r3
 800138a:	d9b2      	bls.n	80012f2 <st7565_drawline_complex+0x172>
		}
	}
}
 800138c:	46c0      	nop			@ (mov r8, r8)
 800138e:	46c0      	nop			@ (mov r8, r8)
 8001390:	46bd      	mov	sp, r7
 8001392:	b005      	add	sp, #20
 8001394:	bd90      	pop	{r4, r7, pc}

08001396 <st7565_fillrect>:

// draw a filled rectangle
void st7565_fillrect(uint8_t *buff, uint8_t x, uint8_t y, uint8_t w, uint8_t h, uint8_t color) {
 8001396:	b590      	push	{r4, r7, lr}
 8001398:	b087      	sub	sp, #28
 800139a:	af00      	add	r7, sp, #0
 800139c:	6078      	str	r0, [r7, #4]
 800139e:	000c      	movs	r4, r1
 80013a0:	0010      	movs	r0, r2
 80013a2:	0019      	movs	r1, r3
 80013a4:	1cfb      	adds	r3, r7, #3
 80013a6:	1c22      	adds	r2, r4, #0
 80013a8:	701a      	strb	r2, [r3, #0]
 80013aa:	1cbb      	adds	r3, r7, #2
 80013ac:	1c02      	adds	r2, r0, #0
 80013ae:	701a      	strb	r2, [r3, #0]
 80013b0:	1c7b      	adds	r3, r7, #1
 80013b2:	1c0a      	adds	r2, r1, #0
 80013b4:	701a      	strb	r2, [r3, #0]
    if (x >= LCDWIDTH || y >= LCDHEIGHT)
 80013b6:	1cfb      	adds	r3, r7, #3
 80013b8:	781b      	ldrb	r3, [r3, #0]
 80013ba:	b25b      	sxtb	r3, r3
 80013bc:	2b00      	cmp	r3, #0
 80013be:	da00      	bge.n	80013c2 <st7565_fillrect+0x2c>
 80013c0:	e0e2      	b.n	8001588 <st7565_fillrect+0x1f2>
 80013c2:	1cbb      	adds	r3, r7, #2
 80013c4:	781b      	ldrb	r3, [r3, #0]
 80013c6:	2b3f      	cmp	r3, #63	@ 0x3f
 80013c8:	d900      	bls.n	80013cc <st7565_fillrect+0x36>
 80013ca:	e0dd      	b.n	8001588 <st7565_fillrect+0x1f2>
        return;
    if (x + w > LCDWIDTH)
 80013cc:	1cfb      	adds	r3, r7, #3
 80013ce:	781a      	ldrb	r2, [r3, #0]
 80013d0:	1c7b      	adds	r3, r7, #1
 80013d2:	781b      	ldrb	r3, [r3, #0]
 80013d4:	18d3      	adds	r3, r2, r3
 80013d6:	2b80      	cmp	r3, #128	@ 0x80
 80013d8:	dd06      	ble.n	80013e8 <st7565_fillrect+0x52>
        w = LCDWIDTH - x;
 80013da:	1c7b      	adds	r3, r7, #1
 80013dc:	1cfa      	adds	r2, r7, #3
 80013de:	7812      	ldrb	r2, [r2, #0]
 80013e0:	2180      	movs	r1, #128	@ 0x80
 80013e2:	4249      	negs	r1, r1
 80013e4:	1a8a      	subs	r2, r1, r2
 80013e6:	701a      	strb	r2, [r3, #0]
    if (y + h > LCDHEIGHT)
 80013e8:	1cbb      	adds	r3, r7, #2
 80013ea:	781a      	ldrb	r2, [r3, #0]
 80013ec:	2128      	movs	r1, #40	@ 0x28
 80013ee:	187b      	adds	r3, r7, r1
 80013f0:	781b      	ldrb	r3, [r3, #0]
 80013f2:	18d3      	adds	r3, r2, r3
 80013f4:	2b40      	cmp	r3, #64	@ 0x40
 80013f6:	dd05      	ble.n	8001404 <st7565_fillrect+0x6e>
        h = LCDHEIGHT - y;
 80013f8:	187b      	adds	r3, r7, r1
 80013fa:	1cba      	adds	r2, r7, #2
 80013fc:	7812      	ldrb	r2, [r2, #0]
 80013fe:	2140      	movs	r1, #64	@ 0x40
 8001400:	1a8a      	subs	r2, r1, r2
 8001402:	701a      	strb	r2, [r3, #0]
    uint8_t y_start = y;
 8001404:	2114      	movs	r1, #20
 8001406:	187b      	adds	r3, r7, r1
 8001408:	1cba      	adds	r2, r7, #2
 800140a:	7812      	ldrb	r2, [r2, #0]
 800140c:	701a      	strb	r2, [r3, #0]
    uint8_t y_end = y + h - 1;
 800140e:	1cba      	adds	r2, r7, #2
 8001410:	2328      	movs	r3, #40	@ 0x28
 8001412:	18fb      	adds	r3, r7, r3
 8001414:	7812      	ldrb	r2, [r2, #0]
 8001416:	781b      	ldrb	r3, [r3, #0]
 8001418:	18d3      	adds	r3, r2, r3
 800141a:	b2da      	uxtb	r2, r3
 800141c:	2013      	movs	r0, #19
 800141e:	183b      	adds	r3, r7, r0
 8001420:	3a01      	subs	r2, #1
 8001422:	701a      	strb	r2, [r3, #0]
    uint8_t page_start = y_start / 8;
 8001424:	2312      	movs	r3, #18
 8001426:	18fb      	adds	r3, r7, r3
 8001428:	187a      	adds	r2, r7, r1
 800142a:	7812      	ldrb	r2, [r2, #0]
 800142c:	08d2      	lsrs	r2, r2, #3
 800142e:	701a      	strb	r2, [r3, #0]
    uint8_t page_end = y_end / 8;
 8001430:	2311      	movs	r3, #17
 8001432:	18fb      	adds	r3, r7, r3
 8001434:	183a      	adds	r2, r7, r0
 8001436:	7812      	ldrb	r2, [r2, #0]
 8001438:	08d2      	lsrs	r2, r2, #3
 800143a:	701a      	strb	r2, [r3, #0]
    uint8_t bit_start = y_start % 8;
 800143c:	2310      	movs	r3, #16
 800143e:	18fb      	adds	r3, r7, r3
 8001440:	187a      	adds	r2, r7, r1
 8001442:	7812      	ldrb	r2, [r2, #0]
 8001444:	2107      	movs	r1, #7
 8001446:	400a      	ands	r2, r1
 8001448:	701a      	strb	r2, [r3, #0]
    uint8_t bit_end = y_end % 8;
 800144a:	230f      	movs	r3, #15
 800144c:	18fb      	adds	r3, r7, r3
 800144e:	183a      	adds	r2, r7, r0
 8001450:	7812      	ldrb	r2, [r2, #0]
 8001452:	2107      	movs	r1, #7
 8001454:	400a      	ands	r2, r1
 8001456:	701a      	strb	r2, [r3, #0]
    for (uint8_t px = x; px < x + w; px++) {
 8001458:	2317      	movs	r3, #23
 800145a:	18fb      	adds	r3, r7, r3
 800145c:	1cfa      	adds	r2, r7, #3
 800145e:	7812      	ldrb	r2, [r2, #0]
 8001460:	701a      	strb	r2, [r3, #0]
 8001462:	e085      	b.n	8001570 <st7565_fillrect+0x1da>
        for (uint8_t page = page_start; page <= page_end; page++) {
 8001464:	2316      	movs	r3, #22
 8001466:	18fb      	adds	r3, r7, r3
 8001468:	2212      	movs	r2, #18
 800146a:	18ba      	adds	r2, r7, r2
 800146c:	7812      	ldrb	r2, [r2, #0]
 800146e:	701a      	strb	r2, [r3, #0]
 8001470:	e070      	b.n	8001554 <st7565_fillrect+0x1be>
            uint8_t mask = 0xFF;
 8001472:	2115      	movs	r1, #21
 8001474:	187b      	adds	r3, r7, r1
 8001476:	22ff      	movs	r2, #255	@ 0xff
 8001478:	701a      	strb	r2, [r3, #0]
            if (page == page_start) {
 800147a:	2316      	movs	r3, #22
 800147c:	18fa      	adds	r2, r7, r3
 800147e:	2312      	movs	r3, #18
 8001480:	18fb      	adds	r3, r7, r3
 8001482:	7812      	ldrb	r2, [r2, #0]
 8001484:	781b      	ldrb	r3, [r3, #0]
 8001486:	429a      	cmp	r2, r3
 8001488:	d10d      	bne.n	80014a6 <st7565_fillrect+0x110>
                mask &= (0xFF >> bit_start);
 800148a:	2310      	movs	r3, #16
 800148c:	18fb      	adds	r3, r7, r3
 800148e:	781b      	ldrb	r3, [r3, #0]
 8001490:	22ff      	movs	r2, #255	@ 0xff
 8001492:	411a      	asrs	r2, r3
 8001494:	0013      	movs	r3, r2
 8001496:	b25b      	sxtb	r3, r3
 8001498:	187a      	adds	r2, r7, r1
 800149a:	7812      	ldrb	r2, [r2, #0]
 800149c:	b252      	sxtb	r2, r2
 800149e:	4013      	ands	r3, r2
 80014a0:	b25a      	sxtb	r2, r3
 80014a2:	187b      	adds	r3, r7, r1
 80014a4:	701a      	strb	r2, [r3, #0]
            }
            if (page == page_end) {
 80014a6:	2316      	movs	r3, #22
 80014a8:	18fa      	adds	r2, r7, r3
 80014aa:	2311      	movs	r3, #17
 80014ac:	18fb      	adds	r3, r7, r3
 80014ae:	7812      	ldrb	r2, [r2, #0]
 80014b0:	781b      	ldrb	r3, [r3, #0]
 80014b2:	429a      	cmp	r2, r3
 80014b4:	d110      	bne.n	80014d8 <st7565_fillrect+0x142>
                mask &= (0xFF << (7 - bit_end));
 80014b6:	230f      	movs	r3, #15
 80014b8:	18fb      	adds	r3, r7, r3
 80014ba:	781b      	ldrb	r3, [r3, #0]
 80014bc:	2207      	movs	r2, #7
 80014be:	1ad3      	subs	r3, r2, r3
 80014c0:	22ff      	movs	r2, #255	@ 0xff
 80014c2:	409a      	lsls	r2, r3
 80014c4:	0013      	movs	r3, r2
 80014c6:	b25b      	sxtb	r3, r3
 80014c8:	2115      	movs	r1, #21
 80014ca:	187a      	adds	r2, r7, r1
 80014cc:	7812      	ldrb	r2, [r2, #0]
 80014ce:	b252      	sxtb	r2, r2
 80014d0:	4013      	ands	r3, r2
 80014d2:	b25a      	sxtb	r2, r3
 80014d4:	187b      	adds	r3, r7, r1
 80014d6:	701a      	strb	r2, [r3, #0]
            }
            uint16_t idx = px + page * 128;
 80014d8:	2317      	movs	r3, #23
 80014da:	18fb      	adds	r3, r7, r3
 80014dc:	781b      	ldrb	r3, [r3, #0]
 80014de:	b299      	uxth	r1, r3
 80014e0:	2316      	movs	r3, #22
 80014e2:	18fb      	adds	r3, r7, r3
 80014e4:	781b      	ldrb	r3, [r3, #0]
 80014e6:	b29b      	uxth	r3, r3
 80014e8:	01db      	lsls	r3, r3, #7
 80014ea:	b29a      	uxth	r2, r3
 80014ec:	200c      	movs	r0, #12
 80014ee:	183b      	adds	r3, r7, r0
 80014f0:	188a      	adds	r2, r1, r2
 80014f2:	801a      	strh	r2, [r3, #0]
            if (color)
 80014f4:	232c      	movs	r3, #44	@ 0x2c
 80014f6:	18fb      	adds	r3, r7, r3
 80014f8:	781b      	ldrb	r3, [r3, #0]
 80014fa:	2b00      	cmp	r3, #0
 80014fc:	d00f      	beq.n	800151e <st7565_fillrect+0x188>
                buff[idx] |= mask;
 80014fe:	183b      	adds	r3, r7, r0
 8001500:	881b      	ldrh	r3, [r3, #0]
 8001502:	687a      	ldr	r2, [r7, #4]
 8001504:	18d3      	adds	r3, r2, r3
 8001506:	7819      	ldrb	r1, [r3, #0]
 8001508:	183b      	adds	r3, r7, r0
 800150a:	881b      	ldrh	r3, [r3, #0]
 800150c:	687a      	ldr	r2, [r7, #4]
 800150e:	18d3      	adds	r3, r2, r3
 8001510:	2215      	movs	r2, #21
 8001512:	18ba      	adds	r2, r7, r2
 8001514:	7812      	ldrb	r2, [r2, #0]
 8001516:	430a      	orrs	r2, r1
 8001518:	b2d2      	uxtb	r2, r2
 800151a:	701a      	strb	r2, [r3, #0]
 800151c:	e014      	b.n	8001548 <st7565_fillrect+0x1b2>
            else
                buff[idx] &= ~mask;
 800151e:	200c      	movs	r0, #12
 8001520:	183b      	adds	r3, r7, r0
 8001522:	881b      	ldrh	r3, [r3, #0]
 8001524:	687a      	ldr	r2, [r7, #4]
 8001526:	18d3      	adds	r3, r2, r3
 8001528:	781b      	ldrb	r3, [r3, #0]
 800152a:	b25b      	sxtb	r3, r3
 800152c:	2215      	movs	r2, #21
 800152e:	18ba      	adds	r2, r7, r2
 8001530:	7812      	ldrb	r2, [r2, #0]
 8001532:	b252      	sxtb	r2, r2
 8001534:	43d2      	mvns	r2, r2
 8001536:	b252      	sxtb	r2, r2
 8001538:	4013      	ands	r3, r2
 800153a:	b259      	sxtb	r1, r3
 800153c:	183b      	adds	r3, r7, r0
 800153e:	881b      	ldrh	r3, [r3, #0]
 8001540:	687a      	ldr	r2, [r7, #4]
 8001542:	18d3      	adds	r3, r2, r3
 8001544:	b2ca      	uxtb	r2, r1
 8001546:	701a      	strb	r2, [r3, #0]
        for (uint8_t page = page_start; page <= page_end; page++) {
 8001548:	2116      	movs	r1, #22
 800154a:	187b      	adds	r3, r7, r1
 800154c:	781a      	ldrb	r2, [r3, #0]
 800154e:	187b      	adds	r3, r7, r1
 8001550:	3201      	adds	r2, #1
 8001552:	701a      	strb	r2, [r3, #0]
 8001554:	2316      	movs	r3, #22
 8001556:	18fa      	adds	r2, r7, r3
 8001558:	2311      	movs	r3, #17
 800155a:	18fb      	adds	r3, r7, r3
 800155c:	7812      	ldrb	r2, [r2, #0]
 800155e:	781b      	ldrb	r3, [r3, #0]
 8001560:	429a      	cmp	r2, r3
 8001562:	d986      	bls.n	8001472 <st7565_fillrect+0xdc>
    for (uint8_t px = x; px < x + w; px++) {
 8001564:	2117      	movs	r1, #23
 8001566:	187b      	adds	r3, r7, r1
 8001568:	781a      	ldrb	r2, [r3, #0]
 800156a:	187b      	adds	r3, r7, r1
 800156c:	3201      	adds	r2, #1
 800156e:	701a      	strb	r2, [r3, #0]
 8001570:	2317      	movs	r3, #23
 8001572:	18fb      	adds	r3, r7, r3
 8001574:	781a      	ldrb	r2, [r3, #0]
 8001576:	1cfb      	adds	r3, r7, #3
 8001578:	7819      	ldrb	r1, [r3, #0]
 800157a:	1c7b      	adds	r3, r7, #1
 800157c:	781b      	ldrb	r3, [r3, #0]
 800157e:	18cb      	adds	r3, r1, r3
 8001580:	429a      	cmp	r2, r3
 8001582:	da00      	bge.n	8001586 <st7565_fillrect+0x1f0>
 8001584:	e76e      	b.n	8001464 <st7565_fillrect+0xce>
 8001586:	e000      	b.n	800158a <st7565_fillrect+0x1f4>
        return;
 8001588:	46c0      	nop			@ (mov r8, r8)
        }
    }
}
 800158a:	46bd      	mov	sp, r7
 800158c:	b007      	add	sp, #28
 800158e:	bd90      	pop	{r4, r7, pc}

08001590 <st7565_drawline>:
			st7565_setpixel(buff, x0 - y, i, color);
		}
	}
}

void st7565_drawline(uint8_t *buff, uint8_t x0, uint8_t y0, uint8_t x1, uint8_t y1, uint8_t color) {
 8001590:	b5f0      	push	{r4, r5, r6, r7, lr}
 8001592:	b08b      	sub	sp, #44	@ 0x2c
 8001594:	af00      	add	r7, sp, #0
 8001596:	6078      	str	r0, [r7, #4]
 8001598:	000c      	movs	r4, r1
 800159a:	0010      	movs	r0, r2
 800159c:	0019      	movs	r1, r3
 800159e:	1cfb      	adds	r3, r7, #3
 80015a0:	1c22      	adds	r2, r4, #0
 80015a2:	701a      	strb	r2, [r3, #0]
 80015a4:	1cbb      	adds	r3, r7, #2
 80015a6:	1c02      	adds	r2, r0, #0
 80015a8:	701a      	strb	r2, [r3, #0]
 80015aa:	1c7b      	adds	r3, r7, #1
 80015ac:	1c0a      	adds	r2, r1, #0
 80015ae:	701a      	strb	r2, [r3, #0]
    if (x0 == x1) {
 80015b0:	1cfa      	adds	r2, r7, #3
 80015b2:	1c7b      	adds	r3, r7, #1
 80015b4:	7812      	ldrb	r2, [r2, #0]
 80015b6:	781b      	ldrb	r3, [r3, #0]
 80015b8:	429a      	cmp	r2, r3
 80015ba:	d000      	beq.n	80015be <st7565_drawline+0x2e>
 80015bc:	e0c8      	b.n	8001750 <st7565_drawline+0x1c0>
        if (x0 >= LCDWIDTH)
 80015be:	1cfb      	adds	r3, r7, #3
 80015c0:	781b      	ldrb	r3, [r3, #0]
 80015c2:	b25b      	sxtb	r3, r3
 80015c4:	2b00      	cmp	r3, #0
 80015c6:	da00      	bge.n	80015ca <st7565_drawline+0x3a>
 80015c8:	e1f0      	b.n	80019ac <st7565_drawline+0x41c>
            return;
        uint8_t y_start = y0 < y1 ? y0 : y1;
 80015ca:	2313      	movs	r3, #19
 80015cc:	18fa      	adds	r2, r7, r3
 80015ce:	2338      	movs	r3, #56	@ 0x38
 80015d0:	2108      	movs	r1, #8
 80015d2:	185b      	adds	r3, r3, r1
 80015d4:	19db      	adds	r3, r3, r7
 80015d6:	1cb9      	adds	r1, r7, #2
 80015d8:	780c      	ldrb	r4, [r1, #0]
 80015da:	781b      	ldrb	r3, [r3, #0]
 80015dc:	b2d8      	uxtb	r0, r3
 80015de:	b2e1      	uxtb	r1, r4
 80015e0:	4288      	cmp	r0, r1
 80015e2:	d900      	bls.n	80015e6 <st7565_drawline+0x56>
 80015e4:	1c23      	adds	r3, r4, #0
 80015e6:	7013      	strb	r3, [r2, #0]
        uint8_t y_end = y0 > y1 ? y0 : y1;
 80015e8:	2327      	movs	r3, #39	@ 0x27
 80015ea:	18fa      	adds	r2, r7, r3
 80015ec:	2338      	movs	r3, #56	@ 0x38
 80015ee:	2108      	movs	r1, #8
 80015f0:	185b      	adds	r3, r3, r1
 80015f2:	19db      	adds	r3, r3, r7
 80015f4:	1cb9      	adds	r1, r7, #2
 80015f6:	780c      	ldrb	r4, [r1, #0]
 80015f8:	781b      	ldrb	r3, [r3, #0]
 80015fa:	b2d8      	uxtb	r0, r3
 80015fc:	b2e1      	uxtb	r1, r4
 80015fe:	4288      	cmp	r0, r1
 8001600:	d200      	bcs.n	8001604 <st7565_drawline+0x74>
 8001602:	1c23      	adds	r3, r4, #0
 8001604:	7013      	strb	r3, [r2, #0]
        if (y_end >= LCDHEIGHT)
 8001606:	2227      	movs	r2, #39	@ 0x27
 8001608:	18bb      	adds	r3, r7, r2
 800160a:	781b      	ldrb	r3, [r3, #0]
 800160c:	2b3f      	cmp	r3, #63	@ 0x3f
 800160e:	d902      	bls.n	8001616 <st7565_drawline+0x86>
            y_end = LCDHEIGHT - 1;
 8001610:	18bb      	adds	r3, r7, r2
 8001612:	223f      	movs	r2, #63	@ 0x3f
 8001614:	701a      	strb	r2, [r3, #0]
        uint8_t page_start = y_start / 8;
 8001616:	2012      	movs	r0, #18
 8001618:	183b      	adds	r3, r7, r0
 800161a:	2113      	movs	r1, #19
 800161c:	187a      	adds	r2, r7, r1
 800161e:	7812      	ldrb	r2, [r2, #0]
 8001620:	08d2      	lsrs	r2, r2, #3
 8001622:	701a      	strb	r2, [r3, #0]
        uint8_t page_end = y_end / 8;
 8001624:	2311      	movs	r3, #17
 8001626:	18fb      	adds	r3, r7, r3
 8001628:	2427      	movs	r4, #39	@ 0x27
 800162a:	193a      	adds	r2, r7, r4
 800162c:	7812      	ldrb	r2, [r2, #0]
 800162e:	08d2      	lsrs	r2, r2, #3
 8001630:	701a      	strb	r2, [r3, #0]
        uint8_t bit_start = y_start % 8;
 8001632:	2310      	movs	r3, #16
 8001634:	18fb      	adds	r3, r7, r3
 8001636:	187a      	adds	r2, r7, r1
 8001638:	7812      	ldrb	r2, [r2, #0]
 800163a:	2107      	movs	r1, #7
 800163c:	400a      	ands	r2, r1
 800163e:	701a      	strb	r2, [r3, #0]
        uint8_t bit_end = y_end % 8;
 8001640:	230f      	movs	r3, #15
 8001642:	18fb      	adds	r3, r7, r3
 8001644:	193a      	adds	r2, r7, r4
 8001646:	7812      	ldrb	r2, [r2, #0]
 8001648:	2107      	movs	r1, #7
 800164a:	400a      	ands	r2, r1
 800164c:	701a      	strb	r2, [r3, #0]
        for (uint8_t page = page_start; page <= page_end; page++) {
 800164e:	2326      	movs	r3, #38	@ 0x26
 8001650:	18fb      	adds	r3, r7, r3
 8001652:	183a      	adds	r2, r7, r0
 8001654:	7812      	ldrb	r2, [r2, #0]
 8001656:	701a      	strb	r2, [r3, #0]
 8001658:	e071      	b.n	800173e <st7565_drawline+0x1ae>
            uint8_t mask = 0xFF;
 800165a:	2125      	movs	r1, #37	@ 0x25
 800165c:	187b      	adds	r3, r7, r1
 800165e:	22ff      	movs	r2, #255	@ 0xff
 8001660:	701a      	strb	r2, [r3, #0]
            if (page == page_start) {
 8001662:	2326      	movs	r3, #38	@ 0x26
 8001664:	18fa      	adds	r2, r7, r3
 8001666:	2312      	movs	r3, #18
 8001668:	18fb      	adds	r3, r7, r3
 800166a:	7812      	ldrb	r2, [r2, #0]
 800166c:	781b      	ldrb	r3, [r3, #0]
 800166e:	429a      	cmp	r2, r3
 8001670:	d10d      	bne.n	800168e <st7565_drawline+0xfe>
                mask &= (0xFF >> bit_start);
 8001672:	2310      	movs	r3, #16
 8001674:	18fb      	adds	r3, r7, r3
 8001676:	781b      	ldrb	r3, [r3, #0]
 8001678:	22ff      	movs	r2, #255	@ 0xff
 800167a:	411a      	asrs	r2, r3
 800167c:	0013      	movs	r3, r2
 800167e:	b25b      	sxtb	r3, r3
 8001680:	187a      	adds	r2, r7, r1
 8001682:	7812      	ldrb	r2, [r2, #0]
 8001684:	b252      	sxtb	r2, r2
 8001686:	4013      	ands	r3, r2
 8001688:	b25a      	sxtb	r2, r3
 800168a:	187b      	adds	r3, r7, r1
 800168c:	701a      	strb	r2, [r3, #0]
            }
            if (page == page_end) {
 800168e:	2326      	movs	r3, #38	@ 0x26
 8001690:	18fa      	adds	r2, r7, r3
 8001692:	2311      	movs	r3, #17
 8001694:	18fb      	adds	r3, r7, r3
 8001696:	7812      	ldrb	r2, [r2, #0]
 8001698:	781b      	ldrb	r3, [r3, #0]
 800169a:	429a      	cmp	r2, r3
 800169c:	d110      	bne.n	80016c0 <st7565_drawline+0x130>
                mask &= (0xFF << (7 - bit_end));
 800169e:	230f      	movs	r3, #15
 80016a0:	18fb      	adds	r3, r7, r3
 80016a2:	781b      	ldrb	r3, [r3, #0]
 80016a4:	2207      	movs	r2, #7
 80016a6:	1ad3      	subs	r3, r2, r3
 80016a8:	22ff      	movs	r2, #255	@ 0xff
 80016aa:	409a      	lsls	r2, r3
 80016ac:	0013      	movs	r3, r2
 80016ae:	b25b      	sxtb	r3, r3
 80016b0:	2125      	movs	r1, #37	@ 0x25
 80016b2:	187a      	adds	r2, r7, r1
 80016b4:	7812      	ldrb	r2, [r2, #0]
 80016b6:	b252      	sxtb	r2, r2
 80016b8:	4013      	ands	r3, r2
 80016ba:	b25a      	sxtb	r2, r3
 80016bc:	187b      	adds	r3, r7, r1
 80016be:	701a      	strb	r2, [r3, #0]
            }
            uint16_t idx = x0 + page * 128;
 80016c0:	1cfb      	adds	r3, r7, #3
 80016c2:	781b      	ldrb	r3, [r3, #0]
 80016c4:	b299      	uxth	r1, r3
 80016c6:	2326      	movs	r3, #38	@ 0x26
 80016c8:	18fb      	adds	r3, r7, r3
 80016ca:	781b      	ldrb	r3, [r3, #0]
 80016cc:	b29b      	uxth	r3, r3
 80016ce:	01db      	lsls	r3, r3, #7
 80016d0:	b29a      	uxth	r2, r3
 80016d2:	200c      	movs	r0, #12
 80016d4:	183b      	adds	r3, r7, r0
 80016d6:	188a      	adds	r2, r1, r2
 80016d8:	801a      	strh	r2, [r3, #0]
            if (color)
 80016da:	233c      	movs	r3, #60	@ 0x3c
 80016dc:	2208      	movs	r2, #8
 80016de:	189b      	adds	r3, r3, r2
 80016e0:	19db      	adds	r3, r3, r7
 80016e2:	781b      	ldrb	r3, [r3, #0]
 80016e4:	2b00      	cmp	r3, #0
 80016e6:	d00f      	beq.n	8001708 <st7565_drawline+0x178>
                buff[idx] |= mask;
 80016e8:	183b      	adds	r3, r7, r0
 80016ea:	881b      	ldrh	r3, [r3, #0]
 80016ec:	687a      	ldr	r2, [r7, #4]
 80016ee:	18d3      	adds	r3, r2, r3
 80016f0:	7819      	ldrb	r1, [r3, #0]
 80016f2:	183b      	adds	r3, r7, r0
 80016f4:	881b      	ldrh	r3, [r3, #0]
 80016f6:	687a      	ldr	r2, [r7, #4]
 80016f8:	18d3      	adds	r3, r2, r3
 80016fa:	2225      	movs	r2, #37	@ 0x25
 80016fc:	18ba      	adds	r2, r7, r2
 80016fe:	7812      	ldrb	r2, [r2, #0]
 8001700:	430a      	orrs	r2, r1
 8001702:	b2d2      	uxtb	r2, r2
 8001704:	701a      	strb	r2, [r3, #0]
 8001706:	e014      	b.n	8001732 <st7565_drawline+0x1a2>
            else
                buff[idx] &= ~mask;
 8001708:	200c      	movs	r0, #12
 800170a:	183b      	adds	r3, r7, r0
 800170c:	881b      	ldrh	r3, [r3, #0]
 800170e:	687a      	ldr	r2, [r7, #4]
 8001710:	18d3      	adds	r3, r2, r3
 8001712:	781b      	ldrb	r3, [r3, #0]
 8001714:	b25b      	sxtb	r3, r3
 8001716:	2225      	movs	r2, #37	@ 0x25
 8001718:	18ba      	adds	r2, r7, r2
 800171a:	7812      	ldrb	r2, [r2, #0]
 800171c:	b252      	sxtb	r2, r2
 800171e:	43d2      	mvns	r2, r2
 8001720:	b252      	sxtb	r2, r2
 8001722:	4013      	ands	r3, r2
 8001724:	b259      	sxtb	r1, r3
 8001726:	183b      	adds	r3, r7, r0
 8001728:	881b      	ldrh	r3, [r3, #0]
 800172a:	687a      	ldr	r2, [r7, #4]
 800172c:	18d3      	adds	r3, r2, r3
 800172e:	b2ca      	uxtb	r2, r1
 8001730:	701a      	strb	r2, [r3, #0]
        for (uint8_t page = page_start; page <= page_end; page++) {
 8001732:	2126      	movs	r1, #38	@ 0x26
 8001734:	187b      	adds	r3, r7, r1
 8001736:	781a      	ldrb	r2, [r3, #0]
 8001738:	187b      	adds	r3, r7, r1
 800173a:	3201      	adds	r2, #1
 800173c:	701a      	strb	r2, [r3, #0]
 800173e:	2326      	movs	r3, #38	@ 0x26
 8001740:	18fa      	adds	r2, r7, r3
 8001742:	2311      	movs	r3, #17
 8001744:	18fb      	adds	r3, r7, r3
 8001746:	7812      	ldrb	r2, [r2, #0]
 8001748:	781b      	ldrb	r3, [r3, #0]
 800174a:	429a      	cmp	r2, r3
 800174c:	d985      	bls.n	800165a <st7565_drawline+0xca>
 800174e:	e130      	b.n	80019b2 <st7565_drawline+0x422>
        }
    } else if (y0 == y1) {
 8001750:	1cba      	adds	r2, r7, #2
 8001752:	2338      	movs	r3, #56	@ 0x38
 8001754:	2108      	movs	r1, #8
 8001756:	185b      	adds	r3, r3, r1
 8001758:	19db      	adds	r3, r3, r7
 800175a:	7812      	ldrb	r2, [r2, #0]
 800175c:	781b      	ldrb	r3, [r3, #0]
 800175e:	429a      	cmp	r2, r3
 8001760:	d000      	beq.n	8001764 <st7565_drawline+0x1d4>
 8001762:	e126      	b.n	80019b2 <st7565_drawline+0x422>
        if (y0 >= LCDHEIGHT)
 8001764:	1cbb      	adds	r3, r7, #2
 8001766:	781b      	ldrb	r3, [r3, #0]
 8001768:	2b3f      	cmp	r3, #63	@ 0x3f
 800176a:	d900      	bls.n	800176e <st7565_drawline+0x1de>
 800176c:	e120      	b.n	80019b0 <st7565_drawline+0x420>
            return;
        uint8_t x_start = x0 < x1 ? x0 : x1;
 800176e:	231d      	movs	r3, #29
 8001770:	18fa      	adds	r2, r7, r3
 8001772:	1c7b      	adds	r3, r7, #1
 8001774:	1cf9      	adds	r1, r7, #3
 8001776:	780c      	ldrb	r4, [r1, #0]
 8001778:	781b      	ldrb	r3, [r3, #0]
 800177a:	b2d8      	uxtb	r0, r3
 800177c:	b2e1      	uxtb	r1, r4
 800177e:	4288      	cmp	r0, r1
 8001780:	d900      	bls.n	8001784 <st7565_drawline+0x1f4>
 8001782:	1c23      	adds	r3, r4, #0
 8001784:	7013      	strb	r3, [r2, #0]
        uint8_t x_end = x0 > x1 ? x0 : x1;
 8001786:	2324      	movs	r3, #36	@ 0x24
 8001788:	18fa      	adds	r2, r7, r3
 800178a:	1c7b      	adds	r3, r7, #1
 800178c:	1cf9      	adds	r1, r7, #3
 800178e:	780c      	ldrb	r4, [r1, #0]
 8001790:	781b      	ldrb	r3, [r3, #0]
 8001792:	b2d8      	uxtb	r0, r3
 8001794:	b2e1      	uxtb	r1, r4
 8001796:	4288      	cmp	r0, r1
 8001798:	d200      	bcs.n	800179c <st7565_drawline+0x20c>
 800179a:	1c23      	adds	r3, r4, #0
 800179c:	7013      	strb	r3, [r2, #0]
        if (x_end >= LCDWIDTH)
 800179e:	2224      	movs	r2, #36	@ 0x24
 80017a0:	18bb      	adds	r3, r7, r2
 80017a2:	781b      	ldrb	r3, [r3, #0]
 80017a4:	b25b      	sxtb	r3, r3
 80017a6:	2b00      	cmp	r3, #0
 80017a8:	da02      	bge.n	80017b0 <st7565_drawline+0x220>
            x_end = LCDWIDTH - 1;
 80017aa:	18bb      	adds	r3, r7, r2
 80017ac:	227f      	movs	r2, #127	@ 0x7f
 80017ae:	701a      	strb	r2, [r3, #0]
        uint8_t page = y0 / 8;
 80017b0:	201c      	movs	r0, #28
 80017b2:	183b      	adds	r3, r7, r0
 80017b4:	1cba      	adds	r2, r7, #2
 80017b6:	7812      	ldrb	r2, [r2, #0]
 80017b8:	08d2      	lsrs	r2, r2, #3
 80017ba:	701a      	strb	r2, [r3, #0]
        uint8_t bit = 7 - (y0 % 8);
 80017bc:	1cbb      	adds	r3, r7, #2
 80017be:	781b      	ldrb	r3, [r3, #0]
 80017c0:	43db      	mvns	r3, r3
 80017c2:	b2da      	uxtb	r2, r3
 80017c4:	241b      	movs	r4, #27
 80017c6:	193b      	adds	r3, r7, r4
 80017c8:	2107      	movs	r1, #7
 80017ca:	400a      	ands	r2, r1
 80017cc:	701a      	strb	r2, [r3, #0]
        uint8_t mask = 1 << bit;
 80017ce:	193b      	adds	r3, r7, r4
 80017d0:	781b      	ldrb	r3, [r3, #0]
 80017d2:	2201      	movs	r2, #1
 80017d4:	409a      	lsls	r2, r3
 80017d6:	231a      	movs	r3, #26
 80017d8:	18fb      	adds	r3, r7, r3
 80017da:	701a      	strb	r2, [r3, #0]
        uint16_t idx = x_start + page * 128;
 80017dc:	231d      	movs	r3, #29
 80017de:	18fb      	adds	r3, r7, r3
 80017e0:	781b      	ldrb	r3, [r3, #0]
 80017e2:	b299      	uxth	r1, r3
 80017e4:	183b      	adds	r3, r7, r0
 80017e6:	781b      	ldrb	r3, [r3, #0]
 80017e8:	b29b      	uxth	r3, r3
 80017ea:	01db      	lsls	r3, r3, #7
 80017ec:	b29a      	uxth	r2, r3
 80017ee:	2018      	movs	r0, #24
 80017f0:	183b      	adds	r3, r7, r0
 80017f2:	188a      	adds	r2, r1, r2
 80017f4:	801a      	strh	r2, [r3, #0]
        // 32-bit write optimization
        uint32_t *p32 = (uint32_t *)&buff[idx];
 80017f6:	183b      	adds	r3, r7, r0
 80017f8:	881b      	ldrh	r3, [r3, #0]
 80017fa:	687a      	ldr	r2, [r7, #4]
 80017fc:	18d3      	adds	r3, r2, r3
 80017fe:	623b      	str	r3, [r7, #32]
        uint32_t val = color ? 0xFFFFFFFF : 0x00000000;
 8001800:	233c      	movs	r3, #60	@ 0x3c
 8001802:	2208      	movs	r2, #8
 8001804:	189b      	adds	r3, r3, r2
 8001806:	19db      	adds	r3, r3, r7
 8001808:	781b      	ldrb	r3, [r3, #0]
 800180a:	2b00      	cmp	r3, #0
 800180c:	d002      	beq.n	8001814 <st7565_drawline+0x284>
 800180e:	2301      	movs	r3, #1
 8001810:	425b      	negs	r3, r3
 8001812:	e000      	b.n	8001816 <st7565_drawline+0x286>
 8001814:	2300      	movs	r3, #0
 8001816:	617b      	str	r3, [r7, #20]
        uint8_t rem = (x_end - x_start + 1);
 8001818:	2324      	movs	r3, #36	@ 0x24
 800181a:	18fa      	adds	r2, r7, r3
 800181c:	231d      	movs	r3, #29
 800181e:	18fb      	adds	r3, r7, r3
 8001820:	7812      	ldrb	r2, [r2, #0]
 8001822:	781b      	ldrb	r3, [r3, #0]
 8001824:	1ad3      	subs	r3, r2, r3
 8001826:	b2da      	uxtb	r2, r3
 8001828:	231f      	movs	r3, #31
 800182a:	18fb      	adds	r3, r7, r3
 800182c:	3201      	adds	r2, #1
 800182e:	701a      	strb	r2, [r3, #0]
        while (rem >= 4 && (((uintptr_t)p32 & 0x3) == 0)) {
 8001830:	e030      	b.n	8001894 <st7565_drawline+0x304>
            if (color) *p32 |= (val & (mask * 0x01010101));
 8001832:	233c      	movs	r3, #60	@ 0x3c
 8001834:	2208      	movs	r2, #8
 8001836:	189b      	adds	r3, r3, r2
 8001838:	19db      	adds	r3, r3, r7
 800183a:	781b      	ldrb	r3, [r3, #0]
 800183c:	2b00      	cmp	r3, #0
 800183e:	d011      	beq.n	8001864 <st7565_drawline+0x2d4>
 8001840:	6a3b      	ldr	r3, [r7, #32]
 8001842:	6819      	ldr	r1, [r3, #0]
 8001844:	231a      	movs	r3, #26
 8001846:	18fb      	adds	r3, r7, r3
 8001848:	781a      	ldrb	r2, [r3, #0]
 800184a:	0013      	movs	r3, r2
 800184c:	021b      	lsls	r3, r3, #8
 800184e:	189b      	adds	r3, r3, r2
 8001850:	041a      	lsls	r2, r3, #16
 8001852:	189b      	adds	r3, r3, r2
 8001854:	001a      	movs	r2, r3
 8001856:	697b      	ldr	r3, [r7, #20]
 8001858:	4013      	ands	r3, r2
 800185a:	000a      	movs	r2, r1
 800185c:	431a      	orrs	r2, r3
 800185e:	6a3b      	ldr	r3, [r7, #32]
 8001860:	601a      	str	r2, [r3, #0]
 8001862:	e00e      	b.n	8001882 <st7565_drawline+0x2f2>
            else *p32 &= ~(mask * 0x01010101);
 8001864:	6a3b      	ldr	r3, [r7, #32]
 8001866:	6819      	ldr	r1, [r3, #0]
 8001868:	231a      	movs	r3, #26
 800186a:	18fb      	adds	r3, r7, r3
 800186c:	781a      	ldrb	r2, [r3, #0]
 800186e:	0013      	movs	r3, r2
 8001870:	021b      	lsls	r3, r3, #8
 8001872:	189b      	adds	r3, r3, r2
 8001874:	041a      	lsls	r2, r3, #16
 8001876:	189b      	adds	r3, r3, r2
 8001878:	43db      	mvns	r3, r3
 800187a:	400b      	ands	r3, r1
 800187c:	001a      	movs	r2, r3
 800187e:	6a3b      	ldr	r3, [r7, #32]
 8001880:	601a      	str	r2, [r3, #0]
            p32++;
 8001882:	6a3b      	ldr	r3, [r7, #32]
 8001884:	3304      	adds	r3, #4
 8001886:	623b      	str	r3, [r7, #32]
            rem -= 4;
 8001888:	221f      	movs	r2, #31
 800188a:	18bb      	adds	r3, r7, r2
 800188c:	18ba      	adds	r2, r7, r2
 800188e:	7812      	ldrb	r2, [r2, #0]
 8001890:	3a04      	subs	r2, #4
 8001892:	701a      	strb	r2, [r3, #0]
        while (rem >= 4 && (((uintptr_t)p32 & 0x3) == 0)) {
 8001894:	231f      	movs	r3, #31
 8001896:	18fb      	adds	r3, r7, r3
 8001898:	781b      	ldrb	r3, [r3, #0]
 800189a:	2b03      	cmp	r3, #3
 800189c:	d903      	bls.n	80018a6 <st7565_drawline+0x316>
 800189e:	6a3b      	ldr	r3, [r7, #32]
 80018a0:	2203      	movs	r2, #3
 80018a2:	4013      	ands	r3, r2
 80018a4:	d0c5      	beq.n	8001832 <st7565_drawline+0x2a2>
        }
        idx = (uint8_t *)p32 - &buff[x_start + page * 128];
 80018a6:	231d      	movs	r3, #29
 80018a8:	18fb      	adds	r3, r7, r3
 80018aa:	781a      	ldrb	r2, [r3, #0]
 80018ac:	231c      	movs	r3, #28
 80018ae:	18fb      	adds	r3, r7, r3
 80018b0:	781b      	ldrb	r3, [r3, #0]
 80018b2:	01db      	lsls	r3, r3, #7
 80018b4:	18d3      	adds	r3, r2, r3
 80018b6:	001a      	movs	r2, r3
 80018b8:	687b      	ldr	r3, [r7, #4]
 80018ba:	189b      	adds	r3, r3, r2
 80018bc:	6a3a      	ldr	r2, [r7, #32]
 80018be:	1ad2      	subs	r2, r2, r3
 80018c0:	2318      	movs	r3, #24
 80018c2:	18fb      	adds	r3, r7, r3
 80018c4:	801a      	strh	r2, [r3, #0]
        for (uint8_t i = 0; i < rem; i++) {
 80018c6:	231e      	movs	r3, #30
 80018c8:	18fb      	adds	r3, r7, r3
 80018ca:	2200      	movs	r2, #0
 80018cc:	701a      	strb	r2, [r3, #0]
 80018ce:	e064      	b.n	800199a <st7565_drawline+0x40a>
            if (color) buff[x_start + page * 128 + idx + i] |= mask;
 80018d0:	233c      	movs	r3, #60	@ 0x3c
 80018d2:	2208      	movs	r2, #8
 80018d4:	189b      	adds	r3, r3, r2
 80018d6:	19db      	adds	r3, r3, r7
 80018d8:	781b      	ldrb	r3, [r3, #0]
 80018da:	2b00      	cmp	r3, #0
 80018dc:	d029      	beq.n	8001932 <st7565_drawline+0x3a2>
 80018de:	201d      	movs	r0, #29
 80018e0:	183b      	adds	r3, r7, r0
 80018e2:	781a      	ldrb	r2, [r3, #0]
 80018e4:	241c      	movs	r4, #28
 80018e6:	193b      	adds	r3, r7, r4
 80018e8:	781b      	ldrb	r3, [r3, #0]
 80018ea:	01db      	lsls	r3, r3, #7
 80018ec:	18d2      	adds	r2, r2, r3
 80018ee:	2518      	movs	r5, #24
 80018f0:	197b      	adds	r3, r7, r5
 80018f2:	881b      	ldrh	r3, [r3, #0]
 80018f4:	18d2      	adds	r2, r2, r3
 80018f6:	261e      	movs	r6, #30
 80018f8:	19bb      	adds	r3, r7, r6
 80018fa:	781b      	ldrb	r3, [r3, #0]
 80018fc:	18d3      	adds	r3, r2, r3
 80018fe:	001a      	movs	r2, r3
 8001900:	687b      	ldr	r3, [r7, #4]
 8001902:	189b      	adds	r3, r3, r2
 8001904:	7819      	ldrb	r1, [r3, #0]
 8001906:	183b      	adds	r3, r7, r0
 8001908:	781a      	ldrb	r2, [r3, #0]
 800190a:	193b      	adds	r3, r7, r4
 800190c:	781b      	ldrb	r3, [r3, #0]
 800190e:	01db      	lsls	r3, r3, #7
 8001910:	18d2      	adds	r2, r2, r3
 8001912:	197b      	adds	r3, r7, r5
 8001914:	881b      	ldrh	r3, [r3, #0]
 8001916:	18d2      	adds	r2, r2, r3
 8001918:	19bb      	adds	r3, r7, r6
 800191a:	781b      	ldrb	r3, [r3, #0]
 800191c:	18d3      	adds	r3, r2, r3
 800191e:	001a      	movs	r2, r3
 8001920:	687b      	ldr	r3, [r7, #4]
 8001922:	189b      	adds	r3, r3, r2
 8001924:	221a      	movs	r2, #26
 8001926:	18ba      	adds	r2, r7, r2
 8001928:	7812      	ldrb	r2, [r2, #0]
 800192a:	430a      	orrs	r2, r1
 800192c:	b2d2      	uxtb	r2, r2
 800192e:	701a      	strb	r2, [r3, #0]
 8001930:	e02d      	b.n	800198e <st7565_drawline+0x3fe>
            else buff[x_start + page * 128 + idx + i] &= ~mask;
 8001932:	201d      	movs	r0, #29
 8001934:	183b      	adds	r3, r7, r0
 8001936:	781a      	ldrb	r2, [r3, #0]
 8001938:	241c      	movs	r4, #28
 800193a:	193b      	adds	r3, r7, r4
 800193c:	781b      	ldrb	r3, [r3, #0]
 800193e:	01db      	lsls	r3, r3, #7
 8001940:	18d2      	adds	r2, r2, r3
 8001942:	2518      	movs	r5, #24
 8001944:	197b      	adds	r3, r7, r5
 8001946:	881b      	ldrh	r3, [r3, #0]
 8001948:	18d2      	adds	r2, r2, r3
 800194a:	261e      	movs	r6, #30
 800194c:	19bb      	adds	r3, r7, r6
 800194e:	781b      	ldrb	r3, [r3, #0]
 8001950:	18d3      	adds	r3, r2, r3
 8001952:	001a      	movs	r2, r3
 8001954:	687b      	ldr	r3, [r7, #4]
 8001956:	189b      	adds	r3, r3, r2
 8001958:	781b      	ldrb	r3, [r3, #0]
 800195a:	b25b      	sxtb	r3, r3
 800195c:	221a      	movs	r2, #26
 800195e:	18ba      	adds	r2, r7, r2
 8001960:	7812      	ldrb	r2, [r2, #0]
 8001962:	b252      	sxtb	r2, r2
 8001964:	43d2      	mvns	r2, r2
 8001966:	b252      	sxtb	r2, r2
 8001968:	4013      	ands	r3, r2
 800196a:	b259      	sxtb	r1, r3
 800196c:	183b      	adds	r3, r7, r0
 800196e:	781a      	ldrb	r2, [r3, #0]
 8001970:	193b      	adds	r3, r7, r4
 8001972:	781b      	ldrb	r3, [r3, #0]
 8001974:	01db      	lsls	r3, r3, #7
 8001976:	18d2      	adds	r2, r2, r3
 8001978:	197b      	adds	r3, r7, r5
 800197a:	881b      	ldrh	r3, [r3, #0]
 800197c:	18d2      	adds	r2, r2, r3
 800197e:	19bb      	adds	r3, r7, r6
 8001980:	781b      	ldrb	r3, [r3, #0]
 8001982:	18d3      	adds	r3, r2, r3
 8001984:	001a      	movs	r2, r3
 8001986:	687b      	ldr	r3, [r7, #4]
 8001988:	189b      	adds	r3, r3, r2
 800198a:	b2ca      	uxtb	r2, r1
 800198c:	701a      	strb	r2, [r3, #0]
        for (uint8_t i = 0; i < rem; i++) {
 800198e:	211e      	movs	r1, #30
 8001990:	187b      	adds	r3, r7, r1
 8001992:	781a      	ldrb	r2, [r3, #0]
 8001994:	187b      	adds	r3, r7, r1
 8001996:	3201      	adds	r2, #1
 8001998:	701a      	strb	r2, [r3, #0]
 800199a:	231e      	movs	r3, #30
 800199c:	18fa      	adds	r2, r7, r3
 800199e:	231f      	movs	r3, #31
 80019a0:	18fb      	adds	r3, r7, r3
 80019a2:	7812      	ldrb	r2, [r2, #0]
 80019a4:	781b      	ldrb	r3, [r3, #0]
 80019a6:	429a      	cmp	r2, r3
 80019a8:	d392      	bcc.n	80018d0 <st7565_drawline+0x340>
 80019aa:	e002      	b.n	80019b2 <st7565_drawline+0x422>
            return;
 80019ac:	46c0      	nop			@ (mov r8, r8)
 80019ae:	e000      	b.n	80019b2 <st7565_drawline+0x422>
            return;
 80019b0:	46c0      	nop			@ (mov r8, r8)
        }
    }
}
 80019b2:	46bd      	mov	sp, r7
 80019b4:	b00b      	add	sp, #44	@ 0x2c
 80019b6:	bdf0      	pop	{r4, r5, r6, r7, pc}

080019b8 <interpolation>:
    int16_t x; //input
    int16_t y; //output
} Point;

static int16_t interpolation(int16_t input)
{
 80019b8:	b590      	push	{r4, r7, lr}
 80019ba:	b083      	sub	sp, #12
 80019bc:	af00      	add	r7, sp, #0
 80019be:	0002      	movs	r2, r0
 80019c0:	1dbb      	adds	r3, r7, #6
 80019c2:	801a      	strh	r2, [r3, #0]
        {1180, 100},
        {2400, 200},
        {4000, 330}
    };

    if (input <= pts[0].x) return pts[0].y*input/pts[0].x;
 80019c4:	4b3e      	ldr	r3, [pc, #248]	@ (8001ac0 <interpolation+0x108>)
 80019c6:	2200      	movs	r2, #0
 80019c8:	5e9b      	ldrsh	r3, [r3, r2]
 80019ca:	1dba      	adds	r2, r7, #6
 80019cc:	2100      	movs	r1, #0
 80019ce:	5e52      	ldrsh	r2, [r2, r1]
 80019d0:	429a      	cmp	r2, r3
 80019d2:	dc11      	bgt.n	80019f8 <interpolation+0x40>
 80019d4:	4b3a      	ldr	r3, [pc, #232]	@ (8001ac0 <interpolation+0x108>)
 80019d6:	2202      	movs	r2, #2
 80019d8:	5e9b      	ldrsh	r3, [r3, r2]
 80019da:	001a      	movs	r2, r3
 80019dc:	1dbb      	adds	r3, r7, #6
 80019de:	2100      	movs	r1, #0
 80019e0:	5e5b      	ldrsh	r3, [r3, r1]
 80019e2:	435a      	muls	r2, r3
 80019e4:	4b36      	ldr	r3, [pc, #216]	@ (8001ac0 <interpolation+0x108>)
 80019e6:	2100      	movs	r1, #0
 80019e8:	5e5b      	ldrsh	r3, [r3, r1]
 80019ea:	0019      	movs	r1, r3
 80019ec:	0010      	movs	r0, r2
 80019ee:	f7fe fc13 	bl	8000218 <__divsi3>
 80019f2:	0003      	movs	r3, r0
 80019f4:	b21b      	sxth	r3, r3
 80019f6:	e05e      	b.n	8001ab6 <interpolation+0xfe>
    if (input >= pts[2].x) return pts[2].y;
 80019f8:	4b31      	ldr	r3, [pc, #196]	@ (8001ac0 <interpolation+0x108>)
 80019fa:	2208      	movs	r2, #8
 80019fc:	5e9b      	ldrsh	r3, [r3, r2]
 80019fe:	1dba      	adds	r2, r7, #6
 8001a00:	2100      	movs	r1, #0
 8001a02:	5e52      	ldrsh	r2, [r2, r1]
 8001a04:	429a      	cmp	r2, r3
 8001a06:	db03      	blt.n	8001a10 <interpolation+0x58>
 8001a08:	4b2d      	ldr	r3, [pc, #180]	@ (8001ac0 <interpolation+0x108>)
 8001a0a:	220a      	movs	r2, #10
 8001a0c:	5e9b      	ldrsh	r3, [r3, r2]
 8001a0e:	e052      	b.n	8001ab6 <interpolation+0xfe>
    if (input <= pts[1].x) {
 8001a10:	4b2b      	ldr	r3, [pc, #172]	@ (8001ac0 <interpolation+0x108>)
 8001a12:	2204      	movs	r2, #4
 8001a14:	5e9b      	ldrsh	r3, [r3, r2]
 8001a16:	1dba      	adds	r2, r7, #6
 8001a18:	2100      	movs	r1, #0
 8001a1a:	5e52      	ldrsh	r2, [r2, r1]
 8001a1c:	429a      	cmp	r2, r3
 8001a1e:	dc25      	bgt.n	8001a6c <interpolation+0xb4>
        return pts[0].y +
 8001a20:	4b27      	ldr	r3, [pc, #156]	@ (8001ac0 <interpolation+0x108>)
 8001a22:	2202      	movs	r2, #2
 8001a24:	5e9b      	ldrsh	r3, [r3, r2]
 8001a26:	b29c      	uxth	r4, r3
            (pts[1].y - pts[0].y) * (input - pts[0].x) / (pts[1].x - pts[0].x);
 8001a28:	4b25      	ldr	r3, [pc, #148]	@ (8001ac0 <interpolation+0x108>)
 8001a2a:	2206      	movs	r2, #6
 8001a2c:	5e9b      	ldrsh	r3, [r3, r2]
 8001a2e:	001a      	movs	r2, r3
 8001a30:	4b23      	ldr	r3, [pc, #140]	@ (8001ac0 <interpolation+0x108>)
 8001a32:	2102      	movs	r1, #2
 8001a34:	5e5b      	ldrsh	r3, [r3, r1]
 8001a36:	1ad3      	subs	r3, r2, r3
 8001a38:	1dba      	adds	r2, r7, #6
 8001a3a:	2100      	movs	r1, #0
 8001a3c:	5e52      	ldrsh	r2, [r2, r1]
 8001a3e:	4920      	ldr	r1, [pc, #128]	@ (8001ac0 <interpolation+0x108>)
 8001a40:	2000      	movs	r0, #0
 8001a42:	5e09      	ldrsh	r1, [r1, r0]
 8001a44:	1a52      	subs	r2, r2, r1
 8001a46:	435a      	muls	r2, r3
 8001a48:	4b1d      	ldr	r3, [pc, #116]	@ (8001ac0 <interpolation+0x108>)
 8001a4a:	2104      	movs	r1, #4
 8001a4c:	5e5b      	ldrsh	r3, [r3, r1]
 8001a4e:	0019      	movs	r1, r3
 8001a50:	4b1b      	ldr	r3, [pc, #108]	@ (8001ac0 <interpolation+0x108>)
 8001a52:	2000      	movs	r0, #0
 8001a54:	5e1b      	ldrsh	r3, [r3, r0]
 8001a56:	1acb      	subs	r3, r1, r3
 8001a58:	0019      	movs	r1, r3
 8001a5a:	0010      	movs	r0, r2
 8001a5c:	f7fe fbdc 	bl	8000218 <__divsi3>
 8001a60:	0003      	movs	r3, r0
        return pts[0].y +
 8001a62:	b29b      	uxth	r3, r3
 8001a64:	18e3      	adds	r3, r4, r3
 8001a66:	b29b      	uxth	r3, r3
 8001a68:	b21b      	sxth	r3, r3
 8001a6a:	e024      	b.n	8001ab6 <interpolation+0xfe>
    } else {

        return pts[1].y +
 8001a6c:	4b14      	ldr	r3, [pc, #80]	@ (8001ac0 <interpolation+0x108>)
 8001a6e:	2206      	movs	r2, #6
 8001a70:	5e9b      	ldrsh	r3, [r3, r2]
 8001a72:	b29c      	uxth	r4, r3
            (pts[2].y - pts[1].y) * (input - pts[1].x) / (pts[2].x - pts[1].x);
 8001a74:	4b12      	ldr	r3, [pc, #72]	@ (8001ac0 <interpolation+0x108>)
 8001a76:	220a      	movs	r2, #10
 8001a78:	5e9b      	ldrsh	r3, [r3, r2]
 8001a7a:	001a      	movs	r2, r3
 8001a7c:	4b10      	ldr	r3, [pc, #64]	@ (8001ac0 <interpolation+0x108>)
 8001a7e:	2106      	movs	r1, #6
 8001a80:	5e5b      	ldrsh	r3, [r3, r1]
 8001a82:	1ad3      	subs	r3, r2, r3
 8001a84:	1dba      	adds	r2, r7, #6
 8001a86:	2100      	movs	r1, #0
 8001a88:	5e52      	ldrsh	r2, [r2, r1]
 8001a8a:	490d      	ldr	r1, [pc, #52]	@ (8001ac0 <interpolation+0x108>)
 8001a8c:	2004      	movs	r0, #4
 8001a8e:	5e09      	ldrsh	r1, [r1, r0]
 8001a90:	1a52      	subs	r2, r2, r1
 8001a92:	435a      	muls	r2, r3
 8001a94:	4b0a      	ldr	r3, [pc, #40]	@ (8001ac0 <interpolation+0x108>)
 8001a96:	2108      	movs	r1, #8
 8001a98:	5e5b      	ldrsh	r3, [r3, r1]
 8001a9a:	0019      	movs	r1, r3
 8001a9c:	4b08      	ldr	r3, [pc, #32]	@ (8001ac0 <interpolation+0x108>)
 8001a9e:	2004      	movs	r0, #4
 8001aa0:	5e1b      	ldrsh	r3, [r3, r0]
 8001aa2:	1acb      	subs	r3, r1, r3
 8001aa4:	0019      	movs	r1, r3
 8001aa6:	0010      	movs	r0, r2
 8001aa8:	f7fe fbb6 	bl	8000218 <__divsi3>
 8001aac:	0003      	movs	r3, r0
        return pts[1].y +
 8001aae:	b29b      	uxth	r3, r3
 8001ab0:	18e3      	adds	r3, r4, r3
 8001ab2:	b29b      	uxth	r3, r3
 8001ab4:	b21b      	sxth	r3, r3
    }
}
 8001ab6:	0018      	movs	r0, r3
 8001ab8:	46bd      	mov	sp, r7
 8001aba:	b003      	add	sp, #12
 8001abc:	bd90      	pop	{r4, r7, pc}
 8001abe:	46c0      	nop			@ (mov r8, r8)
 8001ac0:	080067a4 	.word	0x080067a4

08001ac4 <filterButton>:
 */
#include <stdint.h>

static uint16_t MAVectorButton[4];

static uint16_t filterButton(uint16_t voltIn){
 8001ac4:	b580      	push	{r7, lr}
 8001ac6:	b084      	sub	sp, #16
 8001ac8:	af00      	add	r7, sp, #0
 8001aca:	0002      	movs	r2, r0
 8001acc:	1dbb      	adds	r3, r7, #6
 8001ace:	801a      	strh	r2, [r3, #0]
	uint16_t media=voltIn;
 8001ad0:	230e      	movs	r3, #14
 8001ad2:	18fb      	adds	r3, r7, r3
 8001ad4:	1dba      	adds	r2, r7, #6
 8001ad6:	8812      	ldrh	r2, [r2, #0]
 8001ad8:	801a      	strh	r2, [r3, #0]
	for(uint8_t i=0;i<3;i++){
 8001ada:	230d      	movs	r3, #13
 8001adc:	18fb      	adds	r3, r7, r3
 8001ade:	2200      	movs	r2, #0
 8001ae0:	701a      	strb	r2, [r3, #0]
 8001ae2:	e01c      	b.n	8001b1e <filterButton+0x5a>
		media+=MAVectorButton[i+1];
 8001ae4:	200d      	movs	r0, #13
 8001ae6:	183b      	adds	r3, r7, r0
 8001ae8:	781b      	ldrb	r3, [r3, #0]
 8001aea:	1c5a      	adds	r2, r3, #1
 8001aec:	4b16      	ldr	r3, [pc, #88]	@ (8001b48 <filterButton+0x84>)
 8001aee:	0052      	lsls	r2, r2, #1
 8001af0:	5ad1      	ldrh	r1, [r2, r3]
 8001af2:	220e      	movs	r2, #14
 8001af4:	18bb      	adds	r3, r7, r2
 8001af6:	18ba      	adds	r2, r7, r2
 8001af8:	8812      	ldrh	r2, [r2, #0]
 8001afa:	188a      	adds	r2, r1, r2
 8001afc:	801a      	strh	r2, [r3, #0]
		MAVectorButton[i]=MAVectorButton[i+1];
 8001afe:	183b      	adds	r3, r7, r0
 8001b00:	781b      	ldrb	r3, [r3, #0]
 8001b02:	1c59      	adds	r1, r3, #1
 8001b04:	183b      	adds	r3, r7, r0
 8001b06:	781a      	ldrb	r2, [r3, #0]
 8001b08:	4b0f      	ldr	r3, [pc, #60]	@ (8001b48 <filterButton+0x84>)
 8001b0a:	0049      	lsls	r1, r1, #1
 8001b0c:	5ac9      	ldrh	r1, [r1, r3]
 8001b0e:	4b0e      	ldr	r3, [pc, #56]	@ (8001b48 <filterButton+0x84>)
 8001b10:	0052      	lsls	r2, r2, #1
 8001b12:	52d1      	strh	r1, [r2, r3]
	for(uint8_t i=0;i<3;i++){
 8001b14:	183b      	adds	r3, r7, r0
 8001b16:	781a      	ldrb	r2, [r3, #0]
 8001b18:	183b      	adds	r3, r7, r0
 8001b1a:	3201      	adds	r2, #1
 8001b1c:	701a      	strb	r2, [r3, #0]
 8001b1e:	230d      	movs	r3, #13
 8001b20:	18fb      	adds	r3, r7, r3
 8001b22:	781b      	ldrb	r3, [r3, #0]
 8001b24:	2b02      	cmp	r3, #2
 8001b26:	d9dd      	bls.n	8001ae4 <filterButton+0x20>
	}
	MAVectorButton[3]=voltIn;
 8001b28:	4b07      	ldr	r3, [pc, #28]	@ (8001b48 <filterButton+0x84>)
 8001b2a:	1dba      	adds	r2, r7, #6
 8001b2c:	8812      	ldrh	r2, [r2, #0]
 8001b2e:	80da      	strh	r2, [r3, #6]
	media/=4;
 8001b30:	210e      	movs	r1, #14
 8001b32:	187b      	adds	r3, r7, r1
 8001b34:	187a      	adds	r2, r7, r1
 8001b36:	8812      	ldrh	r2, [r2, #0]
 8001b38:	0892      	lsrs	r2, r2, #2
 8001b3a:	801a      	strh	r2, [r3, #0]

	//if(media>)
	return media;
 8001b3c:	187b      	adds	r3, r7, r1
 8001b3e:	881b      	ldrh	r3, [r3, #0]
}
 8001b40:	0018      	movs	r0, r3
 8001b42:	46bd      	mov	sp, r7
 8001b44:	b004      	add	sp, #16
 8001b46:	bd80      	pop	{r7, pc}
 8001b48:	20000a00 	.word	0x20000a00

08001b4c <filterVolt>:
 */
#include <stdint.h>

static uint16_t MAVectorVolt[10];

static uint16_t filterVolt(uint16_t voltIn){
 8001b4c:	b5b0      	push	{r4, r5, r7, lr}
 8001b4e:	b084      	sub	sp, #16
 8001b50:	af00      	add	r7, sp, #0
 8001b52:	0002      	movs	r2, r0
 8001b54:	1dbb      	adds	r3, r7, #6
 8001b56:	801a      	strh	r2, [r3, #0]
	uint16_t media=voltIn;
 8001b58:	230e      	movs	r3, #14
 8001b5a:	18fb      	adds	r3, r7, r3
 8001b5c:	1dba      	adds	r2, r7, #6
 8001b5e:	8812      	ldrh	r2, [r2, #0]
 8001b60:	801a      	strh	r2, [r3, #0]
	for(uint8_t i=0;i<9;i++){
 8001b62:	230d      	movs	r3, #13
 8001b64:	18fb      	adds	r3, r7, r3
 8001b66:	2200      	movs	r2, #0
 8001b68:	701a      	strb	r2, [r3, #0]
 8001b6a:	e01c      	b.n	8001ba6 <filterVolt+0x5a>
		media+=MAVectorVolt[i+1];
 8001b6c:	200d      	movs	r0, #13
 8001b6e:	183b      	adds	r3, r7, r0
 8001b70:	781b      	ldrb	r3, [r3, #0]
 8001b72:	1c5a      	adds	r2, r3, #1
 8001b74:	4b18      	ldr	r3, [pc, #96]	@ (8001bd8 <filterVolt+0x8c>)
 8001b76:	0052      	lsls	r2, r2, #1
 8001b78:	5ad1      	ldrh	r1, [r2, r3]
 8001b7a:	220e      	movs	r2, #14
 8001b7c:	18bb      	adds	r3, r7, r2
 8001b7e:	18ba      	adds	r2, r7, r2
 8001b80:	8812      	ldrh	r2, [r2, #0]
 8001b82:	188a      	adds	r2, r1, r2
 8001b84:	801a      	strh	r2, [r3, #0]
		MAVectorVolt[i]=MAVectorVolt[i+1];
 8001b86:	183b      	adds	r3, r7, r0
 8001b88:	781b      	ldrb	r3, [r3, #0]
 8001b8a:	1c59      	adds	r1, r3, #1
 8001b8c:	183b      	adds	r3, r7, r0
 8001b8e:	781a      	ldrb	r2, [r3, #0]
 8001b90:	4b11      	ldr	r3, [pc, #68]	@ (8001bd8 <filterVolt+0x8c>)
 8001b92:	0049      	lsls	r1, r1, #1
 8001b94:	5ac9      	ldrh	r1, [r1, r3]
 8001b96:	4b10      	ldr	r3, [pc, #64]	@ (8001bd8 <filterVolt+0x8c>)
 8001b98:	0052      	lsls	r2, r2, #1
 8001b9a:	52d1      	strh	r1, [r2, r3]
	for(uint8_t i=0;i<9;i++){
 8001b9c:	183b      	adds	r3, r7, r0
 8001b9e:	781a      	ldrb	r2, [r3, #0]
 8001ba0:	183b      	adds	r3, r7, r0
 8001ba2:	3201      	adds	r2, #1
 8001ba4:	701a      	strb	r2, [r3, #0]
 8001ba6:	230d      	movs	r3, #13
 8001ba8:	18fb      	adds	r3, r7, r3
 8001baa:	781b      	ldrb	r3, [r3, #0]
 8001bac:	2b08      	cmp	r3, #8
 8001bae:	d9dd      	bls.n	8001b6c <filterVolt+0x20>
	}
	MAVectorVolt[9]=voltIn;
 8001bb0:	4b09      	ldr	r3, [pc, #36]	@ (8001bd8 <filterVolt+0x8c>)
 8001bb2:	1dba      	adds	r2, r7, #6
 8001bb4:	8812      	ldrh	r2, [r2, #0]
 8001bb6:	825a      	strh	r2, [r3, #18]
	media/=10;
 8001bb8:	250e      	movs	r5, #14
 8001bba:	197c      	adds	r4, r7, r5
 8001bbc:	197b      	adds	r3, r7, r5
 8001bbe:	881b      	ldrh	r3, [r3, #0]
 8001bc0:	210a      	movs	r1, #10
 8001bc2:	0018      	movs	r0, r3
 8001bc4:	f7fe fa9e 	bl	8000104 <__udivsi3>
 8001bc8:	0003      	movs	r3, r0
 8001bca:	8023      	strh	r3, [r4, #0]
	return media;
 8001bcc:	197b      	adds	r3, r7, r5
 8001bce:	881b      	ldrh	r3, [r3, #0]
}
 8001bd0:	0018      	movs	r0, r3
 8001bd2:	46bd      	mov	sp, r7
 8001bd4:	b004      	add	sp, #16
 8001bd6:	bdb0      	pop	{r4, r5, r7, pc}
 8001bd8:	20000a08 	.word	0x20000a08

08001bdc <main>:

/**
 * @brief  The application entry point.
 * @retval int
 */
int main(void) {
 8001bdc:	b5b0      	push	{r4, r5, r7, lr}
 8001bde:	b08e      	sub	sp, #56	@ 0x38
 8001be0:	af00      	add	r7, sp, #0
	/* USER CODE END 1 */

	/* MCU Configuration--------------------------------------------------------*/

	/* Reset of all peripherals, Initializes the Flash interface and the Systick. */
	HAL_Init();
 8001be2:	f001 faab 	bl	800313c <HAL_Init>
	/* USER CODE BEGIN Init */

	/* USER CODE END Init */

	/* Configure the system clock */
	SystemClock_Config();
 8001be6:	f000 f84d 	bl	8001c84 <SystemClock_Config>
	/* USER CODE BEGIN SysInit */

	/* USER CODE END SysInit */

	/* Initialize all configured peripherals */
	MX_GPIO_Init();
 8001bea:	f7fe fd35 	bl	8000658 <MX_GPIO_Init>
	MX_DMA_Init();
 8001bee:	f7fe fd15 	bl	800061c <MX_DMA_Init>
	MX_ADC_Init();
 8001bf2:	f7fe fc27 	bl	8000444 <MX_ADC_Init>
	MX_SPI1_Init();
 8001bf6:	f7fe fdf3 	bl	80007e0 <MX_SPI1_Init>
	MX_TIM2_Init();
 8001bfa:	f7fe fecb 	bl	8000994 <MX_TIM2_Init>
	MX_TIM3_Init();
 8001bfe:	f7fe ff1d 	bl	8000a3c <MX_TIM3_Init>

	/* USER CODE BEGIN 2 */
	HAL_TIM_Base_Start(&htim2);
 8001c02:	4b18      	ldr	r3, [pc, #96]	@ (8001c64 <main+0x88>)
 8001c04:	0018      	movs	r0, r3
 8001c06:	f003 fceb 	bl	80055e0 <HAL_TIM_Base_Start>
	HAL_TIM_Base_Start(&htim3);
 8001c0a:	4b17      	ldr	r3, [pc, #92]	@ (8001c68 <main+0x8c>)
 8001c0c:	0018      	movs	r0, r3
 8001c0e:	f003 fce7 	bl	80055e0 <HAL_TIM_Base_Start>
	HAL_ADC_Start_DMA(&hadc, (uint32_t*) adc_buffer, ADC_BUFFER_SIZE);
 8001c12:	2380      	movs	r3, #128	@ 0x80
 8001c14:	005a      	lsls	r2, r3, #1
 8001c16:	4915      	ldr	r1, [pc, #84]	@ (8001c6c <main+0x90>)
 8001c18:	4b15      	ldr	r3, [pc, #84]	@ (8001c70 <main+0x94>)
 8001c1a:	0018      	movs	r0, r3
 8001c1c:	f001 fc56 	bl	80034cc <HAL_ADC_Start_DMA>
	// Set TIM3 to current frequency mode
	update_tim3_frequency(currentFreqMode);
 8001c20:	4b14      	ldr	r3, [pc, #80]	@ (8001c74 <main+0x98>)
 8001c22:	781b      	ldrb	r3, [r3, #0]
 8001c24:	0018      	movs	r0, r3
 8001c26:	f7fe ff8f 	bl	8000b48 <update_tim3_frequency>
	/* USER CODE END 2 */

	uint8_t nrTasks = 4; //Numar taskuri
 8001c2a:	2537      	movs	r5, #55	@ 0x37
 8001c2c:	197b      	adds	r3, r7, r5
 8001c2e:	2204      	movs	r2, #4
 8001c30:	701a      	strb	r2, [r3, #0]
	SimpleTask tasks[] = { { "readAdcVoltFunction", readAdcVoltFunction, 100 },
 8001c32:	003b      	movs	r3, r7
 8001c34:	4a10      	ldr	r2, [pc, #64]	@ (8001c78 <main+0x9c>)
 8001c36:	ca13      	ldmia	r2!, {r0, r1, r4}
 8001c38:	c313      	stmia	r3!, {r0, r1, r4}
 8001c3a:	ca13      	ldmia	r2!, {r0, r1, r4}
 8001c3c:	c313      	stmia	r3!, {r0, r1, r4}
 8001c3e:	ca13      	ldmia	r2!, {r0, r1, r4}
 8001c40:	c313      	stmia	r3!, {r0, r1, r4}
 8001c42:	ca13      	ldmia	r2!, {r0, r1, r4}
 8001c44:	c313      	stmia	r3!, {r0, r1, r4}
			{ "displayVoltReadFunction", displayVoltReadFunction, 1570 }, {
					"readButtonFunction", readButtonFunction, 100 }, {
					"oscilloscopeTriggerFunction", oscilloscopeTriggerFunction,
					100 } }; //timpul total pana vom intra din nou intr-o functie, ex readAdcVoltFunction, e suma tuturor us a tuturor taskurilor.

	uint32_t initTaskMaxTime = 1570 * 1000; //timp alocat task-ului de init OS(dupa initializarea OS-ului in sine). In us.
 8001c46:	4b0d      	ldr	r3, [pc, #52]	@ (8001c7c <main+0xa0>)
 8001c48:	633b      	str	r3, [r7, #48]	@ 0x30
	OS_Init(tasks, nrTasks, init_task, initTaskMaxTime);
 8001c4a:	6b3c      	ldr	r4, [r7, #48]	@ 0x30
 8001c4c:	4a0c      	ldr	r2, [pc, #48]	@ (8001c80 <main+0xa4>)
 8001c4e:	197b      	adds	r3, r7, r5
 8001c50:	7819      	ldrb	r1, [r3, #0]
 8001c52:	0038      	movs	r0, r7
 8001c54:	0023      	movs	r3, r4
 8001c56:	f001 f9b9 	bl	8002fcc <OS_Init>
	OS_Run();
 8001c5a:	f001 f9db 	bl	8003014 <OS_Run>

	/* We should never get here as control is now taken by the scheduler */

	/* Infinite loop */
	/* USER CODE BEGIN WHILE */
	while (1) {
 8001c5e:	46c0      	nop			@ (mov r8, r8)
 8001c60:	e7fd      	b.n	8001c5e <main+0x82>
 8001c62:	46c0      	nop			@ (mov r8, r8)
 8001c64:	20000528 	.word	0x20000528
 8001c68:	20000570 	.word	0x20000570
 8001c6c:	200005fc 	.word	0x200005fc
 8001c70:	20000440 	.word	0x20000440
 8001c74:	20000004 	.word	0x20000004
 8001c78:	08005ca8 	.word	0x08005ca8
 8001c7c:	0017f4d0 	.word	0x0017f4d0
 8001c80:	08001d55 	.word	0x08001d55

08001c84 <SystemClock_Config>:

/**
 * @brief System Clock Configuration
 * @retval None
 */
void SystemClock_Config(void) {
 8001c84:	b590      	push	{r4, r7, lr}
 8001c86:	b099      	sub	sp, #100	@ 0x64
 8001c88:	af00      	add	r7, sp, #0
	RCC_OscInitTypeDef RCC_OscInitStruct = { 0 };
 8001c8a:	242c      	movs	r4, #44	@ 0x2c
 8001c8c:	193b      	adds	r3, r7, r4
 8001c8e:	0018      	movs	r0, r3
 8001c90:	2334      	movs	r3, #52	@ 0x34
 8001c92:	001a      	movs	r2, r3
 8001c94:	2100      	movs	r1, #0
 8001c96:	f003 ff97 	bl	8005bc8 <memset>
	RCC_ClkInitTypeDef RCC_ClkInitStruct = { 0 };
 8001c9a:	231c      	movs	r3, #28
 8001c9c:	18fb      	adds	r3, r7, r3
 8001c9e:	0018      	movs	r0, r3
 8001ca0:	2310      	movs	r3, #16
 8001ca2:	001a      	movs	r2, r3
 8001ca4:	2100      	movs	r1, #0
 8001ca6:	f003 ff8f 	bl	8005bc8 <memset>
	RCC_PeriphCLKInitTypeDef PeriphClkInit = { 0 };
 8001caa:	003b      	movs	r3, r7
 8001cac:	0018      	movs	r0, r3
 8001cae:	231c      	movs	r3, #28
 8001cb0:	001a      	movs	r2, r3
 8001cb2:	2100      	movs	r1, #0
 8001cb4:	f003 ff88 	bl	8005bc8 <memset>

	/** Initializes the RCC Oscillators according to the specified parameters
	 * in the RCC_OscInitTypeDef structure.
	 */
	RCC_OscInitStruct.OscillatorType = RCC_OSCILLATORTYPE_HSI
 8001cb8:	0021      	movs	r1, r4
 8001cba:	187b      	adds	r3, r7, r1
 8001cbc:	2212      	movs	r2, #18
 8001cbe:	601a      	str	r2, [r3, #0]
			| RCC_OSCILLATORTYPE_HSI14;
	RCC_OscInitStruct.HSIState = RCC_HSI_ON;
 8001cc0:	187b      	adds	r3, r7, r1
 8001cc2:	2201      	movs	r2, #1
 8001cc4:	60da      	str	r2, [r3, #12]
	RCC_OscInitStruct.HSI14State = RCC_HSI14_ON;
 8001cc6:	187b      	adds	r3, r7, r1
 8001cc8:	2201      	movs	r2, #1
 8001cca:	615a      	str	r2, [r3, #20]
	RCC_OscInitStruct.HSICalibrationValue = RCC_HSICALIBRATION_DEFAULT;
 8001ccc:	187b      	adds	r3, r7, r1
 8001cce:	2210      	movs	r2, #16
 8001cd0:	611a      	str	r2, [r3, #16]
	RCC_OscInitStruct.HSI14CalibrationValue = 16;
 8001cd2:	187b      	adds	r3, r7, r1
 8001cd4:	2210      	movs	r2, #16
 8001cd6:	619a      	str	r2, [r3, #24]
	RCC_OscInitStruct.PLL.PLLState = RCC_PLL_ON;
 8001cd8:	187b      	adds	r3, r7, r1
 8001cda:	2202      	movs	r2, #2
 8001cdc:	625a      	str	r2, [r3, #36]	@ 0x24
	RCC_OscInitStruct.PLL.PLLSource = RCC_PLLSOURCE_HSI;
 8001cde:	187b      	adds	r3, r7, r1
 8001ce0:	2280      	movs	r2, #128	@ 0x80
 8001ce2:	0212      	lsls	r2, r2, #8
 8001ce4:	629a      	str	r2, [r3, #40]	@ 0x28
	RCC_OscInitStruct.PLL.PLLMUL = RCC_PLL_MUL12;
 8001ce6:	187b      	adds	r3, r7, r1
 8001ce8:	22a0      	movs	r2, #160	@ 0xa0
 8001cea:	0392      	lsls	r2, r2, #14
 8001cec:	62da      	str	r2, [r3, #44]	@ 0x2c
	RCC_OscInitStruct.PLL.PREDIV = RCC_PREDIV_DIV2;
 8001cee:	187b      	adds	r3, r7, r1
 8001cf0:	2201      	movs	r2, #1
 8001cf2:	631a      	str	r2, [r3, #48]	@ 0x30
	if (HAL_RCC_OscConfig(&RCC_OscInitStruct) != HAL_OK) {
 8001cf4:	187b      	adds	r3, r7, r1
 8001cf6:	0018      	movs	r0, r3
 8001cf8:	f002 fac2 	bl	8004280 <HAL_RCC_OscConfig>
 8001cfc:	1e03      	subs	r3, r0, #0
 8001cfe:	d001      	beq.n	8001d04 <SystemClock_Config+0x80>
		Error_Handler();
 8001d00:	f001 f95e 	bl	8002fc0 <Error_Handler>
	}

	/** Initializes the CPU, AHB and APB buses clocks
	 */
	RCC_ClkInitStruct.ClockType = RCC_CLOCKTYPE_HCLK | RCC_CLOCKTYPE_SYSCLK
 8001d04:	211c      	movs	r1, #28
 8001d06:	187b      	adds	r3, r7, r1
 8001d08:	2207      	movs	r2, #7
 8001d0a:	601a      	str	r2, [r3, #0]
			| RCC_CLOCKTYPE_PCLK1;
	RCC_ClkInitStruct.SYSCLKSource = RCC_SYSCLKSOURCE_PLLCLK;
 8001d0c:	187b      	adds	r3, r7, r1
 8001d0e:	2202      	movs	r2, #2
 8001d10:	605a      	str	r2, [r3, #4]
	RCC_ClkInitStruct.AHBCLKDivider = RCC_SYSCLK_DIV1;
 8001d12:	187b      	adds	r3, r7, r1
 8001d14:	2200      	movs	r2, #0
 8001d16:	609a      	str	r2, [r3, #8]
	RCC_ClkInitStruct.APB1CLKDivider = RCC_HCLK_DIV1;
 8001d18:	187b      	adds	r3, r7, r1
 8001d1a:	2200      	movs	r2, #0
 8001d1c:	60da      	str	r2, [r3, #12]

	if (HAL_RCC_ClockConfig(&RCC_ClkInitStruct, FLASH_LATENCY_1) != HAL_OK) {
 8001d1e:	187b      	adds	r3, r7, r1
 8001d20:	2101      	movs	r1, #1
 8001d22:	0018      	movs	r0, r3
 8001d24:	f002 fe32 	bl	800498c <HAL_RCC_ClockConfig>
 8001d28:	1e03      	subs	r3, r0, #0
 8001d2a:	d001      	beq.n	8001d30 <SystemClock_Config+0xac>
		Error_Handler();
 8001d2c:	f001 f948 	bl	8002fc0 <Error_Handler>
	}
	PeriphClkInit.PeriphClockSelection = RCC_PERIPHCLK_USART2;
 8001d30:	003b      	movs	r3, r7
 8001d32:	2202      	movs	r2, #2
 8001d34:	601a      	str	r2, [r3, #0]
	PeriphClkInit.Usart2ClockSelection = RCC_USART2CLKSOURCE_PCLK1;
 8001d36:	003b      	movs	r3, r7
 8001d38:	2200      	movs	r2, #0
 8001d3a:	60da      	str	r2, [r3, #12]
	if (HAL_RCCEx_PeriphCLKConfig(&PeriphClkInit) != HAL_OK) {
 8001d3c:	003b      	movs	r3, r7
 8001d3e:	0018      	movs	r0, r3
 8001d40:	f002 ff70 	bl	8004c24 <HAL_RCCEx_PeriphCLKConfig>
 8001d44:	1e03      	subs	r3, r0, #0
 8001d46:	d001      	beq.n	8001d4c <SystemClock_Config+0xc8>
		Error_Handler();
 8001d48:	f001 f93a 	bl	8002fc0 <Error_Handler>
	}
}
 8001d4c:	46c0      	nop			@ (mov r8, r8)
 8001d4e:	46bd      	mov	sp, r7
 8001d50:	b019      	add	sp, #100	@ 0x64
 8001d52:	bd90      	pop	{r4, r7, pc}

08001d54 <init_task>:

/* USER CODE BEGIN 4 */
// Facem OS custom aici, avem un init task dupa care vin celalalte.
void init_task(void) {
 8001d54:	b5b0      	push	{r4, r5, r7, lr}
 8001d56:	b08a      	sub	sp, #40	@ 0x28
 8001d58:	af02      	add	r7, sp, #8
	test = 42;
 8001d5a:	4bb0      	ldr	r3, [pc, #704]	@ (800201c <init_task+0x2c8>)
 8001d5c:	222a      	movs	r2, #42	@ 0x2a
 8001d5e:	701a      	strb	r2, [r3, #0]
	st7565_init();
 8001d60:	f7fe ffaa 	bl	8000cb8 <st7565_init>
	st7565_backlight_enable();
 8001d64:	f7ff f856 	bl	8000e14 <st7565_backlight_enable>
	st7565_clear_screen();
 8001d68:	f7ff f886 	bl	8000e78 <st7565_clear_screen>
	st7565_set_brightness(0);
 8001d6c:	2000      	movs	r0, #0
 8001d6e:	f7ff f85f 	bl	8000e30 <st7565_set_brightness>
	//st7565_write_buffer(buffer); // This will show the pre-filled logo
	//osDelay(1000);

	//st7565_fade_in(10);

	st7565_clear_buffer(buffer);
 8001d72:	4bab      	ldr	r3, [pc, #684]	@ (8002020 <init_task+0x2cc>)
 8001d74:	0018      	movs	r0, r3
 8001d76:	f7ff f8db 	bl	8000f30 <st7565_clear_buffer>

	//Animatie jmekera de startup

	uint8_t spacingx = 126 / 10; //Cat de distantate sunt liniile in animatie x
 8001d7a:	230b      	movs	r3, #11
 8001d7c:	18fb      	adds	r3, r7, r3
 8001d7e:	220c      	movs	r2, #12
 8001d80:	701a      	strb	r2, [r3, #0]
	uint8_t spacingy = 63 / 6;
 8001d82:	230a      	movs	r3, #10
 8001d84:	18fb      	adds	r3, r7, r3
 8001d86:	220a      	movs	r2, #10
 8001d88:	701a      	strb	r2, [r3, #0]
	for (uint16_t i = 0; i <= 63; i += 2) { //i,j stanga sus->centru
 8001d8a:	231e      	movs	r3, #30
 8001d8c:	18fb      	adds	r3, r7, r3
 8001d8e:	2200      	movs	r2, #0
 8001d90:	801a      	strh	r2, [r3, #0]
 8001d92:	e0ab      	b.n	8001eec <init_task+0x198>
		//spacing=5+i/10;
		if (i % 4 == 0)
 8001d94:	211e      	movs	r1, #30
 8001d96:	187b      	adds	r3, r7, r1
 8001d98:	881b      	ldrh	r3, [r3, #0]
 8001d9a:	2203      	movs	r2, #3
 8001d9c:	4013      	ands	r3, r2
 8001d9e:	b29b      	uxth	r3, r3
 8001da0:	2b00      	cmp	r3, #0
 8001da2:	d107      	bne.n	8001db4 <init_task+0x60>
			st7565_set_brightness(i / 4);
 8001da4:	187b      	adds	r3, r7, r1
 8001da6:	881b      	ldrh	r3, [r3, #0]
 8001da8:	089b      	lsrs	r3, r3, #2
 8001daa:	b29b      	uxth	r3, r3
 8001dac:	b2db      	uxtb	r3, r3
 8001dae:	0018      	movs	r0, r3
 8001db0:	f7ff f83e 	bl	8000e30 <st7565_set_brightness>
		uint16_t j = i / 2;
 8001db4:	1dbb      	adds	r3, r7, #6
 8001db6:	221e      	movs	r2, #30
 8001db8:	18ba      	adds	r2, r7, r2
 8001dba:	8812      	ldrh	r2, [r2, #0]
 8001dbc:	0852      	lsrs	r2, r2, #1
 8001dbe:	801a      	strh	r2, [r3, #0]
		st7565_clear_buffer(buffer);
 8001dc0:	4b97      	ldr	r3, [pc, #604]	@ (8002020 <init_task+0x2cc>)
 8001dc2:	0018      	movs	r0, r3
 8001dc4:	f7ff f8b4 	bl	8000f30 <st7565_clear_buffer>
		//Linie de la i,j la marginea dreapta
		for (uint16_t j2 = 0; j2 <= 63; j2 += spacingy) {
 8001dc8:	231c      	movs	r3, #28
 8001dca:	18fb      	adds	r3, r7, r3
 8001dcc:	2200      	movs	r2, #0
 8001dce:	801a      	strh	r2, [r3, #0]
 8001dd0:	e017      	b.n	8001e02 <init_task+0xae>
			st7565_drawline_complex(buffer, i, j, 126, j2, 1);
 8001dd2:	231e      	movs	r3, #30
 8001dd4:	18fb      	adds	r3, r7, r3
 8001dd6:	8819      	ldrh	r1, [r3, #0]
 8001dd8:	1dbb      	adds	r3, r7, #6
 8001dda:	881a      	ldrh	r2, [r3, #0]
 8001ddc:	251c      	movs	r5, #28
 8001dde:	197b      	adds	r3, r7, r5
 8001de0:	881b      	ldrh	r3, [r3, #0]
 8001de2:	488f      	ldr	r0, [pc, #572]	@ (8002020 <init_task+0x2cc>)
 8001de4:	2401      	movs	r4, #1
 8001de6:	9401      	str	r4, [sp, #4]
 8001de8:	9300      	str	r3, [sp, #0]
 8001dea:	237e      	movs	r3, #126	@ 0x7e
 8001dec:	f7ff f9c8 	bl	8001180 <st7565_drawline_complex>
		for (uint16_t j2 = 0; j2 <= 63; j2 += spacingy) {
 8001df0:	230a      	movs	r3, #10
 8001df2:	18fb      	adds	r3, r7, r3
 8001df4:	781b      	ldrb	r3, [r3, #0]
 8001df6:	b299      	uxth	r1, r3
 8001df8:	197b      	adds	r3, r7, r5
 8001dfa:	197a      	adds	r2, r7, r5
 8001dfc:	8812      	ldrh	r2, [r2, #0]
 8001dfe:	188a      	adds	r2, r1, r2
 8001e00:	801a      	strh	r2, [r3, #0]
 8001e02:	231c      	movs	r3, #28
 8001e04:	18fb      	adds	r3, r7, r3
 8001e06:	881b      	ldrh	r3, [r3, #0]
 8001e08:	2b3f      	cmp	r3, #63	@ 0x3f
 8001e0a:	d9e2      	bls.n	8001dd2 <init_task+0x7e>
		}
		//Linie de la i,j la marginea stanga
		for (uint16_t j2 = 0; j2 <= 63; j2 += spacingy) {
 8001e0c:	231a      	movs	r3, #26
 8001e0e:	18fb      	adds	r3, r7, r3
 8001e10:	2200      	movs	r2, #0
 8001e12:	801a      	strh	r2, [r3, #0]
 8001e14:	e017      	b.n	8001e46 <init_task+0xf2>
			st7565_drawline_complex(buffer, i, j, 0, j2, 1);
 8001e16:	231e      	movs	r3, #30
 8001e18:	18fb      	adds	r3, r7, r3
 8001e1a:	8819      	ldrh	r1, [r3, #0]
 8001e1c:	1dbb      	adds	r3, r7, #6
 8001e1e:	881a      	ldrh	r2, [r3, #0]
 8001e20:	251a      	movs	r5, #26
 8001e22:	197b      	adds	r3, r7, r5
 8001e24:	881b      	ldrh	r3, [r3, #0]
 8001e26:	487e      	ldr	r0, [pc, #504]	@ (8002020 <init_task+0x2cc>)
 8001e28:	2401      	movs	r4, #1
 8001e2a:	9401      	str	r4, [sp, #4]
 8001e2c:	9300      	str	r3, [sp, #0]
 8001e2e:	2300      	movs	r3, #0
 8001e30:	f7ff f9a6 	bl	8001180 <st7565_drawline_complex>
		for (uint16_t j2 = 0; j2 <= 63; j2 += spacingy) {
 8001e34:	230a      	movs	r3, #10
 8001e36:	18fb      	adds	r3, r7, r3
 8001e38:	781b      	ldrb	r3, [r3, #0]
 8001e3a:	b299      	uxth	r1, r3
 8001e3c:	197b      	adds	r3, r7, r5
 8001e3e:	197a      	adds	r2, r7, r5
 8001e40:	8812      	ldrh	r2, [r2, #0]
 8001e42:	188a      	adds	r2, r1, r2
 8001e44:	801a      	strh	r2, [r3, #0]
 8001e46:	231a      	movs	r3, #26
 8001e48:	18fb      	adds	r3, r7, r3
 8001e4a:	881b      	ldrh	r3, [r3, #0]
 8001e4c:	2b3f      	cmp	r3, #63	@ 0x3f
 8001e4e:	d9e2      	bls.n	8001e16 <init_task+0xc2>
		}

		//Linie de la i,j la margine jos
		for (uint16_t i2 = 0; i2 <= 126; i2 += spacingx) {
 8001e50:	2318      	movs	r3, #24
 8001e52:	18fb      	adds	r3, r7, r3
 8001e54:	2200      	movs	r2, #0
 8001e56:	801a      	strh	r2, [r3, #0]
 8001e58:	e017      	b.n	8001e8a <init_task+0x136>
			st7565_drawline_complex(buffer, i, j, i2, 63, 1);
 8001e5a:	231e      	movs	r3, #30
 8001e5c:	18fb      	adds	r3, r7, r3
 8001e5e:	8819      	ldrh	r1, [r3, #0]
 8001e60:	1dbb      	adds	r3, r7, #6
 8001e62:	881a      	ldrh	r2, [r3, #0]
 8001e64:	2518      	movs	r5, #24
 8001e66:	197b      	adds	r3, r7, r5
 8001e68:	881b      	ldrh	r3, [r3, #0]
 8001e6a:	486d      	ldr	r0, [pc, #436]	@ (8002020 <init_task+0x2cc>)
 8001e6c:	2401      	movs	r4, #1
 8001e6e:	9401      	str	r4, [sp, #4]
 8001e70:	243f      	movs	r4, #63	@ 0x3f
 8001e72:	9400      	str	r4, [sp, #0]
 8001e74:	f7ff f984 	bl	8001180 <st7565_drawline_complex>
		for (uint16_t i2 = 0; i2 <= 126; i2 += spacingx) {
 8001e78:	230b      	movs	r3, #11
 8001e7a:	18fb      	adds	r3, r7, r3
 8001e7c:	781b      	ldrb	r3, [r3, #0]
 8001e7e:	b299      	uxth	r1, r3
 8001e80:	197b      	adds	r3, r7, r5
 8001e82:	197a      	adds	r2, r7, r5
 8001e84:	8812      	ldrh	r2, [r2, #0]
 8001e86:	188a      	adds	r2, r1, r2
 8001e88:	801a      	strh	r2, [r3, #0]
 8001e8a:	2318      	movs	r3, #24
 8001e8c:	18fb      	adds	r3, r7, r3
 8001e8e:	881b      	ldrh	r3, [r3, #0]
 8001e90:	2b7e      	cmp	r3, #126	@ 0x7e
 8001e92:	d9e2      	bls.n	8001e5a <init_task+0x106>
		}
		//Linie de la i,j la margine sus
		for (uint16_t i2 = 0; i2 <= 126; i2 += spacingx) {
 8001e94:	2316      	movs	r3, #22
 8001e96:	18fb      	adds	r3, r7, r3
 8001e98:	2200      	movs	r2, #0
 8001e9a:	801a      	strh	r2, [r3, #0]
 8001e9c:	e017      	b.n	8001ece <init_task+0x17a>
			st7565_drawline_complex(buffer, i, j, i2, 0, 1);
 8001e9e:	231e      	movs	r3, #30
 8001ea0:	18fb      	adds	r3, r7, r3
 8001ea2:	8819      	ldrh	r1, [r3, #0]
 8001ea4:	1dbb      	adds	r3, r7, #6
 8001ea6:	881a      	ldrh	r2, [r3, #0]
 8001ea8:	2516      	movs	r5, #22
 8001eaa:	197b      	adds	r3, r7, r5
 8001eac:	881b      	ldrh	r3, [r3, #0]
 8001eae:	485c      	ldr	r0, [pc, #368]	@ (8002020 <init_task+0x2cc>)
 8001eb0:	2401      	movs	r4, #1
 8001eb2:	9401      	str	r4, [sp, #4]
 8001eb4:	2400      	movs	r4, #0
 8001eb6:	9400      	str	r4, [sp, #0]
 8001eb8:	f7ff f962 	bl	8001180 <st7565_drawline_complex>
		for (uint16_t i2 = 0; i2 <= 126; i2 += spacingx) {
 8001ebc:	230b      	movs	r3, #11
 8001ebe:	18fb      	adds	r3, r7, r3
 8001ec0:	781b      	ldrb	r3, [r3, #0]
 8001ec2:	b299      	uxth	r1, r3
 8001ec4:	197b      	adds	r3, r7, r5
 8001ec6:	197a      	adds	r2, r7, r5
 8001ec8:	8812      	ldrh	r2, [r2, #0]
 8001eca:	188a      	adds	r2, r1, r2
 8001ecc:	801a      	strh	r2, [r3, #0]
 8001ece:	2316      	movs	r3, #22
 8001ed0:	18fb      	adds	r3, r7, r3
 8001ed2:	881b      	ldrh	r3, [r3, #0]
 8001ed4:	2b7e      	cmp	r3, #126	@ 0x7e
 8001ed6:	d9e2      	bls.n	8001e9e <init_task+0x14a>
		}

		//deseneaza frame
		st7565_write_buffer(buffer);
 8001ed8:	4b51      	ldr	r3, [pc, #324]	@ (8002020 <init_task+0x2cc>)
 8001eda:	0018      	movs	r0, r3
 8001edc:	f7fe fe7e 	bl	8000bdc <st7565_write_buffer>
	for (uint16_t i = 0; i <= 63; i += 2) { //i,j stanga sus->centru
 8001ee0:	221e      	movs	r2, #30
 8001ee2:	18bb      	adds	r3, r7, r2
 8001ee4:	18ba      	adds	r2, r7, r2
 8001ee6:	8812      	ldrh	r2, [r2, #0]
 8001ee8:	3202      	adds	r2, #2
 8001eea:	801a      	strh	r2, [r3, #0]
 8001eec:	231e      	movs	r3, #30
 8001eee:	18fb      	adds	r3, r7, r3
 8001ef0:	881b      	ldrh	r3, [r3, #0]
 8001ef2:	2b3f      	cmp	r3, #63	@ 0x3f
 8001ef4:	d800      	bhi.n	8001ef8 <init_task+0x1a4>
 8001ef6:	e74d      	b.n	8001d94 <init_task+0x40>
		//HAL_Delay(50);

		//osDelay(2);

	}
	for (uint16_t i = 64; i <= 126; i += 2) {      	//i,j centru->dreapta jos
 8001ef8:	2314      	movs	r3, #20
 8001efa:	18fb      	adds	r3, r7, r3
 8001efc:	2240      	movs	r2, #64	@ 0x40
 8001efe:	801a      	strh	r2, [r3, #0]
 8001f00:	e0b8      	b.n	8002074 <init_task+0x320>
		//spacing=11-(i-64)/10;
		if (i % 4 == 0)
 8001f02:	2114      	movs	r1, #20
 8001f04:	187b      	adds	r3, r7, r1
 8001f06:	881b      	ldrh	r3, [r3, #0]
 8001f08:	2203      	movs	r2, #3
 8001f0a:	4013      	ands	r3, r2
 8001f0c:	b29b      	uxth	r3, r3
 8001f0e:	2b00      	cmp	r3, #0
 8001f10:	d10a      	bne.n	8001f28 <init_task+0x1d4>
			st7565_set_brightness((126 - i) / 4);
 8001f12:	187b      	adds	r3, r7, r1
 8001f14:	881b      	ldrh	r3, [r3, #0]
 8001f16:	227e      	movs	r2, #126	@ 0x7e
 8001f18:	1ad3      	subs	r3, r2, r3
 8001f1a:	d500      	bpl.n	8001f1e <init_task+0x1ca>
 8001f1c:	3303      	adds	r3, #3
 8001f1e:	109b      	asrs	r3, r3, #2
 8001f20:	b2db      	uxtb	r3, r3
 8001f22:	0018      	movs	r0, r3
 8001f24:	f7fe ff84 	bl	8000e30 <st7565_set_brightness>
		uint16_t j = i / 2;
 8001f28:	2308      	movs	r3, #8
 8001f2a:	18fb      	adds	r3, r7, r3
 8001f2c:	2214      	movs	r2, #20
 8001f2e:	18ba      	adds	r2, r7, r2
 8001f30:	8812      	ldrh	r2, [r2, #0]
 8001f32:	0852      	lsrs	r2, r2, #1
 8001f34:	801a      	strh	r2, [r3, #0]
		st7565_clear_buffer(buffer);
 8001f36:	4b3a      	ldr	r3, [pc, #232]	@ (8002020 <init_task+0x2cc>)
 8001f38:	0018      	movs	r0, r3
 8001f3a:	f7fe fff9 	bl	8000f30 <st7565_clear_buffer>
		//Linie de la i,j la marginea dreapta
		for (uint16_t j2 = 0; j2 <= 63; j2 += spacingy) {
 8001f3e:	2312      	movs	r3, #18
 8001f40:	18fb      	adds	r3, r7, r3
 8001f42:	2200      	movs	r2, #0
 8001f44:	801a      	strh	r2, [r3, #0]
 8001f46:	e018      	b.n	8001f7a <init_task+0x226>
			st7565_drawline_complex(buffer, i, j, 126, j2, 1);
 8001f48:	2314      	movs	r3, #20
 8001f4a:	18fb      	adds	r3, r7, r3
 8001f4c:	8819      	ldrh	r1, [r3, #0]
 8001f4e:	2308      	movs	r3, #8
 8001f50:	18fb      	adds	r3, r7, r3
 8001f52:	881a      	ldrh	r2, [r3, #0]
 8001f54:	2512      	movs	r5, #18
 8001f56:	197b      	adds	r3, r7, r5
 8001f58:	881b      	ldrh	r3, [r3, #0]
 8001f5a:	4831      	ldr	r0, [pc, #196]	@ (8002020 <init_task+0x2cc>)
 8001f5c:	2401      	movs	r4, #1
 8001f5e:	9401      	str	r4, [sp, #4]
 8001f60:	9300      	str	r3, [sp, #0]
 8001f62:	237e      	movs	r3, #126	@ 0x7e
 8001f64:	f7ff f90c 	bl	8001180 <st7565_drawline_complex>
		for (uint16_t j2 = 0; j2 <= 63; j2 += spacingy) {
 8001f68:	230a      	movs	r3, #10
 8001f6a:	18fb      	adds	r3, r7, r3
 8001f6c:	781b      	ldrb	r3, [r3, #0]
 8001f6e:	b299      	uxth	r1, r3
 8001f70:	197b      	adds	r3, r7, r5
 8001f72:	197a      	adds	r2, r7, r5
 8001f74:	8812      	ldrh	r2, [r2, #0]
 8001f76:	188a      	adds	r2, r1, r2
 8001f78:	801a      	strh	r2, [r3, #0]
 8001f7a:	2312      	movs	r3, #18
 8001f7c:	18fb      	adds	r3, r7, r3
 8001f7e:	881b      	ldrh	r3, [r3, #0]
 8001f80:	2b3f      	cmp	r3, #63	@ 0x3f
 8001f82:	d9e1      	bls.n	8001f48 <init_task+0x1f4>
		}
		//Linie de la i,j la marginea stanga
		for (uint16_t j2 = 0; j2 <= 63; j2 += spacingy) {
 8001f84:	2310      	movs	r3, #16
 8001f86:	18fb      	adds	r3, r7, r3
 8001f88:	2200      	movs	r2, #0
 8001f8a:	801a      	strh	r2, [r3, #0]
 8001f8c:	e018      	b.n	8001fc0 <init_task+0x26c>
			st7565_drawline_complex(buffer, i, j, 0, j2, 1);
 8001f8e:	2314      	movs	r3, #20
 8001f90:	18fb      	adds	r3, r7, r3
 8001f92:	8819      	ldrh	r1, [r3, #0]
 8001f94:	2308      	movs	r3, #8
 8001f96:	18fb      	adds	r3, r7, r3
 8001f98:	881a      	ldrh	r2, [r3, #0]
 8001f9a:	2510      	movs	r5, #16
 8001f9c:	197b      	adds	r3, r7, r5
 8001f9e:	881b      	ldrh	r3, [r3, #0]
 8001fa0:	481f      	ldr	r0, [pc, #124]	@ (8002020 <init_task+0x2cc>)
 8001fa2:	2401      	movs	r4, #1
 8001fa4:	9401      	str	r4, [sp, #4]
 8001fa6:	9300      	str	r3, [sp, #0]
 8001fa8:	2300      	movs	r3, #0
 8001faa:	f7ff f8e9 	bl	8001180 <st7565_drawline_complex>
		for (uint16_t j2 = 0; j2 <= 63; j2 += spacingy) {
 8001fae:	230a      	movs	r3, #10
 8001fb0:	18fb      	adds	r3, r7, r3
 8001fb2:	781b      	ldrb	r3, [r3, #0]
 8001fb4:	b299      	uxth	r1, r3
 8001fb6:	197b      	adds	r3, r7, r5
 8001fb8:	197a      	adds	r2, r7, r5
 8001fba:	8812      	ldrh	r2, [r2, #0]
 8001fbc:	188a      	adds	r2, r1, r2
 8001fbe:	801a      	strh	r2, [r3, #0]
 8001fc0:	2310      	movs	r3, #16
 8001fc2:	18fb      	adds	r3, r7, r3
 8001fc4:	881b      	ldrh	r3, [r3, #0]
 8001fc6:	2b3f      	cmp	r3, #63	@ 0x3f
 8001fc8:	d9e1      	bls.n	8001f8e <init_task+0x23a>
		}

		//Linie de la i,j la margine jos
		for (uint16_t i2 = 0; i2 <= 126; i2 += spacingx) {
 8001fca:	230e      	movs	r3, #14
 8001fcc:	18fb      	adds	r3, r7, r3
 8001fce:	2200      	movs	r2, #0
 8001fd0:	801a      	strh	r2, [r3, #0]
 8001fd2:	e018      	b.n	8002006 <init_task+0x2b2>
			st7565_drawline_complex(buffer, i, j, i2, 63, 1);
 8001fd4:	2314      	movs	r3, #20
 8001fd6:	18fb      	adds	r3, r7, r3
 8001fd8:	8819      	ldrh	r1, [r3, #0]
 8001fda:	2308      	movs	r3, #8
 8001fdc:	18fb      	adds	r3, r7, r3
 8001fde:	881a      	ldrh	r2, [r3, #0]
 8001fe0:	250e      	movs	r5, #14
 8001fe2:	197b      	adds	r3, r7, r5
 8001fe4:	881b      	ldrh	r3, [r3, #0]
 8001fe6:	480e      	ldr	r0, [pc, #56]	@ (8002020 <init_task+0x2cc>)
 8001fe8:	2401      	movs	r4, #1
 8001fea:	9401      	str	r4, [sp, #4]
 8001fec:	243f      	movs	r4, #63	@ 0x3f
 8001fee:	9400      	str	r4, [sp, #0]
 8001ff0:	f7ff f8c6 	bl	8001180 <st7565_drawline_complex>
		for (uint16_t i2 = 0; i2 <= 126; i2 += spacingx) {
 8001ff4:	230b      	movs	r3, #11
 8001ff6:	18fb      	adds	r3, r7, r3
 8001ff8:	781b      	ldrb	r3, [r3, #0]
 8001ffa:	b299      	uxth	r1, r3
 8001ffc:	197b      	adds	r3, r7, r5
 8001ffe:	197a      	adds	r2, r7, r5
 8002000:	8812      	ldrh	r2, [r2, #0]
 8002002:	188a      	adds	r2, r1, r2
 8002004:	801a      	strh	r2, [r3, #0]
 8002006:	230e      	movs	r3, #14
 8002008:	18fb      	adds	r3, r7, r3
 800200a:	881b      	ldrh	r3, [r3, #0]
 800200c:	2b7e      	cmp	r3, #126	@ 0x7e
 800200e:	d9e1      	bls.n	8001fd4 <init_task+0x280>
		}
		//Linie de la i,j la margine sus
		for (uint16_t i2 = 0; i2 <= 126; i2 += spacingx) {
 8002010:	230c      	movs	r3, #12
 8002012:	18fb      	adds	r3, r7, r3
 8002014:	2200      	movs	r2, #0
 8002016:	801a      	strh	r2, [r3, #0]
 8002018:	e01d      	b.n	8002056 <init_task+0x302>
 800201a:	46c0      	nop			@ (mov r8, r8)
 800201c:	20000a1c 	.word	0x20000a1c
 8002020:	20000014 	.word	0x20000014
			st7565_drawline_complex(buffer, i, j, i2, 0, 1);
 8002024:	2314      	movs	r3, #20
 8002026:	18fb      	adds	r3, r7, r3
 8002028:	8819      	ldrh	r1, [r3, #0]
 800202a:	2308      	movs	r3, #8
 800202c:	18fb      	adds	r3, r7, r3
 800202e:	881a      	ldrh	r2, [r3, #0]
 8002030:	250c      	movs	r5, #12
 8002032:	197b      	adds	r3, r7, r5
 8002034:	881b      	ldrh	r3, [r3, #0]
 8002036:	4816      	ldr	r0, [pc, #88]	@ (8002090 <init_task+0x33c>)
 8002038:	2401      	movs	r4, #1
 800203a:	9401      	str	r4, [sp, #4]
 800203c:	2400      	movs	r4, #0
 800203e:	9400      	str	r4, [sp, #0]
 8002040:	f7ff f89e 	bl	8001180 <st7565_drawline_complex>
		for (uint16_t i2 = 0; i2 <= 126; i2 += spacingx) {
 8002044:	230b      	movs	r3, #11
 8002046:	18fb      	adds	r3, r7, r3
 8002048:	781b      	ldrb	r3, [r3, #0]
 800204a:	b299      	uxth	r1, r3
 800204c:	197b      	adds	r3, r7, r5
 800204e:	197a      	adds	r2, r7, r5
 8002050:	8812      	ldrh	r2, [r2, #0]
 8002052:	188a      	adds	r2, r1, r2
 8002054:	801a      	strh	r2, [r3, #0]
 8002056:	230c      	movs	r3, #12
 8002058:	18fb      	adds	r3, r7, r3
 800205a:	881b      	ldrh	r3, [r3, #0]
 800205c:	2b7e      	cmp	r3, #126	@ 0x7e
 800205e:	d9e1      	bls.n	8002024 <init_task+0x2d0>
		}

		//deseneaza frame
		st7565_write_buffer(buffer);
 8002060:	4b0b      	ldr	r3, [pc, #44]	@ (8002090 <init_task+0x33c>)
 8002062:	0018      	movs	r0, r3
 8002064:	f7fe fdba 	bl	8000bdc <st7565_write_buffer>
	for (uint16_t i = 64; i <= 126; i += 2) {      	//i,j centru->dreapta jos
 8002068:	2214      	movs	r2, #20
 800206a:	18bb      	adds	r3, r7, r2
 800206c:	18ba      	adds	r2, r7, r2
 800206e:	8812      	ldrh	r2, [r2, #0]
 8002070:	3202      	adds	r2, #2
 8002072:	801a      	strh	r2, [r3, #0]
 8002074:	2314      	movs	r3, #20
 8002076:	18fb      	adds	r3, r7, r3
 8002078:	881b      	ldrh	r3, [r3, #0]
 800207a:	2b7e      	cmp	r3, #126	@ 0x7e
 800207c:	d800      	bhi.n	8002080 <init_task+0x32c>
 800207e:	e740      	b.n	8001f02 <init_task+0x1ae>
	//st7565_drawstring(buffer,15,2,"Hello World!!");

	//HAL_ReadPin
	//Trimitem comanda sa desenam

	st7565_set_brightness(0);
 8002080:	2000      	movs	r0, #0
 8002082:	f7fe fed5 	bl	8000e30 <st7565_set_brightness>

}
 8002086:	46c0      	nop			@ (mov r8, r8)
 8002088:	46bd      	mov	sp, r7
 800208a:	b008      	add	sp, #32
 800208c:	bdb0      	pop	{r4, r5, r7, pc}
 800208e:	46c0      	nop			@ (mov r8, r8)
 8002090:	20000014 	.word	0x20000014

08002094 <readAdcVoltFunction>:
 * @brief  Function implementing the readAdcVolt thread.
 * @param  argument: Not used
 * @retval None
 */
/* USER CODE END Header_readAdcVoltFunction */
void readAdcVoltFunction(void) {
 8002094:	b580      	push	{r7, lr}
 8002096:	af00      	add	r7, sp, #0
	 voltReadRaw = HAL_ADC_GetValue(&hadc);
	 else voltReadRaw=0;

	 HAL_ADC_Stop(&hadc);*/

	voltReadRaw = adc_buffer[255];
 8002098:	4a0c      	ldr	r2, [pc, #48]	@ (80020cc <readAdcVoltFunction+0x38>)
 800209a:	23ff      	movs	r3, #255	@ 0xff
 800209c:	005b      	lsls	r3, r3, #1
 800209e:	5ad3      	ldrh	r3, [r2, r3]
 80020a0:	b29a      	uxth	r2, r3
 80020a2:	4b0b      	ldr	r3, [pc, #44]	@ (80020d0 <readAdcVoltFunction+0x3c>)
 80020a4:	801a      	strh	r2, [r3, #0]
	voltRead = filterVolt(interpolation(voltReadRaw));
 80020a6:	4b0a      	ldr	r3, [pc, #40]	@ (80020d0 <readAdcVoltFunction+0x3c>)
 80020a8:	881b      	ldrh	r3, [r3, #0]
 80020aa:	b21b      	sxth	r3, r3
 80020ac:	0018      	movs	r0, r3
 80020ae:	f7ff fc83 	bl	80019b8 <interpolation>
 80020b2:	0003      	movs	r3, r0
 80020b4:	b29b      	uxth	r3, r3
 80020b6:	0018      	movs	r0, r3
 80020b8:	f7ff fd48 	bl	8001b4c <filterVolt>
 80020bc:	0003      	movs	r3, r0
 80020be:	001a      	movs	r2, r3
 80020c0:	4b04      	ldr	r3, [pc, #16]	@ (80020d4 <readAdcVoltFunction+0x40>)
 80020c2:	801a      	strh	r2, [r3, #0]

	/* USER CODE END 5 */
}
 80020c4:	46c0      	nop			@ (mov r8, r8)
 80020c6:	46bd      	mov	sp, r7
 80020c8:	bd80      	pop	{r7, pc}
 80020ca:	46c0      	nop			@ (mov r8, r8)
 80020cc:	200005fc 	.word	0x200005fc
 80020d0:	20000006 	.word	0x20000006
 80020d4:	200005b8 	.word	0x200005b8

080020d8 <displayVoltReadFunction>:
 * @brief Function implementing the displayVoltRead thread.
 * @param argument: Not used
 * @retval None
 */
/* USER CODE END Header_displayVoltReadFunction */
void displayVoltReadFunction(void) {
 80020d8:	b5f0      	push	{r4, r5, r6, r7, lr}
 80020da:	b0bf      	sub	sp, #252	@ 0xfc
 80020dc:	af02      	add	r7, sp, #8
		DRAWING, DRAWING_POPUP, SENDING_PAGE, WAITING
	};
	static uint8_t state = DRAWING;
	static uint8_t current_page = 0;
	static uint32_t last_frame_time = 0;
	uint32_t now = HAL_GetTick_us();
 80020de:	f7fe fd75 	bl	8000bcc <HAL_GetTick_us>
 80020e2:	0003      	movs	r3, r0
 80020e4:	22dc      	movs	r2, #220	@ 0xdc
 80020e6:	18ba      	adds	r2, r7, r2
 80020e8:	6013      	str	r3, [r2, #0]
	switch (state) {
 80020ea:	4b74      	ldr	r3, [pc, #464]	@ (80022bc <displayVoltReadFunction+0x1e4>)
 80020ec:	781b      	ldrb	r3, [r3, #0]
 80020ee:	2b03      	cmp	r3, #3
 80020f0:	d101      	bne.n	80020f6 <displayVoltReadFunction+0x1e>
 80020f2:	f000 fcf8 	bl	8002ae6 <displayVoltReadFunction+0xa0e>
 80020f6:	dd01      	ble.n	80020fc <displayVoltReadFunction+0x24>
 80020f8:	f000 fd09 	bl	8002b0e <displayVoltReadFunction+0xa36>
 80020fc:	2b02      	cmp	r3, #2
 80020fe:	d101      	bne.n	8002104 <displayVoltReadFunction+0x2c>
 8002100:	f000 fc9e 	bl	8002a40 <displayVoltReadFunction+0x968>
 8002104:	dd01      	ble.n	800210a <displayVoltReadFunction+0x32>
 8002106:	f000 fd02 	bl	8002b0e <displayVoltReadFunction+0xa36>
 800210a:	2b00      	cmp	r3, #0
 800210c:	d004      	beq.n	8002118 <displayVoltReadFunction+0x40>
 800210e:	2b01      	cmp	r3, #1
 8002110:	d100      	bne.n	8002114 <displayVoltReadFunction+0x3c>
 8002112:	e3ab      	b.n	800286c <displayVoltReadFunction+0x794>
			state = DRAWING;
			last_frame_time = now;
		}
		break;
	}
}
 8002114:	f000 fcfb 	bl	8002b0e <displayVoltReadFunction+0xa36>
		st7565_clear_buffer(buffer);
 8002118:	4b69      	ldr	r3, [pc, #420]	@ (80022c0 <displayVoltReadFunction+0x1e8>)
 800211a:	0018      	movs	r0, r3
 800211c:	f7fe ff08 	bl	8000f30 <st7565_clear_buffer>
		if (displayMode == 0) {
 8002120:	4b68      	ldr	r3, [pc, #416]	@ (80022c4 <displayVoltReadFunction+0x1ec>)
 8002122:	781b      	ldrb	r3, [r3, #0]
 8002124:	2b00      	cmp	r3, #0
 8002126:	d159      	bne.n	80021dc <displayVoltReadFunction+0x104>
			st7565_drawstring(buffer, 0, 0, "Volt:", fontMode);
 8002128:	4b67      	ldr	r3, [pc, #412]	@ (80022c8 <displayVoltReadFunction+0x1f0>)
 800212a:	781b      	ldrb	r3, [r3, #0]
 800212c:	4a67      	ldr	r2, [pc, #412]	@ (80022cc <displayVoltReadFunction+0x1f4>)
 800212e:	4864      	ldr	r0, [pc, #400]	@ (80022c0 <displayVoltReadFunction+0x1e8>)
 8002130:	9300      	str	r3, [sp, #0]
 8002132:	0013      	movs	r3, r2
 8002134:	2200      	movs	r2, #0
 8002136:	2100      	movs	r1, #0
 8002138:	f7fe ff74 	bl	8001024 <st7565_drawstring>
			itoa(voltRead, volt, 10);
 800213c:	4b64      	ldr	r3, [pc, #400]	@ (80022d0 <displayVoltReadFunction+0x1f8>)
 800213e:	881b      	ldrh	r3, [r3, #0]
 8002140:	0018      	movs	r0, r3
 8002142:	003b      	movs	r3, r7
 8002144:	220a      	movs	r2, #10
 8002146:	0019      	movs	r1, r3
 8002148:	f003 fd06 	bl	8005b58 <itoa>
			if (voltRead < 10) {
 800214c:	4b60      	ldr	r3, [pc, #384]	@ (80022d0 <displayVoltReadFunction+0x1f8>)
 800214e:	881b      	ldrh	r3, [r3, #0]
 8002150:	2b09      	cmp	r3, #9
 8002152:	d810      	bhi.n	8002176 <displayVoltReadFunction+0x9e>
				volt[4] = '\0';
 8002154:	003b      	movs	r3, r7
 8002156:	2200      	movs	r2, #0
 8002158:	711a      	strb	r2, [r3, #4]
				volt[3] = volt[0];
 800215a:	003b      	movs	r3, r7
 800215c:	781a      	ldrb	r2, [r3, #0]
 800215e:	003b      	movs	r3, r7
 8002160:	70da      	strb	r2, [r3, #3]
				volt[2] = '0';
 8002162:	003b      	movs	r3, r7
 8002164:	2230      	movs	r2, #48	@ 0x30
 8002166:	709a      	strb	r2, [r3, #2]
				volt[1] = '.';
 8002168:	003b      	movs	r3, r7
 800216a:	222e      	movs	r2, #46	@ 0x2e
 800216c:	705a      	strb	r2, [r3, #1]
				volt[0] = '0';
 800216e:	003b      	movs	r3, r7
 8002170:	2230      	movs	r2, #48	@ 0x30
 8002172:	701a      	strb	r2, [r3, #0]
 8002174:	e027      	b.n	80021c6 <displayVoltReadFunction+0xee>
			} else if (voltRead >= 10 && voltRead < 100) {
 8002176:	4b56      	ldr	r3, [pc, #344]	@ (80022d0 <displayVoltReadFunction+0x1f8>)
 8002178:	881b      	ldrh	r3, [r3, #0]
 800217a:	2b09      	cmp	r3, #9
 800217c:	d915      	bls.n	80021aa <displayVoltReadFunction+0xd2>
 800217e:	4b54      	ldr	r3, [pc, #336]	@ (80022d0 <displayVoltReadFunction+0x1f8>)
 8002180:	881b      	ldrh	r3, [r3, #0]
 8002182:	2b63      	cmp	r3, #99	@ 0x63
 8002184:	d811      	bhi.n	80021aa <displayVoltReadFunction+0xd2>
				volt[4] = '\0';
 8002186:	003b      	movs	r3, r7
 8002188:	2200      	movs	r2, #0
 800218a:	711a      	strb	r2, [r3, #4]
				volt[3] = volt[1];
 800218c:	003b      	movs	r3, r7
 800218e:	785a      	ldrb	r2, [r3, #1]
 8002190:	003b      	movs	r3, r7
 8002192:	70da      	strb	r2, [r3, #3]
				volt[2] = volt[0];
 8002194:	003b      	movs	r3, r7
 8002196:	781a      	ldrb	r2, [r3, #0]
 8002198:	003b      	movs	r3, r7
 800219a:	709a      	strb	r2, [r3, #2]
				volt[1] = '.';
 800219c:	003b      	movs	r3, r7
 800219e:	222e      	movs	r2, #46	@ 0x2e
 80021a0:	705a      	strb	r2, [r3, #1]
				volt[0] = '0';
 80021a2:	003b      	movs	r3, r7
 80021a4:	2230      	movs	r2, #48	@ 0x30
 80021a6:	701a      	strb	r2, [r3, #0]
 80021a8:	e00d      	b.n	80021c6 <displayVoltReadFunction+0xee>
				volt[4] = '\0';
 80021aa:	003b      	movs	r3, r7
 80021ac:	2200      	movs	r2, #0
 80021ae:	711a      	strb	r2, [r3, #4]
				volt[3] = volt[2];
 80021b0:	003b      	movs	r3, r7
 80021b2:	789a      	ldrb	r2, [r3, #2]
 80021b4:	003b      	movs	r3, r7
 80021b6:	70da      	strb	r2, [r3, #3]
				volt[2] = volt[1];
 80021b8:	003b      	movs	r3, r7
 80021ba:	785a      	ldrb	r2, [r3, #1]
 80021bc:	003b      	movs	r3, r7
 80021be:	709a      	strb	r2, [r3, #2]
				volt[1] = '.';
 80021c0:	003b      	movs	r3, r7
 80021c2:	222e      	movs	r2, #46	@ 0x2e
 80021c4:	705a      	strb	r2, [r3, #1]
			st7565_drawstring(buffer, 0, 1, volt, fontMode);
 80021c6:	4b40      	ldr	r3, [pc, #256]	@ (80022c8 <displayVoltReadFunction+0x1f0>)
 80021c8:	781b      	ldrb	r3, [r3, #0]
 80021ca:	003a      	movs	r2, r7
 80021cc:	483c      	ldr	r0, [pc, #240]	@ (80022c0 <displayVoltReadFunction+0x1e8>)
 80021ce:	9300      	str	r3, [sp, #0]
 80021d0:	0013      	movs	r3, r2
 80021d2:	2201      	movs	r2, #1
 80021d4:	2100      	movs	r1, #0
 80021d6:	f7fe ff25 	bl	8001024 <st7565_drawstring>
 80021da:	e343      	b.n	8002864 <displayVoltReadFunction+0x78c>
		} else if (displayMode == 1) {
 80021dc:	4b39      	ldr	r3, [pc, #228]	@ (80022c4 <displayVoltReadFunction+0x1ec>)
 80021de:	781b      	ldrb	r3, [r3, #0]
 80021e0:	2b01      	cmp	r3, #1
 80021e2:	d000      	beq.n	80021e6 <displayVoltReadFunction+0x10e>
 80021e4:	e1aa      	b.n	800253c <displayVoltReadFunction+0x464>
			st7565_drawstring(buffer, 30, 2, "Volt Range", fontMode);
 80021e6:	4b38      	ldr	r3, [pc, #224]	@ (80022c8 <displayVoltReadFunction+0x1f0>)
 80021e8:	781b      	ldrb	r3, [r3, #0]
 80021ea:	4a3a      	ldr	r2, [pc, #232]	@ (80022d4 <displayVoltReadFunction+0x1fc>)
 80021ec:	4834      	ldr	r0, [pc, #208]	@ (80022c0 <displayVoltReadFunction+0x1e8>)
 80021ee:	9300      	str	r3, [sp, #0]
 80021f0:	0013      	movs	r3, r2
 80021f2:	2202      	movs	r2, #2
 80021f4:	211e      	movs	r1, #30
 80021f6:	f7fe ff15 	bl	8001024 <st7565_drawstring>
			int bar_x0 = 5;
 80021fa:	2305      	movs	r3, #5
 80021fc:	22c8      	movs	r2, #200	@ 0xc8
 80021fe:	18b9      	adds	r1, r7, r2
 8002200:	600b      	str	r3, [r1, #0]
			int bar_x1 = 121;
 8002202:	2379      	movs	r3, #121	@ 0x79
 8002204:	20c4      	movs	r0, #196	@ 0xc4
 8002206:	1839      	adds	r1, r7, r0
 8002208:	600b      	str	r3, [r1, #0]
			int bar_y0 = 30;
 800220a:	231e      	movs	r3, #30
 800220c:	24c0      	movs	r4, #192	@ 0xc0
 800220e:	1939      	adds	r1, r7, r4
 8002210:	600b      	str	r3, [r1, #0]
			int bar_y1 = 37;
 8002212:	2325      	movs	r3, #37	@ 0x25
 8002214:	26bc      	movs	r6, #188	@ 0xbc
 8002216:	19b9      	adds	r1, r7, r6
 8002218:	600b      	str	r3, [r1, #0]
			int squares = 10;
 800221a:	230a      	movs	r3, #10
 800221c:	21b8      	movs	r1, #184	@ 0xb8
 800221e:	187d      	adds	r5, r7, r1
 8002220:	602b      	str	r3, [r5, #0]
			int inner_x0 = bar_x0 + 1;
 8002222:	18bb      	adds	r3, r7, r2
 8002224:	681b      	ldr	r3, [r3, #0]
 8002226:	3301      	adds	r3, #1
 8002228:	25b4      	movs	r5, #180	@ 0xb4
 800222a:	197a      	adds	r2, r7, r5
 800222c:	6013      	str	r3, [r2, #0]
			int inner_x1 = bar_x1 - 1;
 800222e:	183b      	adds	r3, r7, r0
 8002230:	681b      	ldr	r3, [r3, #0]
 8002232:	3b01      	subs	r3, #1
 8002234:	22b0      	movs	r2, #176	@ 0xb0
 8002236:	18b8      	adds	r0, r7, r2
 8002238:	6003      	str	r3, [r0, #0]
			int inner_y0 = bar_y0 + 1;
 800223a:	193b      	adds	r3, r7, r4
 800223c:	681b      	ldr	r3, [r3, #0]
 800223e:	3301      	adds	r3, #1
 8002240:	20ac      	movs	r0, #172	@ 0xac
 8002242:	1838      	adds	r0, r7, r0
 8002244:	6003      	str	r3, [r0, #0]
			int inner_y1 = bar_y1 - 1;
 8002246:	19bb      	adds	r3, r7, r6
 8002248:	681b      	ldr	r3, [r3, #0]
 800224a:	3b01      	subs	r3, #1
 800224c:	20a8      	movs	r0, #168	@ 0xa8
 800224e:	1838      	adds	r0, r7, r0
 8002250:	6003      	str	r3, [r0, #0]
			int inner_width = inner_x1 - inner_x0 + 1;
 8002252:	18bb      	adds	r3, r7, r2
 8002254:	681a      	ldr	r2, [r3, #0]
 8002256:	197b      	adds	r3, r7, r5
 8002258:	681b      	ldr	r3, [r3, #0]
 800225a:	1ad3      	subs	r3, r2, r3
 800225c:	3301      	adds	r3, #1
 800225e:	26a4      	movs	r6, #164	@ 0xa4
 8002260:	19ba      	adds	r2, r7, r6
 8002262:	6013      	str	r3, [r2, #0]
			int square_width = inner_width / squares;
 8002264:	000c      	movs	r4, r1
 8002266:	187b      	adds	r3, r7, r1
 8002268:	6819      	ldr	r1, [r3, #0]
 800226a:	19bb      	adds	r3, r7, r6
 800226c:	6818      	ldr	r0, [r3, #0]
 800226e:	f7fd ffd3 	bl	8000218 <__divsi3>
 8002272:	0003      	movs	r3, r0
 8002274:	22a0      	movs	r2, #160	@ 0xa0
 8002276:	18b9      	adds	r1, r7, r2
 8002278:	600b      	str	r3, [r1, #0]
			int remainder = inner_width - square_width * squares;
 800227a:	18bb      	adds	r3, r7, r2
 800227c:	681b      	ldr	r3, [r3, #0]
 800227e:	0021      	movs	r1, r4
 8002280:	187a      	adds	r2, r7, r1
 8002282:	6812      	ldr	r2, [r2, #0]
 8002284:	4353      	muls	r3, r2
 8002286:	19ba      	adds	r2, r7, r6
 8002288:	6812      	ldr	r2, [r2, #0]
 800228a:	1ad3      	subs	r3, r2, r3
 800228c:	229c      	movs	r2, #156	@ 0x9c
 800228e:	18ba      	adds	r2, r7, r2
 8002290:	6013      	str	r3, [r2, #0]
			int volt_step = 330 / squares;
 8002292:	187b      	adds	r3, r7, r1
 8002294:	6819      	ldr	r1, [r3, #0]
 8002296:	23a5      	movs	r3, #165	@ 0xa5
 8002298:	0058      	lsls	r0, r3, #1
 800229a:	f7fd ffbd 	bl	8000218 <__divsi3>
 800229e:	0003      	movs	r3, r0
 80022a0:	2298      	movs	r2, #152	@ 0x98
 80022a2:	18ba      	adds	r2, r7, r2
 80022a4:	6013      	str	r3, [r2, #0]
			int x = inner_x0;
 80022a6:	197b      	adds	r3, r7, r5
 80022a8:	681b      	ldr	r3, [r3, #0]
 80022aa:	22ec      	movs	r2, #236	@ 0xec
 80022ac:	18ba      	adds	r2, r7, r2
 80022ae:	6013      	str	r3, [r2, #0]
			for (int i = 0; i < squares; i++) {
 80022b0:	2300      	movs	r3, #0
 80022b2:	22e8      	movs	r2, #232	@ 0xe8
 80022b4:	18ba      	adds	r2, r7, r2
 80022b6:	6013      	str	r3, [r2, #0]
 80022b8:	e062      	b.n	8002380 <displayVoltReadFunction+0x2a8>
 80022ba:	46c0      	nop			@ (mov r8, r8)
 80022bc:	20000a1d 	.word	0x20000a1d
 80022c0:	20000014 	.word	0x20000014
 80022c4:	2000000a 	.word	0x2000000a
 80022c8:	200005c0 	.word	0x200005c0
 80022cc:	08005cd8 	.word	0x08005cd8
 80022d0:	200005b8 	.word	0x200005b8
 80022d4:	08005ce0 	.word	0x08005ce0
				int w = square_width + (i < remainder ? 1 : 0);
 80022d8:	2301      	movs	r3, #1
 80022da:	1c19      	adds	r1, r3, #0
 80022dc:	23e8      	movs	r3, #232	@ 0xe8
 80022de:	18fb      	adds	r3, r7, r3
 80022e0:	681a      	ldr	r2, [r3, #0]
 80022e2:	239c      	movs	r3, #156	@ 0x9c
 80022e4:	18fb      	adds	r3, r7, r3
 80022e6:	681b      	ldr	r3, [r3, #0]
 80022e8:	429a      	cmp	r2, r3
 80022ea:	db01      	blt.n	80022f0 <displayVoltReadFunction+0x218>
 80022ec:	2300      	movs	r3, #0
 80022ee:	1c19      	adds	r1, r3, #0
 80022f0:	b2cb      	uxtb	r3, r1
 80022f2:	001a      	movs	r2, r3
 80022f4:	23a0      	movs	r3, #160	@ 0xa0
 80022f6:	18fb      	adds	r3, r7, r3
 80022f8:	681b      	ldr	r3, [r3, #0]
 80022fa:	189b      	adds	r3, r3, r2
 80022fc:	2094      	movs	r0, #148	@ 0x94
 80022fe:	183a      	adds	r2, r7, r0
 8002300:	6013      	str	r3, [r2, #0]
				int threshold = (i + 1) * volt_step;
 8002302:	23e8      	movs	r3, #232	@ 0xe8
 8002304:	18fb      	adds	r3, r7, r3
 8002306:	681b      	ldr	r3, [r3, #0]
 8002308:	1c5a      	adds	r2, r3, #1
 800230a:	2398      	movs	r3, #152	@ 0x98
 800230c:	18fb      	adds	r3, r7, r3
 800230e:	681b      	ldr	r3, [r3, #0]
 8002310:	4353      	muls	r3, r2
 8002312:	2190      	movs	r1, #144	@ 0x90
 8002314:	187a      	adds	r2, r7, r1
 8002316:	6013      	str	r3, [r2, #0]
				if (voltRead >= threshold) {
 8002318:	4bd1      	ldr	r3, [pc, #836]	@ (8002660 <displayVoltReadFunction+0x588>)
 800231a:	881b      	ldrh	r3, [r3, #0]
 800231c:	001a      	movs	r2, r3
 800231e:	187b      	adds	r3, r7, r1
 8002320:	681b      	ldr	r3, [r3, #0]
 8002322:	4293      	cmp	r3, r2
 8002324:	dc1d      	bgt.n	8002362 <displayVoltReadFunction+0x28a>
					st7565_fillrect(buffer, x, inner_y0, w,
 8002326:	23ec      	movs	r3, #236	@ 0xec
 8002328:	18fb      	adds	r3, r7, r3
 800232a:	681b      	ldr	r3, [r3, #0]
 800232c:	b2d9      	uxtb	r1, r3
 800232e:	26ac      	movs	r6, #172	@ 0xac
 8002330:	19bb      	adds	r3, r7, r6
 8002332:	681b      	ldr	r3, [r3, #0]
 8002334:	b2dc      	uxtb	r4, r3
 8002336:	183b      	adds	r3, r7, r0
 8002338:	681b      	ldr	r3, [r3, #0]
 800233a:	b2dd      	uxtb	r5, r3
							inner_y1 - inner_y0 + 1, 1);
 800233c:	23a8      	movs	r3, #168	@ 0xa8
 800233e:	18fb      	adds	r3, r7, r3
 8002340:	681b      	ldr	r3, [r3, #0]
 8002342:	b2da      	uxtb	r2, r3
 8002344:	19bb      	adds	r3, r7, r6
 8002346:	681b      	ldr	r3, [r3, #0]
 8002348:	b2db      	uxtb	r3, r3
 800234a:	1ad3      	subs	r3, r2, r3
 800234c:	b2db      	uxtb	r3, r3
					st7565_fillrect(buffer, x, inner_y0, w,
 800234e:	3301      	adds	r3, #1
 8002350:	b2db      	uxtb	r3, r3
 8002352:	48c4      	ldr	r0, [pc, #784]	@ (8002664 <displayVoltReadFunction+0x58c>)
 8002354:	2201      	movs	r2, #1
 8002356:	9201      	str	r2, [sp, #4]
 8002358:	9300      	str	r3, [sp, #0]
 800235a:	002b      	movs	r3, r5
 800235c:	0022      	movs	r2, r4
 800235e:	f7ff f81a 	bl	8001396 <st7565_fillrect>
				x += w;
 8002362:	21ec      	movs	r1, #236	@ 0xec
 8002364:	187b      	adds	r3, r7, r1
 8002366:	681a      	ldr	r2, [r3, #0]
 8002368:	2394      	movs	r3, #148	@ 0x94
 800236a:	18fb      	adds	r3, r7, r3
 800236c:	681b      	ldr	r3, [r3, #0]
 800236e:	18d3      	adds	r3, r2, r3
 8002370:	187a      	adds	r2, r7, r1
 8002372:	6013      	str	r3, [r2, #0]
			for (int i = 0; i < squares; i++) {
 8002374:	22e8      	movs	r2, #232	@ 0xe8
 8002376:	18bb      	adds	r3, r7, r2
 8002378:	681b      	ldr	r3, [r3, #0]
 800237a:	3301      	adds	r3, #1
 800237c:	18ba      	adds	r2, r7, r2
 800237e:	6013      	str	r3, [r2, #0]
 8002380:	23e8      	movs	r3, #232	@ 0xe8
 8002382:	18fb      	adds	r3, r7, r3
 8002384:	681a      	ldr	r2, [r3, #0]
 8002386:	23b8      	movs	r3, #184	@ 0xb8
 8002388:	18fb      	adds	r3, r7, r3
 800238a:	681b      	ldr	r3, [r3, #0]
 800238c:	429a      	cmp	r2, r3
 800238e:	dba3      	blt.n	80022d8 <displayVoltReadFunction+0x200>
			st7565_drawline(buffer, bar_x0 + 1, bar_y0, bar_x1 - 1, bar_y0, 1);
 8002390:	26c8      	movs	r6, #200	@ 0xc8
 8002392:	19bb      	adds	r3, r7, r6
 8002394:	681b      	ldr	r3, [r3, #0]
 8002396:	b2db      	uxtb	r3, r3
 8002398:	3301      	adds	r3, #1
 800239a:	b2d9      	uxtb	r1, r3
 800239c:	20c0      	movs	r0, #192	@ 0xc0
 800239e:	183b      	adds	r3, r7, r0
 80023a0:	681b      	ldr	r3, [r3, #0]
 80023a2:	b2da      	uxtb	r2, r3
 80023a4:	25c4      	movs	r5, #196	@ 0xc4
 80023a6:	197b      	adds	r3, r7, r5
 80023a8:	681b      	ldr	r3, [r3, #0]
 80023aa:	b2db      	uxtb	r3, r3
 80023ac:	3b01      	subs	r3, #1
 80023ae:	b2dc      	uxtb	r4, r3
 80023b0:	183b      	adds	r3, r7, r0
 80023b2:	681b      	ldr	r3, [r3, #0]
 80023b4:	b2db      	uxtb	r3, r3
 80023b6:	48ab      	ldr	r0, [pc, #684]	@ (8002664 <displayVoltReadFunction+0x58c>)
 80023b8:	2501      	movs	r5, #1
 80023ba:	9501      	str	r5, [sp, #4]
 80023bc:	9300      	str	r3, [sp, #0]
 80023be:	0023      	movs	r3, r4
 80023c0:	f7ff f8e6 	bl	8001590 <st7565_drawline>
			st7565_drawline(buffer, bar_x0 + 1, bar_y1, bar_x1 - 1, bar_y1, 1);
 80023c4:	19bb      	adds	r3, r7, r6
 80023c6:	681b      	ldr	r3, [r3, #0]
 80023c8:	b2db      	uxtb	r3, r3
 80023ca:	3301      	adds	r3, #1
 80023cc:	b2d9      	uxtb	r1, r3
 80023ce:	23bc      	movs	r3, #188	@ 0xbc
 80023d0:	0018      	movs	r0, r3
 80023d2:	18fb      	adds	r3, r7, r3
 80023d4:	681b      	ldr	r3, [r3, #0]
 80023d6:	b2da      	uxtb	r2, r3
 80023d8:	25c4      	movs	r5, #196	@ 0xc4
 80023da:	197b      	adds	r3, r7, r5
 80023dc:	681b      	ldr	r3, [r3, #0]
 80023de:	b2db      	uxtb	r3, r3
 80023e0:	3b01      	subs	r3, #1
 80023e2:	b2dc      	uxtb	r4, r3
 80023e4:	0003      	movs	r3, r0
 80023e6:	18fb      	adds	r3, r7, r3
 80023e8:	681b      	ldr	r3, [r3, #0]
 80023ea:	b2db      	uxtb	r3, r3
 80023ec:	489d      	ldr	r0, [pc, #628]	@ (8002664 <displayVoltReadFunction+0x58c>)
 80023ee:	2501      	movs	r5, #1
 80023f0:	9501      	str	r5, [sp, #4]
 80023f2:	9300      	str	r3, [sp, #0]
 80023f4:	0023      	movs	r3, r4
 80023f6:	f7ff f8cb 	bl	8001590 <st7565_drawline>
			st7565_drawline(buffer, bar_x0, bar_y0 + 1, bar_x0, bar_y1 - 1, 1);
 80023fa:	19ba      	adds	r2, r7, r6
 80023fc:	6813      	ldr	r3, [r2, #0]
 80023fe:	b2d9      	uxtb	r1, r3
 8002400:	20c0      	movs	r0, #192	@ 0xc0
 8002402:	183a      	adds	r2, r7, r0
 8002404:	6813      	ldr	r3, [r2, #0]
 8002406:	b2db      	uxtb	r3, r3
 8002408:	3301      	adds	r3, #1
 800240a:	b2da      	uxtb	r2, r3
 800240c:	19bc      	adds	r4, r7, r6
 800240e:	6823      	ldr	r3, [r4, #0]
 8002410:	b2dc      	uxtb	r4, r3
 8002412:	23bc      	movs	r3, #188	@ 0xbc
 8002414:	18fb      	adds	r3, r7, r3
 8002416:	681b      	ldr	r3, [r3, #0]
 8002418:	b2db      	uxtb	r3, r3
 800241a:	3b01      	subs	r3, #1
 800241c:	b2db      	uxtb	r3, r3
 800241e:	4891      	ldr	r0, [pc, #580]	@ (8002664 <displayVoltReadFunction+0x58c>)
 8002420:	2501      	movs	r5, #1
 8002422:	9501      	str	r5, [sp, #4]
 8002424:	9300      	str	r3, [sp, #0]
 8002426:	0023      	movs	r3, r4
 8002428:	f7ff f8b2 	bl	8001590 <st7565_drawline>
			st7565_drawline(buffer, bar_x1, bar_y0 + 1, bar_x1, bar_y1 - 1, 1);
 800242c:	25c4      	movs	r5, #196	@ 0xc4
 800242e:	197a      	adds	r2, r7, r5
 8002430:	6813      	ldr	r3, [r2, #0]
 8002432:	b2d9      	uxtb	r1, r3
 8002434:	20c0      	movs	r0, #192	@ 0xc0
 8002436:	183a      	adds	r2, r7, r0
 8002438:	6813      	ldr	r3, [r2, #0]
 800243a:	b2db      	uxtb	r3, r3
 800243c:	3301      	adds	r3, #1
 800243e:	b2da      	uxtb	r2, r3
 8002440:	1978      	adds	r0, r7, r5
 8002442:	6803      	ldr	r3, [r0, #0]
 8002444:	b2dc      	uxtb	r4, r3
 8002446:	23bc      	movs	r3, #188	@ 0xbc
 8002448:	18fb      	adds	r3, r7, r3
 800244a:	681b      	ldr	r3, [r3, #0]
 800244c:	b2db      	uxtb	r3, r3
 800244e:	3b01      	subs	r3, #1
 8002450:	b2db      	uxtb	r3, r3
 8002452:	4884      	ldr	r0, [pc, #528]	@ (8002664 <displayVoltReadFunction+0x58c>)
 8002454:	2501      	movs	r5, #1
 8002456:	9501      	str	r5, [sp, #4]
 8002458:	9300      	str	r3, [sp, #0]
 800245a:	0023      	movs	r3, r4
 800245c:	f7ff f898 	bl	8001590 <st7565_drawline>
			st7565_setpixel(buffer, bar_x0 + 1, bar_y0 + 1, 1);
 8002460:	19ba      	adds	r2, r7, r6
 8002462:	6813      	ldr	r3, [r2, #0]
 8002464:	b2db      	uxtb	r3, r3
 8002466:	3301      	adds	r3, #1
 8002468:	b2d9      	uxtb	r1, r3
 800246a:	24c0      	movs	r4, #192	@ 0xc0
 800246c:	193a      	adds	r2, r7, r4
 800246e:	6813      	ldr	r3, [r2, #0]
 8002470:	b2db      	uxtb	r3, r3
 8002472:	3301      	adds	r3, #1
 8002474:	b2da      	uxtb	r2, r3
 8002476:	487b      	ldr	r0, [pc, #492]	@ (8002664 <displayVoltReadFunction+0x58c>)
 8002478:	2301      	movs	r3, #1
 800247a:	f7fe fd68 	bl	8000f4e <st7565_setpixel>
			st7565_setpixel(buffer, bar_x0 + 1, bar_y1 - 1, 1);
 800247e:	19ba      	adds	r2, r7, r6
 8002480:	6813      	ldr	r3, [r2, #0]
 8002482:	b2db      	uxtb	r3, r3
 8002484:	3301      	adds	r3, #1
 8002486:	b2d9      	uxtb	r1, r3
 8002488:	26bc      	movs	r6, #188	@ 0xbc
 800248a:	19bb      	adds	r3, r7, r6
 800248c:	681b      	ldr	r3, [r3, #0]
 800248e:	b2db      	uxtb	r3, r3
 8002490:	3b01      	subs	r3, #1
 8002492:	b2da      	uxtb	r2, r3
 8002494:	4873      	ldr	r0, [pc, #460]	@ (8002664 <displayVoltReadFunction+0x58c>)
 8002496:	2301      	movs	r3, #1
 8002498:	f7fe fd59 	bl	8000f4e <st7565_setpixel>
			st7565_setpixel(buffer, bar_x1 - 1, bar_y0 + 1, 1);
 800249c:	25c4      	movs	r5, #196	@ 0xc4
 800249e:	197b      	adds	r3, r7, r5
 80024a0:	681b      	ldr	r3, [r3, #0]
 80024a2:	b2db      	uxtb	r3, r3
 80024a4:	3b01      	subs	r3, #1
 80024a6:	b2d9      	uxtb	r1, r3
 80024a8:	193b      	adds	r3, r7, r4
 80024aa:	681b      	ldr	r3, [r3, #0]
 80024ac:	b2db      	uxtb	r3, r3
 80024ae:	3301      	adds	r3, #1
 80024b0:	b2da      	uxtb	r2, r3
 80024b2:	486c      	ldr	r0, [pc, #432]	@ (8002664 <displayVoltReadFunction+0x58c>)
 80024b4:	2301      	movs	r3, #1
 80024b6:	f7fe fd4a 	bl	8000f4e <st7565_setpixel>
			st7565_setpixel(buffer, bar_x1 - 1, bar_y1 - 1, 1);
 80024ba:	197b      	adds	r3, r7, r5
 80024bc:	681b      	ldr	r3, [r3, #0]
 80024be:	b2db      	uxtb	r3, r3
 80024c0:	3b01      	subs	r3, #1
 80024c2:	b2d9      	uxtb	r1, r3
 80024c4:	19bb      	adds	r3, r7, r6
 80024c6:	681b      	ldr	r3, [r3, #0]
 80024c8:	b2db      	uxtb	r3, r3
 80024ca:	3b01      	subs	r3, #1
 80024cc:	b2da      	uxtb	r2, r3
 80024ce:	4865      	ldr	r0, [pc, #404]	@ (8002664 <displayVoltReadFunction+0x58c>)
 80024d0:	2301      	movs	r3, #1
 80024d2:	f7fe fd3c 	bl	8000f4e <st7565_setpixel>
			st7565_drawstring(buffer, 0, 5, "0", fontMode);
 80024d6:	4b64      	ldr	r3, [pc, #400]	@ (8002668 <displayVoltReadFunction+0x590>)
 80024d8:	781b      	ldrb	r3, [r3, #0]
 80024da:	4a64      	ldr	r2, [pc, #400]	@ (800266c <displayVoltReadFunction+0x594>)
 80024dc:	4861      	ldr	r0, [pc, #388]	@ (8002664 <displayVoltReadFunction+0x58c>)
 80024de:	9300      	str	r3, [sp, #0]
 80024e0:	0013      	movs	r3, r2
 80024e2:	2205      	movs	r2, #5
 80024e4:	2100      	movs	r1, #0
 80024e6:	f7fe fd9d 	bl	8001024 <st7565_drawstring>
			st7565_drawstring(buffer, 20, 5, "0.8", fontMode);
 80024ea:	4b5f      	ldr	r3, [pc, #380]	@ (8002668 <displayVoltReadFunction+0x590>)
 80024ec:	781b      	ldrb	r3, [r3, #0]
 80024ee:	4a60      	ldr	r2, [pc, #384]	@ (8002670 <displayVoltReadFunction+0x598>)
 80024f0:	485c      	ldr	r0, [pc, #368]	@ (8002664 <displayVoltReadFunction+0x58c>)
 80024f2:	9300      	str	r3, [sp, #0]
 80024f4:	0013      	movs	r3, r2
 80024f6:	2205      	movs	r2, #5
 80024f8:	2114      	movs	r1, #20
 80024fa:	f7fe fd93 	bl	8001024 <st7565_drawstring>
			st7565_drawstring(buffer, 45, 5, "1.6", fontMode);
 80024fe:	4b5a      	ldr	r3, [pc, #360]	@ (8002668 <displayVoltReadFunction+0x590>)
 8002500:	781b      	ldrb	r3, [r3, #0]
 8002502:	4a5c      	ldr	r2, [pc, #368]	@ (8002674 <displayVoltReadFunction+0x59c>)
 8002504:	4857      	ldr	r0, [pc, #348]	@ (8002664 <displayVoltReadFunction+0x58c>)
 8002506:	9300      	str	r3, [sp, #0]
 8002508:	0013      	movs	r3, r2
 800250a:	2205      	movs	r2, #5
 800250c:	212d      	movs	r1, #45	@ 0x2d
 800250e:	f7fe fd89 	bl	8001024 <st7565_drawstring>
			st7565_drawstring(buffer, 75, 5, "2.5", fontMode);
 8002512:	4b55      	ldr	r3, [pc, #340]	@ (8002668 <displayVoltReadFunction+0x590>)
 8002514:	781b      	ldrb	r3, [r3, #0]
 8002516:	4a58      	ldr	r2, [pc, #352]	@ (8002678 <displayVoltReadFunction+0x5a0>)
 8002518:	4852      	ldr	r0, [pc, #328]	@ (8002664 <displayVoltReadFunction+0x58c>)
 800251a:	9300      	str	r3, [sp, #0]
 800251c:	0013      	movs	r3, r2
 800251e:	2205      	movs	r2, #5
 8002520:	214b      	movs	r1, #75	@ 0x4b
 8002522:	f7fe fd7f 	bl	8001024 <st7565_drawstring>
			st7565_drawstring(buffer, 108, 5, "3.3", fontMode);
 8002526:	4b50      	ldr	r3, [pc, #320]	@ (8002668 <displayVoltReadFunction+0x590>)
 8002528:	781b      	ldrb	r3, [r3, #0]
 800252a:	4a54      	ldr	r2, [pc, #336]	@ (800267c <displayVoltReadFunction+0x5a4>)
 800252c:	484d      	ldr	r0, [pc, #308]	@ (8002664 <displayVoltReadFunction+0x58c>)
 800252e:	9300      	str	r3, [sp, #0]
 8002530:	0013      	movs	r3, r2
 8002532:	2205      	movs	r2, #5
 8002534:	216c      	movs	r1, #108	@ 0x6c
 8002536:	f7fe fd75 	bl	8001024 <st7565_drawstring>
 800253a:	e193      	b.n	8002864 <displayVoltReadFunction+0x78c>
		} else if (displayMode == 2) { //Display osciloscop
 800253c:	4b50      	ldr	r3, [pc, #320]	@ (8002680 <displayVoltReadFunction+0x5a8>)
 800253e:	781b      	ldrb	r3, [r3, #0]
 8002540:	2b02      	cmp	r3, #2
 8002542:	d000      	beq.n	8002546 <displayVoltReadFunction+0x46e>
 8002544:	e180      	b.n	8002848 <displayVoltReadFunction+0x770>
			uint16_t idx = oscilloscopeTriggerIndex;
 8002546:	23e6      	movs	r3, #230	@ 0xe6
 8002548:	18fb      	adds	r3, r7, r3
 800254a:	4a4e      	ldr	r2, [pc, #312]	@ (8002684 <displayVoltReadFunction+0x5ac>)
 800254c:	8812      	ldrh	r2, [r2, #0]
 800254e:	801a      	strh	r2, [r3, #0]
			for (uint8_t x = 0; x < 128; x++) {
 8002550:	23e5      	movs	r3, #229	@ 0xe5
 8002552:	18fb      	adds	r3, r7, r3
 8002554:	2200      	movs	r2, #0
 8002556:	701a      	strb	r2, [r3, #0]
 8002558:	e039      	b.n	80025ce <displayVoltReadFunction+0x4f6>
				uint16_t value = oscilloscopeBuffer[idx];
 800255a:	23e6      	movs	r3, #230	@ 0xe6
 800255c:	18fb      	adds	r3, r7, r3
 800255e:	8819      	ldrh	r1, [r3, #0]
 8002560:	20ce      	movs	r0, #206	@ 0xce
 8002562:	183b      	adds	r3, r7, r0
 8002564:	4a48      	ldr	r2, [pc, #288]	@ (8002688 <displayVoltReadFunction+0x5b0>)
 8002566:	0049      	lsls	r1, r1, #1
 8002568:	5a8a      	ldrh	r2, [r1, r2]
 800256a:	801a      	strh	r2, [r3, #0]
				uint8_t y = 63 - (value * 63 / 4095);
 800256c:	183b      	adds	r3, r7, r0
 800256e:	881b      	ldrh	r3, [r3, #0]
 8002570:	2241      	movs	r2, #65	@ 0x41
 8002572:	4251      	negs	r1, r2
 8002574:	0018      	movs	r0, r3
 8002576:	f7fd fe4f 	bl	8000218 <__divsi3>
 800257a:	0003      	movs	r3, r0
 800257c:	b2da      	uxtb	r2, r3
 800257e:	21e4      	movs	r1, #228	@ 0xe4
 8002580:	187b      	adds	r3, r7, r1
 8002582:	323f      	adds	r2, #63	@ 0x3f
 8002584:	701a      	strb	r2, [r3, #0]
				if (y > 63)
 8002586:	187b      	adds	r3, r7, r1
 8002588:	781b      	ldrb	r3, [r3, #0]
 800258a:	2b3f      	cmp	r3, #63	@ 0x3f
 800258c:	d902      	bls.n	8002594 <displayVoltReadFunction+0x4bc>
					y = 63;
 800258e:	187b      	adds	r3, r7, r1
 8002590:	223f      	movs	r2, #63	@ 0x3f
 8002592:	701a      	strb	r2, [r3, #0]
				st7565_setpixel(buffer, x, y, 1);
 8002594:	23e4      	movs	r3, #228	@ 0xe4
 8002596:	18fb      	adds	r3, r7, r3
 8002598:	781a      	ldrb	r2, [r3, #0]
 800259a:	23e5      	movs	r3, #229	@ 0xe5
 800259c:	18fb      	adds	r3, r7, r3
 800259e:	7819      	ldrb	r1, [r3, #0]
 80025a0:	4830      	ldr	r0, [pc, #192]	@ (8002664 <displayVoltReadFunction+0x58c>)
 80025a2:	2301      	movs	r3, #1
 80025a4:	f7fe fcd3 	bl	8000f4e <st7565_setpixel>
				idx += 2;
 80025a8:	21e6      	movs	r1, #230	@ 0xe6
 80025aa:	187b      	adds	r3, r7, r1
 80025ac:	187a      	adds	r2, r7, r1
 80025ae:	8812      	ldrh	r2, [r2, #0]
 80025b0:	3202      	adds	r2, #2
 80025b2:	801a      	strh	r2, [r3, #0]
				if (idx >= 256)
 80025b4:	187b      	adds	r3, r7, r1
 80025b6:	881b      	ldrh	r3, [r3, #0]
 80025b8:	2bff      	cmp	r3, #255	@ 0xff
 80025ba:	d902      	bls.n	80025c2 <displayVoltReadFunction+0x4ea>
					idx = 1;
 80025bc:	187b      	adds	r3, r7, r1
 80025be:	2201      	movs	r2, #1
 80025c0:	801a      	strh	r2, [r3, #0]
			for (uint8_t x = 0; x < 128; x++) {
 80025c2:	21e5      	movs	r1, #229	@ 0xe5
 80025c4:	187b      	adds	r3, r7, r1
 80025c6:	781a      	ldrb	r2, [r3, #0]
 80025c8:	187b      	adds	r3, r7, r1
 80025ca:	3201      	adds	r2, #1
 80025cc:	701a      	strb	r2, [r3, #0]
 80025ce:	23e5      	movs	r3, #229	@ 0xe5
 80025d0:	18fb      	adds	r3, r7, r3
 80025d2:	781b      	ldrb	r3, [r3, #0]
 80025d4:	b25b      	sxtb	r3, r3
 80025d6:	2b00      	cmp	r3, #0
 80025d8:	dabf      	bge.n	800255a <displayVoltReadFunction+0x482>
			uint8_t freq_str[8] = { 0 };
 80025da:	2588      	movs	r5, #136	@ 0x88
 80025dc:	197b      	adds	r3, r7, r5
 80025de:	0018      	movs	r0, r3
 80025e0:	2308      	movs	r3, #8
 80025e2:	001a      	movs	r2, r3
 80025e4:	2100      	movs	r1, #0
 80025e6:	f003 faef 	bl	8005bc8 <memset>
			uint8_t trig_str[15] = "Trig:    ";
 80025ea:	2378      	movs	r3, #120	@ 0x78
 80025ec:	18f9      	adds	r1, r7, r3
 80025ee:	4a27      	ldr	r2, [pc, #156]	@ (800268c <displayVoltReadFunction+0x5b4>)
 80025f0:	000b      	movs	r3, r1
 80025f2:	ca11      	ldmia	r2!, {r0, r4}
 80025f4:	c311      	stmia	r3!, {r0, r4}
 80025f6:	8812      	ldrh	r2, [r2, #0]
 80025f8:	801a      	strh	r2, [r3, #0]
 80025fa:	230a      	movs	r3, #10
 80025fc:	18cb      	adds	r3, r1, r3
 80025fe:	2205      	movs	r2, #5
 8002600:	2100      	movs	r1, #0
 8002602:	0018      	movs	r0, r3
 8002604:	f003 fae0 	bl	8005bc8 <memset>
			freq_str[2] = 'H';
 8002608:	197b      	adds	r3, r7, r5
 800260a:	2248      	movs	r2, #72	@ 0x48
 800260c:	709a      	strb	r2, [r3, #2]
			freq_str[3] = 'z';
 800260e:	197b      	adds	r3, r7, r5
 8002610:	227a      	movs	r2, #122	@ 0x7a
 8002612:	70da      	strb	r2, [r3, #3]
			freq_str[4] = '\0';
 8002614:	197b      	adds	r3, r7, r5
 8002616:	2200      	movs	r2, #0
 8002618:	711a      	strb	r2, [r3, #4]
			switch (currentFreqMode) {
 800261a:	4b1d      	ldr	r3, [pc, #116]	@ (8002690 <displayVoltReadFunction+0x5b8>)
 800261c:	781b      	ldrb	r3, [r3, #0]
 800261e:	2b02      	cmp	r3, #2
 8002620:	d015      	beq.n	800264e <displayVoltReadFunction+0x576>
 8002622:	dc37      	bgt.n	8002694 <displayVoltReadFunction+0x5bc>
 8002624:	2b00      	cmp	r3, #0
 8002626:	d002      	beq.n	800262e <displayVoltReadFunction+0x556>
 8002628:	2b01      	cmp	r3, #1
 800262a:	d008      	beq.n	800263e <displayVoltReadFunction+0x566>
 800262c:	e032      	b.n	8002694 <displayVoltReadFunction+0x5bc>
				freq_str[0] = '4';
 800262e:	2188      	movs	r1, #136	@ 0x88
 8002630:	187b      	adds	r3, r7, r1
 8002632:	2234      	movs	r2, #52	@ 0x34
 8002634:	701a      	strb	r2, [r3, #0]
				freq_str[1] = '0';
 8002636:	187b      	adds	r3, r7, r1
 8002638:	2230      	movs	r2, #48	@ 0x30
 800263a:	705a      	strb	r2, [r3, #1]
				break;
 800263c:	e032      	b.n	80026a4 <displayVoltReadFunction+0x5cc>
				freq_str[0] = '5';
 800263e:	2188      	movs	r1, #136	@ 0x88
 8002640:	187b      	adds	r3, r7, r1
 8002642:	2235      	movs	r2, #53	@ 0x35
 8002644:	701a      	strb	r2, [r3, #0]
				freq_str[1] = '0';
 8002646:	187b      	adds	r3, r7, r1
 8002648:	2230      	movs	r2, #48	@ 0x30
 800264a:	705a      	strb	r2, [r3, #1]
				break;
 800264c:	e02a      	b.n	80026a4 <displayVoltReadFunction+0x5cc>
				freq_str[0] = '6';
 800264e:	2188      	movs	r1, #136	@ 0x88
 8002650:	187b      	adds	r3, r7, r1
 8002652:	2236      	movs	r2, #54	@ 0x36
 8002654:	701a      	strb	r2, [r3, #0]
				freq_str[1] = '0';
 8002656:	187b      	adds	r3, r7, r1
 8002658:	2230      	movs	r2, #48	@ 0x30
 800265a:	705a      	strb	r2, [r3, #1]
				break;
 800265c:	e022      	b.n	80026a4 <displayVoltReadFunction+0x5cc>
 800265e:	46c0      	nop			@ (mov r8, r8)
 8002660:	200005b8 	.word	0x200005b8
 8002664:	20000014 	.word	0x20000014
 8002668:	200005c0 	.word	0x200005c0
 800266c:	08005cec 	.word	0x08005cec
 8002670:	08005cf0 	.word	0x08005cf0
 8002674:	08005cf4 	.word	0x08005cf4
 8002678:	08005cf8 	.word	0x08005cf8
 800267c:	08005cfc 	.word	0x08005cfc
 8002680:	2000000a 	.word	0x2000000a
 8002684:	200009fc 	.word	0x200009fc
 8002688:	200007fc 	.word	0x200007fc
 800268c:	08005d6c 	.word	0x08005d6c
 8002690:	20000004 	.word	0x20000004
				freq_str[0] = '?';
 8002694:	2188      	movs	r1, #136	@ 0x88
 8002696:	187b      	adds	r3, r7, r1
 8002698:	223f      	movs	r2, #63	@ 0x3f
 800269a:	701a      	strb	r2, [r3, #0]
				freq_str[1] = '?';
 800269c:	187b      	adds	r3, r7, r1
 800269e:	223f      	movs	r2, #63	@ 0x3f
 80026a0:	705a      	strb	r2, [r3, #1]
				break;
 80026a2:	46c0      	nop			@ (mov r8, r8)
			uint16_t trig = oscilloscopeTrigger;
 80026a4:	25d6      	movs	r5, #214	@ 0xd6
 80026a6:	197b      	adds	r3, r7, r5
 80026a8:	4ad7      	ldr	r2, [pc, #860]	@ (8002a08 <displayVoltReadFunction+0x930>)
 80026aa:	8812      	ldrh	r2, [r2, #0]
 80026ac:	801a      	strh	r2, [r3, #0]
			trig_str[5] = (trig / 100) % 10 + '0';
 80026ae:	197b      	adds	r3, r7, r5
 80026b0:	881b      	ldrh	r3, [r3, #0]
 80026b2:	2164      	movs	r1, #100	@ 0x64
 80026b4:	0018      	movs	r0, r3
 80026b6:	f7fd fd25 	bl	8000104 <__udivsi3>
 80026ba:	0003      	movs	r3, r0
 80026bc:	b29b      	uxth	r3, r3
 80026be:	210a      	movs	r1, #10
 80026c0:	0018      	movs	r0, r3
 80026c2:	f7fd fda5 	bl	8000210 <__aeabi_uidivmod>
 80026c6:	000b      	movs	r3, r1
 80026c8:	b29b      	uxth	r3, r3
 80026ca:	b2db      	uxtb	r3, r3
 80026cc:	3330      	adds	r3, #48	@ 0x30
 80026ce:	b2da      	uxtb	r2, r3
 80026d0:	2478      	movs	r4, #120	@ 0x78
 80026d2:	193b      	adds	r3, r7, r4
 80026d4:	715a      	strb	r2, [r3, #5]
			trig_str[6] = ',';
 80026d6:	193b      	adds	r3, r7, r4
 80026d8:	222c      	movs	r2, #44	@ 0x2c
 80026da:	719a      	strb	r2, [r3, #6]
			trig_str[7] = (trig / 10) % 10 + '0';
 80026dc:	197b      	adds	r3, r7, r5
 80026de:	881b      	ldrh	r3, [r3, #0]
 80026e0:	210a      	movs	r1, #10
 80026e2:	0018      	movs	r0, r3
 80026e4:	f7fd fd0e 	bl	8000104 <__udivsi3>
 80026e8:	0003      	movs	r3, r0
 80026ea:	b29b      	uxth	r3, r3
 80026ec:	210a      	movs	r1, #10
 80026ee:	0018      	movs	r0, r3
 80026f0:	f7fd fd8e 	bl	8000210 <__aeabi_uidivmod>
 80026f4:	000b      	movs	r3, r1
 80026f6:	b29b      	uxth	r3, r3
 80026f8:	b2db      	uxtb	r3, r3
 80026fa:	3330      	adds	r3, #48	@ 0x30
 80026fc:	b2da      	uxtb	r2, r3
 80026fe:	193b      	adds	r3, r7, r4
 8002700:	71da      	strb	r2, [r3, #7]
			trig_str[8] = (trig % 10) + '0';
 8002702:	197b      	adds	r3, r7, r5
 8002704:	881b      	ldrh	r3, [r3, #0]
 8002706:	210a      	movs	r1, #10
 8002708:	0018      	movs	r0, r3
 800270a:	f7fd fd81 	bl	8000210 <__aeabi_uidivmod>
 800270e:	000b      	movs	r3, r1
 8002710:	b29b      	uxth	r3, r3
 8002712:	b2db      	uxtb	r3, r3
 8002714:	3330      	adds	r3, #48	@ 0x30
 8002716:	b2da      	uxtb	r2, r3
 8002718:	193b      	adds	r3, r7, r4
 800271a:	721a      	strb	r2, [r3, #8]
			trig_str[9] = 'V';
 800271c:	193b      	adds	r3, r7, r4
 800271e:	2256      	movs	r2, #86	@ 0x56
 8002720:	725a      	strb	r2, [r3, #9]
			trig_str[10] = '\0';
 8002722:	193b      	adds	r3, r7, r4
 8002724:	2200      	movs	r2, #0
 8002726:	729a      	strb	r2, [r3, #10]
			st7565_drawstring(buffer, 90, 0, freq_str, fontMode);
 8002728:	4bb8      	ldr	r3, [pc, #736]	@ (8002a0c <displayVoltReadFunction+0x934>)
 800272a:	781b      	ldrb	r3, [r3, #0]
 800272c:	2288      	movs	r2, #136	@ 0x88
 800272e:	18ba      	adds	r2, r7, r2
 8002730:	48b7      	ldr	r0, [pc, #732]	@ (8002a10 <displayVoltReadFunction+0x938>)
 8002732:	9300      	str	r3, [sp, #0]
 8002734:	0013      	movs	r3, r2
 8002736:	2200      	movs	r2, #0
 8002738:	215a      	movs	r1, #90	@ 0x5a
 800273a:	f7fe fc73 	bl	8001024 <st7565_drawstring>
			st7565_drawstring(buffer, 5, 0, trig_str, fontMode);
 800273e:	4bb3      	ldr	r3, [pc, #716]	@ (8002a0c <displayVoltReadFunction+0x934>)
 8002740:	781b      	ldrb	r3, [r3, #0]
 8002742:	193a      	adds	r2, r7, r4
 8002744:	48b2      	ldr	r0, [pc, #712]	@ (8002a10 <displayVoltReadFunction+0x938>)
 8002746:	9300      	str	r3, [sp, #0]
 8002748:	0013      	movs	r3, r2
 800274a:	2200      	movs	r2, #0
 800274c:	2105      	movs	r1, #5
 800274e:	f7fe fc69 	bl	8001024 <st7565_drawstring>
			st7565_drawstring(buffer, 2, 7, "0", fontMode);
 8002752:	4bae      	ldr	r3, [pc, #696]	@ (8002a0c <displayVoltReadFunction+0x934>)
 8002754:	781b      	ldrb	r3, [r3, #0]
 8002756:	4aaf      	ldr	r2, [pc, #700]	@ (8002a14 <displayVoltReadFunction+0x93c>)
 8002758:	48ad      	ldr	r0, [pc, #692]	@ (8002a10 <displayVoltReadFunction+0x938>)
 800275a:	9300      	str	r3, [sp, #0]
 800275c:	0013      	movs	r3, r2
 800275e:	2207      	movs	r2, #7
 8002760:	2102      	movs	r1, #2
 8002762:	f7fe fc5f 	bl	8001024 <st7565_drawstring>
			st7565_drawstring(buffer, 58, 7, "20", fontMode);
 8002766:	4ba9      	ldr	r3, [pc, #676]	@ (8002a0c <displayVoltReadFunction+0x934>)
 8002768:	781b      	ldrb	r3, [r3, #0]
 800276a:	4aab      	ldr	r2, [pc, #684]	@ (8002a18 <displayVoltReadFunction+0x940>)
 800276c:	48a8      	ldr	r0, [pc, #672]	@ (8002a10 <displayVoltReadFunction+0x938>)
 800276e:	9300      	str	r3, [sp, #0]
 8002770:	0013      	movs	r3, r2
 8002772:	2207      	movs	r2, #7
 8002774:	213a      	movs	r1, #58	@ 0x3a
 8002776:	f7fe fc55 	bl	8001024 <st7565_drawstring>
			st7565_drawstring(buffer, 112, 7, "ms", fontMode);
 800277a:	4ba4      	ldr	r3, [pc, #656]	@ (8002a0c <displayVoltReadFunction+0x934>)
 800277c:	781b      	ldrb	r3, [r3, #0]
 800277e:	4aa7      	ldr	r2, [pc, #668]	@ (8002a1c <displayVoltReadFunction+0x944>)
 8002780:	48a3      	ldr	r0, [pc, #652]	@ (8002a10 <displayVoltReadFunction+0x938>)
 8002782:	9300      	str	r3, [sp, #0]
 8002784:	0013      	movs	r3, r2
 8002786:	2207      	movs	r2, #7
 8002788:	2170      	movs	r1, #112	@ 0x70
 800278a:	f7fe fc4b 	bl	8001024 <st7565_drawstring>
			uint8_t num_ticks = 10;
 800278e:	23d5      	movs	r3, #213	@ 0xd5
 8002790:	18fb      	adds	r3, r7, r3
 8002792:	220a      	movs	r2, #10
 8002794:	701a      	strb	r2, [r3, #0]
			uint8_t x0 = 0;
 8002796:	23d4      	movs	r3, #212	@ 0xd4
 8002798:	18fb      	adds	r3, r7, r3
 800279a:	2200      	movs	r2, #0
 800279c:	701a      	strb	r2, [r3, #0]
			uint8_t x1 = 127;
 800279e:	23d3      	movs	r3, #211	@ 0xd3
 80027a0:	18fb      	adds	r3, r7, r3
 80027a2:	227f      	movs	r2, #127	@ 0x7f
 80027a4:	701a      	strb	r2, [r3, #0]
			uint8_t y_bottom = 63;
 80027a6:	23d2      	movs	r3, #210	@ 0xd2
 80027a8:	18fb      	adds	r3, r7, r3
 80027aa:	223f      	movs	r2, #63	@ 0x3f
 80027ac:	701a      	strb	r2, [r3, #0]
			for (uint8_t t = 0; t < num_ticks; t++) {
 80027ae:	23e3      	movs	r3, #227	@ 0xe3
 80027b0:	18fb      	adds	r3, r7, r3
 80027b2:	2200      	movs	r2, #0
 80027b4:	701a      	strb	r2, [r3, #0]
 80027b6:	e03e      	b.n	8002836 <displayVoltReadFunction+0x75e>
				uint8_t x_tick = x0 + (x1 - x0) * t / (num_ticks - 1);
 80027b8:	23d3      	movs	r3, #211	@ 0xd3
 80027ba:	18fb      	adds	r3, r7, r3
 80027bc:	781a      	ldrb	r2, [r3, #0]
 80027be:	24d4      	movs	r4, #212	@ 0xd4
 80027c0:	193b      	adds	r3, r7, r4
 80027c2:	781b      	ldrb	r3, [r3, #0]
 80027c4:	1ad3      	subs	r3, r2, r3
 80027c6:	22e3      	movs	r2, #227	@ 0xe3
 80027c8:	18ba      	adds	r2, r7, r2
 80027ca:	7812      	ldrb	r2, [r2, #0]
 80027cc:	435a      	muls	r2, r3
 80027ce:	23d5      	movs	r3, #213	@ 0xd5
 80027d0:	18fb      	adds	r3, r7, r3
 80027d2:	781b      	ldrb	r3, [r3, #0]
 80027d4:	3b01      	subs	r3, #1
 80027d6:	0019      	movs	r1, r3
 80027d8:	0010      	movs	r0, r2
 80027da:	f7fd fd1d 	bl	8000218 <__divsi3>
 80027de:	0003      	movs	r3, r0
 80027e0:	b2d9      	uxtb	r1, r3
 80027e2:	23d1      	movs	r3, #209	@ 0xd1
 80027e4:	18fb      	adds	r3, r7, r3
 80027e6:	193a      	adds	r2, r7, r4
 80027e8:	7812      	ldrb	r2, [r2, #0]
 80027ea:	188a      	adds	r2, r1, r2
 80027ec:	701a      	strb	r2, [r3, #0]
				for (uint8_t dy = 0; dy < 3; dy++) {
 80027ee:	23e2      	movs	r3, #226	@ 0xe2
 80027f0:	18fb      	adds	r3, r7, r3
 80027f2:	2200      	movs	r2, #0
 80027f4:	701a      	strb	r2, [r3, #0]
 80027f6:	e013      	b.n	8002820 <displayVoltReadFunction+0x748>
					st7565_setpixel(buffer, x_tick, y_bottom - dy, 1);
 80027f8:	23d2      	movs	r3, #210	@ 0xd2
 80027fa:	18fa      	adds	r2, r7, r3
 80027fc:	24e2      	movs	r4, #226	@ 0xe2
 80027fe:	193b      	adds	r3, r7, r4
 8002800:	7812      	ldrb	r2, [r2, #0]
 8002802:	781b      	ldrb	r3, [r3, #0]
 8002804:	1ad3      	subs	r3, r2, r3
 8002806:	b2da      	uxtb	r2, r3
 8002808:	23d1      	movs	r3, #209	@ 0xd1
 800280a:	18fb      	adds	r3, r7, r3
 800280c:	7819      	ldrb	r1, [r3, #0]
 800280e:	4880      	ldr	r0, [pc, #512]	@ (8002a10 <displayVoltReadFunction+0x938>)
 8002810:	2301      	movs	r3, #1
 8002812:	f7fe fb9c 	bl	8000f4e <st7565_setpixel>
				for (uint8_t dy = 0; dy < 3; dy++) {
 8002816:	193b      	adds	r3, r7, r4
 8002818:	781a      	ldrb	r2, [r3, #0]
 800281a:	193b      	adds	r3, r7, r4
 800281c:	3201      	adds	r2, #1
 800281e:	701a      	strb	r2, [r3, #0]
 8002820:	23e2      	movs	r3, #226	@ 0xe2
 8002822:	18fb      	adds	r3, r7, r3
 8002824:	781b      	ldrb	r3, [r3, #0]
 8002826:	2b02      	cmp	r3, #2
 8002828:	d9e6      	bls.n	80027f8 <displayVoltReadFunction+0x720>
			for (uint8_t t = 0; t < num_ticks; t++) {
 800282a:	21e3      	movs	r1, #227	@ 0xe3
 800282c:	187b      	adds	r3, r7, r1
 800282e:	781a      	ldrb	r2, [r3, #0]
 8002830:	187b      	adds	r3, r7, r1
 8002832:	3201      	adds	r2, #1
 8002834:	701a      	strb	r2, [r3, #0]
 8002836:	23e3      	movs	r3, #227	@ 0xe3
 8002838:	18fa      	adds	r2, r7, r3
 800283a:	23d5      	movs	r3, #213	@ 0xd5
 800283c:	18fb      	adds	r3, r7, r3
 800283e:	7812      	ldrb	r2, [r2, #0]
 8002840:	781b      	ldrb	r3, [r3, #0]
 8002842:	429a      	cmp	r2, r3
 8002844:	d3b8      	bcc.n	80027b8 <displayVoltReadFunction+0x6e0>
 8002846:	e00d      	b.n	8002864 <displayVoltReadFunction+0x78c>
		} else if (displayMode == 100) { //Display debug font
 8002848:	4b75      	ldr	r3, [pc, #468]	@ (8002a20 <displayVoltReadFunction+0x948>)
 800284a:	781b      	ldrb	r3, [r3, #0]
 800284c:	2b64      	cmp	r3, #100	@ 0x64
 800284e:	d109      	bne.n	8002864 <displayVoltReadFunction+0x78c>
			st7565_drawstring(buffer, 0, 0,
 8002850:	4b6e      	ldr	r3, [pc, #440]	@ (8002a0c <displayVoltReadFunction+0x934>)
 8002852:	781b      	ldrb	r3, [r3, #0]
 8002854:	4a73      	ldr	r2, [pc, #460]	@ (8002a24 <displayVoltReadFunction+0x94c>)
 8002856:	486e      	ldr	r0, [pc, #440]	@ (8002a10 <displayVoltReadFunction+0x938>)
 8002858:	9300      	str	r3, [sp, #0]
 800285a:	0013      	movs	r3, r2
 800285c:	2200      	movs	r2, #0
 800285e:	2100      	movs	r1, #0
 8002860:	f7fe fbe0 	bl	8001024 <st7565_drawstring>
		state = DRAWING_POPUP;
 8002864:	4b70      	ldr	r3, [pc, #448]	@ (8002a28 <displayVoltReadFunction+0x950>)
 8002866:	2201      	movs	r2, #1
 8002868:	701a      	strb	r2, [r3, #0]
		break;
 800286a:	e150      	b.n	8002b0e <displayVoltReadFunction+0xa36>
		if (showDisplayModeOverlay
 800286c:	4b6f      	ldr	r3, [pc, #444]	@ (8002a2c <displayVoltReadFunction+0x954>)
 800286e:	781b      	ldrb	r3, [r3, #0]
 8002870:	2b00      	cmp	r3, #0
 8002872:	d100      	bne.n	8002876 <displayVoltReadFunction+0x79e>
 8002874:	e0be      	b.n	80029f4 <displayVoltReadFunction+0x91c>
				&& (now - displayModeChangeTime) < 1250 * 1000) {
 8002876:	4b6e      	ldr	r3, [pc, #440]	@ (8002a30 <displayVoltReadFunction+0x958>)
 8002878:	681b      	ldr	r3, [r3, #0]
 800287a:	22dc      	movs	r2, #220	@ 0xdc
 800287c:	18ba      	adds	r2, r7, r2
 800287e:	6812      	ldr	r2, [r2, #0]
 8002880:	1ad3      	subs	r3, r2, r3
 8002882:	4a6c      	ldr	r2, [pc, #432]	@ (8002a34 <displayVoltReadFunction+0x95c>)
 8002884:	4293      	cmp	r3, r2
 8002886:	d900      	bls.n	800288a <displayVoltReadFunction+0x7b2>
 8002888:	e0b4      	b.n	80029f4 <displayVoltReadFunction+0x91c>
			uint8_t rect_x = 80;
 800288a:	21db      	movs	r1, #219	@ 0xdb
 800288c:	187b      	adds	r3, r7, r1
 800288e:	2250      	movs	r2, #80	@ 0x50
 8002890:	701a      	strb	r2, [r3, #0]
			uint8_t rect_y = 45;
 8002892:	26da      	movs	r6, #218	@ 0xda
 8002894:	19bb      	adds	r3, r7, r6
 8002896:	222d      	movs	r2, #45	@ 0x2d
 8002898:	701a      	strb	r2, [r3, #0]
			uint8_t rect_w = 47;
 800289a:	24d9      	movs	r4, #217	@ 0xd9
 800289c:	193b      	adds	r3, r7, r4
 800289e:	222f      	movs	r2, #47	@ 0x2f
 80028a0:	701a      	strb	r2, [r3, #0]
			uint8_t rect_h = 18;
 80028a2:	23d8      	movs	r3, #216	@ 0xd8
 80028a4:	18fb      	adds	r3, r7, r3
 80028a6:	2212      	movs	r2, #18
 80028a8:	701a      	strb	r2, [r3, #0]
			st7565_fillrect(buffer, rect_x, rect_y, rect_w, rect_h, 0);
 80028aa:	193b      	adds	r3, r7, r4
 80028ac:	781c      	ldrb	r4, [r3, #0]
 80028ae:	19bb      	adds	r3, r7, r6
 80028b0:	781a      	ldrb	r2, [r3, #0]
 80028b2:	000d      	movs	r5, r1
 80028b4:	197b      	adds	r3, r7, r5
 80028b6:	7819      	ldrb	r1, [r3, #0]
 80028b8:	4855      	ldr	r0, [pc, #340]	@ (8002a10 <displayVoltReadFunction+0x938>)
 80028ba:	2300      	movs	r3, #0
 80028bc:	9301      	str	r3, [sp, #4]
 80028be:	23d8      	movs	r3, #216	@ 0xd8
 80028c0:	18fb      	adds	r3, r7, r3
 80028c2:	781b      	ldrb	r3, [r3, #0]
 80028c4:	9300      	str	r3, [sp, #0]
 80028c6:	0023      	movs	r3, r4
 80028c8:	f7fe fd65 	bl	8001396 <st7565_fillrect>
			st7565_drawline(buffer, rect_x, rect_y, rect_x + rect_w, rect_y, 1);
 80028cc:	197a      	adds	r2, r7, r5
 80028ce:	24d9      	movs	r4, #217	@ 0xd9
 80028d0:	193b      	adds	r3, r7, r4
 80028d2:	7812      	ldrb	r2, [r2, #0]
 80028d4:	781b      	ldrb	r3, [r3, #0]
 80028d6:	18d3      	adds	r3, r2, r3
 80028d8:	b2dc      	uxtb	r4, r3
 80028da:	19bb      	adds	r3, r7, r6
 80028dc:	781a      	ldrb	r2, [r3, #0]
 80028de:	197b      	adds	r3, r7, r5
 80028e0:	7819      	ldrb	r1, [r3, #0]
 80028e2:	484b      	ldr	r0, [pc, #300]	@ (8002a10 <displayVoltReadFunction+0x938>)
 80028e4:	2301      	movs	r3, #1
 80028e6:	9301      	str	r3, [sp, #4]
 80028e8:	19bb      	adds	r3, r7, r6
 80028ea:	781b      	ldrb	r3, [r3, #0]
 80028ec:	9300      	str	r3, [sp, #0]
 80028ee:	0023      	movs	r3, r4
 80028f0:	f7fe fe4e 	bl	8001590 <st7565_drawline>
			st7565_drawline(buffer, rect_x, rect_y, rect_x, rect_y + rect_h, 1);
 80028f4:	0031      	movs	r1, r6
 80028f6:	19ba      	adds	r2, r7, r6
 80028f8:	23d8      	movs	r3, #216	@ 0xd8
 80028fa:	18fb      	adds	r3, r7, r3
 80028fc:	7812      	ldrb	r2, [r2, #0]
 80028fe:	781b      	ldrb	r3, [r3, #0]
 8002900:	18d3      	adds	r3, r2, r3
 8002902:	b2db      	uxtb	r3, r3
 8002904:	002e      	movs	r6, r5
 8002906:	19ba      	adds	r2, r7, r6
 8002908:	7815      	ldrb	r5, [r2, #0]
 800290a:	187a      	adds	r2, r7, r1
 800290c:	7814      	ldrb	r4, [r2, #0]
 800290e:	19ba      	adds	r2, r7, r6
 8002910:	7811      	ldrb	r1, [r2, #0]
 8002912:	483f      	ldr	r0, [pc, #252]	@ (8002a10 <displayVoltReadFunction+0x938>)
 8002914:	2201      	movs	r2, #1
 8002916:	9201      	str	r2, [sp, #4]
 8002918:	9300      	str	r3, [sp, #0]
 800291a:	002b      	movs	r3, r5
 800291c:	0022      	movs	r2, r4
 800291e:	f7fe fe37 	bl	8001590 <st7565_drawline>
			st7565_drawline(buffer, rect_x + rect_w, rect_y, rect_x + rect_w,
 8002922:	19ba      	adds	r2, r7, r6
 8002924:	24d9      	movs	r4, #217	@ 0xd9
 8002926:	193b      	adds	r3, r7, r4
 8002928:	7812      	ldrb	r2, [r2, #0]
 800292a:	781b      	ldrb	r3, [r3, #0]
 800292c:	18d3      	adds	r3, r2, r3
 800292e:	b2d9      	uxtb	r1, r3
 8002930:	19ba      	adds	r2, r7, r6
 8002932:	193b      	adds	r3, r7, r4
 8002934:	7812      	ldrb	r2, [r2, #0]
 8002936:	781b      	ldrb	r3, [r3, #0]
 8002938:	18d3      	adds	r3, r2, r3
 800293a:	b2dc      	uxtb	r4, r3
 800293c:	20da      	movs	r0, #218	@ 0xda
 800293e:	183a      	adds	r2, r7, r0
 8002940:	25d8      	movs	r5, #216	@ 0xd8
 8002942:	197b      	adds	r3, r7, r5
 8002944:	7812      	ldrb	r2, [r2, #0]
 8002946:	781b      	ldrb	r3, [r3, #0]
 8002948:	18d3      	adds	r3, r2, r3
 800294a:	b2db      	uxtb	r3, r3
 800294c:	183a      	adds	r2, r7, r0
 800294e:	7812      	ldrb	r2, [r2, #0]
 8002950:	482f      	ldr	r0, [pc, #188]	@ (8002a10 <displayVoltReadFunction+0x938>)
 8002952:	2501      	movs	r5, #1
 8002954:	9501      	str	r5, [sp, #4]
 8002956:	9300      	str	r3, [sp, #0]
 8002958:	0023      	movs	r3, r4
 800295a:	f7fe fe19 	bl	8001590 <st7565_drawline>
			st7565_drawline(buffer, rect_x, rect_y + rect_h, rect_x + rect_w,
 800295e:	21da      	movs	r1, #218	@ 0xda
 8002960:	187a      	adds	r2, r7, r1
 8002962:	20d8      	movs	r0, #216	@ 0xd8
 8002964:	183b      	adds	r3, r7, r0
 8002966:	7812      	ldrb	r2, [r2, #0]
 8002968:	781b      	ldrb	r3, [r3, #0]
 800296a:	18d3      	adds	r3, r2, r3
 800296c:	b2dc      	uxtb	r4, r3
 800296e:	19ba      	adds	r2, r7, r6
 8002970:	23d9      	movs	r3, #217	@ 0xd9
 8002972:	18fb      	adds	r3, r7, r3
 8002974:	7812      	ldrb	r2, [r2, #0]
 8002976:	781b      	ldrb	r3, [r3, #0]
 8002978:	18d3      	adds	r3, r2, r3
 800297a:	b2dd      	uxtb	r5, r3
 800297c:	187a      	adds	r2, r7, r1
 800297e:	183b      	adds	r3, r7, r0
 8002980:	7812      	ldrb	r2, [r2, #0]
 8002982:	781b      	ldrb	r3, [r3, #0]
 8002984:	18d3      	adds	r3, r2, r3
 8002986:	b2db      	uxtb	r3, r3
 8002988:	19ba      	adds	r2, r7, r6
 800298a:	7811      	ldrb	r1, [r2, #0]
 800298c:	4820      	ldr	r0, [pc, #128]	@ (8002a10 <displayVoltReadFunction+0x938>)
 800298e:	2201      	movs	r2, #1
 8002990:	9201      	str	r2, [sp, #4]
 8002992:	9300      	str	r3, [sp, #0]
 8002994:	002b      	movs	r3, r5
 8002996:	0022      	movs	r2, r4
 8002998:	f7fe fdfa 	bl	8001590 <st7565_drawline>
			char mode_text[20] = "Mode  ";
 800299c:	2464      	movs	r4, #100	@ 0x64
 800299e:	1939      	adds	r1, r7, r4
 80029a0:	4a25      	ldr	r2, [pc, #148]	@ (8002a38 <displayVoltReadFunction+0x960>)
 80029a2:	000b      	movs	r3, r1
 80029a4:	6810      	ldr	r0, [r2, #0]
 80029a6:	6018      	str	r0, [r3, #0]
 80029a8:	8890      	ldrh	r0, [r2, #4]
 80029aa:	8098      	strh	r0, [r3, #4]
 80029ac:	7992      	ldrb	r2, [r2, #6]
 80029ae:	719a      	strb	r2, [r3, #6]
 80029b0:	2307      	movs	r3, #7
 80029b2:	18cb      	adds	r3, r1, r3
 80029b4:	220d      	movs	r2, #13
 80029b6:	2100      	movs	r1, #0
 80029b8:	0018      	movs	r0, r3
 80029ba:	f003 f905 	bl	8005bc8 <memset>
			mode_text[5] = displayMode + '0';
 80029be:	4b18      	ldr	r3, [pc, #96]	@ (8002a20 <displayVoltReadFunction+0x948>)
 80029c0:	781b      	ldrb	r3, [r3, #0]
 80029c2:	3330      	adds	r3, #48	@ 0x30
 80029c4:	b2da      	uxtb	r2, r3
 80029c6:	0020      	movs	r0, r4
 80029c8:	183b      	adds	r3, r7, r0
 80029ca:	715a      	strb	r2, [r3, #5]
			st7565_drawstring(buffer, rect_x + 2, rect_y / 8 + 1, mode_text,
 80029cc:	19bb      	adds	r3, r7, r6
 80029ce:	781b      	ldrb	r3, [r3, #0]
 80029d0:	3302      	adds	r3, #2
 80029d2:	b2d9      	uxtb	r1, r3
 80029d4:	23da      	movs	r3, #218	@ 0xda
 80029d6:	18fb      	adds	r3, r7, r3
 80029d8:	781b      	ldrb	r3, [r3, #0]
 80029da:	08db      	lsrs	r3, r3, #3
 80029dc:	b2db      	uxtb	r3, r3
 80029de:	3301      	adds	r3, #1
 80029e0:	b2da      	uxtb	r2, r3
 80029e2:	4b0a      	ldr	r3, [pc, #40]	@ (8002a0c <displayVoltReadFunction+0x934>)
 80029e4:	781b      	ldrb	r3, [r3, #0]
 80029e6:	183c      	adds	r4, r7, r0
 80029e8:	4809      	ldr	r0, [pc, #36]	@ (8002a10 <displayVoltReadFunction+0x938>)
 80029ea:	9300      	str	r3, [sp, #0]
 80029ec:	0023      	movs	r3, r4
 80029ee:	f7fe fb19 	bl	8001024 <st7565_drawstring>
				&& (now - displayModeChangeTime) < 1250 * 1000) {
 80029f2:	e002      	b.n	80029fa <displayVoltReadFunction+0x922>
			showDisplayModeOverlay = 0;
 80029f4:	4b0d      	ldr	r3, [pc, #52]	@ (8002a2c <displayVoltReadFunction+0x954>)
 80029f6:	2200      	movs	r2, #0
 80029f8:	701a      	strb	r2, [r3, #0]
		state = SENDING_PAGE;
 80029fa:	4b0b      	ldr	r3, [pc, #44]	@ (8002a28 <displayVoltReadFunction+0x950>)
 80029fc:	2202      	movs	r2, #2
 80029fe:	701a      	strb	r2, [r3, #0]
		current_page = 0;
 8002a00:	4b0e      	ldr	r3, [pc, #56]	@ (8002a3c <displayVoltReadFunction+0x964>)
 8002a02:	2200      	movs	r2, #0
 8002a04:	701a      	strb	r2, [r3, #0]
		break;
 8002a06:	e082      	b.n	8002b0e <displayVoltReadFunction+0xa36>
 8002a08:	2000000e 	.word	0x2000000e
 8002a0c:	200005c0 	.word	0x200005c0
 8002a10:	20000014 	.word	0x20000014
 8002a14:	08005cec 	.word	0x08005cec
 8002a18:	08005d00 	.word	0x08005d00
 8002a1c:	08005d04 	.word	0x08005d04
 8002a20:	2000000a 	.word	0x2000000a
 8002a24:	08005d08 	.word	0x08005d08
 8002a28:	20000a1d 	.word	0x20000a1d
 8002a2c:	200005d0 	.word	0x200005d0
 8002a30:	200005cc 	.word	0x200005cc
 8002a34:	001312cf 	.word	0x001312cf
 8002a38:	08005d7c 	.word	0x08005d7c
 8002a3c:	20000a1e 	.word	0x20000a1e
		CMD(ST7565_CMD_SET_PAGE | pagemap[current_page])
 8002a40:	4b35      	ldr	r3, [pc, #212]	@ (8002b18 <displayVoltReadFunction+0xa40>)
 8002a42:	2200      	movs	r2, #0
 8002a44:	2180      	movs	r1, #128	@ 0x80
 8002a46:	0018      	movs	r0, r3
 8002a48:	f001 fbfc 	bl	8004244 <HAL_GPIO_WritePin>
 8002a4c:	4b33      	ldr	r3, [pc, #204]	@ (8002b1c <displayVoltReadFunction+0xa44>)
 8002a4e:	781b      	ldrb	r3, [r3, #0]
 8002a50:	001a      	movs	r2, r3
 8002a52:	4b33      	ldr	r3, [pc, #204]	@ (8002b20 <displayVoltReadFunction+0xa48>)
 8002a54:	5c9b      	ldrb	r3, [r3, r2]
 8002a56:	2250      	movs	r2, #80	@ 0x50
 8002a58:	4252      	negs	r2, r2
 8002a5a:	4313      	orrs	r3, r2
 8002a5c:	b2db      	uxtb	r3, r3
 8002a5e:	0018      	movs	r0, r3
 8002a60:	f7fe f918 	bl	8000c94 <st7565_sendbyte>
		CMD(ST7565_CMD_SET_COLUMN_LOWER | (0x0 & 0xf))
 8002a64:	4b2c      	ldr	r3, [pc, #176]	@ (8002b18 <displayVoltReadFunction+0xa40>)
 8002a66:	2200      	movs	r2, #0
 8002a68:	2180      	movs	r1, #128	@ 0x80
 8002a6a:	0018      	movs	r0, r3
 8002a6c:	f001 fbea 	bl	8004244 <HAL_GPIO_WritePin>
 8002a70:	2000      	movs	r0, #0
 8002a72:	f7fe f90f 	bl	8000c94 <st7565_sendbyte>
		CMD(ST7565_CMD_SET_COLUMN_UPPER | ((0x0 >> 4) & 0xf))
 8002a76:	4b28      	ldr	r3, [pc, #160]	@ (8002b18 <displayVoltReadFunction+0xa40>)
 8002a78:	2200      	movs	r2, #0
 8002a7a:	2180      	movs	r1, #128	@ 0x80
 8002a7c:	0018      	movs	r0, r3
 8002a7e:	f001 fbe1 	bl	8004244 <HAL_GPIO_WritePin>
 8002a82:	2010      	movs	r0, #16
 8002a84:	f7fe f906 	bl	8000c94 <st7565_sendbyte>
		CMD(ST7565_CMD_RMW)
 8002a88:	4b23      	ldr	r3, [pc, #140]	@ (8002b18 <displayVoltReadFunction+0xa40>)
 8002a8a:	2200      	movs	r2, #0
 8002a8c:	2180      	movs	r1, #128	@ 0x80
 8002a8e:	0018      	movs	r0, r3
 8002a90:	f001 fbd8 	bl	8004244 <HAL_GPIO_WritePin>
 8002a94:	20e0      	movs	r0, #224	@ 0xe0
 8002a96:	f7fe f8fd 	bl	8000c94 <st7565_sendbyte>
		HAL_GPIO_WritePin(SPICD_GPIO_Port, ST7565_A0_PIN, 1);
 8002a9a:	4b1f      	ldr	r3, [pc, #124]	@ (8002b18 <displayVoltReadFunction+0xa40>)
 8002a9c:	2201      	movs	r2, #1
 8002a9e:	2180      	movs	r1, #128	@ 0x80
 8002aa0:	0018      	movs	r0, r3
 8002aa2:	f001 fbcf 	bl	8004244 <HAL_GPIO_WritePin>
		HAL_SPI_Transmit(&hspi1, &buffer[128 * current_page], 128, 6);
 8002aa6:	4b1d      	ldr	r3, [pc, #116]	@ (8002b1c <displayVoltReadFunction+0xa44>)
 8002aa8:	781b      	ldrb	r3, [r3, #0]
 8002aaa:	01da      	lsls	r2, r3, #7
 8002aac:	4b1d      	ldr	r3, [pc, #116]	@ (8002b24 <displayVoltReadFunction+0xa4c>)
 8002aae:	18d1      	adds	r1, r2, r3
 8002ab0:	481d      	ldr	r0, [pc, #116]	@ (8002b28 <displayVoltReadFunction+0xa50>)
 8002ab2:	2306      	movs	r3, #6
 8002ab4:	2280      	movs	r2, #128	@ 0x80
 8002ab6:	f002 fa6d 	bl	8004f94 <HAL_SPI_Transmit>
		current_page++;
 8002aba:	4b18      	ldr	r3, [pc, #96]	@ (8002b1c <displayVoltReadFunction+0xa44>)
 8002abc:	781b      	ldrb	r3, [r3, #0]
 8002abe:	3301      	adds	r3, #1
 8002ac0:	b2da      	uxtb	r2, r3
 8002ac2:	4b16      	ldr	r3, [pc, #88]	@ (8002b1c <displayVoltReadFunction+0xa44>)
 8002ac4:	701a      	strb	r2, [r3, #0]
		if (current_page >= 8) {
 8002ac6:	4b15      	ldr	r3, [pc, #84]	@ (8002b1c <displayVoltReadFunction+0xa44>)
 8002ac8:	781b      	ldrb	r3, [r3, #0]
 8002aca:	2b07      	cmp	r3, #7
 8002acc:	d91c      	bls.n	8002b08 <displayVoltReadFunction+0xa30>
			os_debug_drawing_time = now - last_frame_time;
 8002ace:	4b17      	ldr	r3, [pc, #92]	@ (8002b2c <displayVoltReadFunction+0xa54>)
 8002ad0:	681b      	ldr	r3, [r3, #0]
 8002ad2:	22dc      	movs	r2, #220	@ 0xdc
 8002ad4:	18ba      	adds	r2, r7, r2
 8002ad6:	6812      	ldr	r2, [r2, #0]
 8002ad8:	1ad2      	subs	r2, r2, r3
 8002ada:	4b15      	ldr	r3, [pc, #84]	@ (8002b30 <displayVoltReadFunction+0xa58>)
 8002adc:	601a      	str	r2, [r3, #0]
			state = WAITING;
 8002ade:	4b15      	ldr	r3, [pc, #84]	@ (8002b34 <displayVoltReadFunction+0xa5c>)
 8002ae0:	2203      	movs	r2, #3
 8002ae2:	701a      	strb	r2, [r3, #0]
		break;
 8002ae4:	e010      	b.n	8002b08 <displayVoltReadFunction+0xa30>
		if (now - last_frame_time >= 42 * 1000) {
 8002ae6:	4b11      	ldr	r3, [pc, #68]	@ (8002b2c <displayVoltReadFunction+0xa54>)
 8002ae8:	681b      	ldr	r3, [r3, #0]
 8002aea:	21dc      	movs	r1, #220	@ 0xdc
 8002aec:	187a      	adds	r2, r7, r1
 8002aee:	6812      	ldr	r2, [r2, #0]
 8002af0:	1ad3      	subs	r3, r2, r3
 8002af2:	4a11      	ldr	r2, [pc, #68]	@ (8002b38 <displayVoltReadFunction+0xa60>)
 8002af4:	4293      	cmp	r3, r2
 8002af6:	d909      	bls.n	8002b0c <displayVoltReadFunction+0xa34>
			state = DRAWING;
 8002af8:	4b0e      	ldr	r3, [pc, #56]	@ (8002b34 <displayVoltReadFunction+0xa5c>)
 8002afa:	2200      	movs	r2, #0
 8002afc:	701a      	strb	r2, [r3, #0]
			last_frame_time = now;
 8002afe:	4b0b      	ldr	r3, [pc, #44]	@ (8002b2c <displayVoltReadFunction+0xa54>)
 8002b00:	187a      	adds	r2, r7, r1
 8002b02:	6812      	ldr	r2, [r2, #0]
 8002b04:	601a      	str	r2, [r3, #0]
		break;
 8002b06:	e001      	b.n	8002b0c <displayVoltReadFunction+0xa34>
		break;
 8002b08:	46c0      	nop			@ (mov r8, r8)
 8002b0a:	e000      	b.n	8002b0e <displayVoltReadFunction+0xa36>
		break;
 8002b0c:	46c0      	nop			@ (mov r8, r8)
}
 8002b0e:	46c0      	nop			@ (mov r8, r8)
 8002b10:	46bd      	mov	sp, r7
 8002b12:	b03d      	add	sp, #244	@ 0xf4
 8002b14:	bdf0      	pop	{r4, r5, r6, r7, pc}
 8002b16:	46c0      	nop			@ (mov r8, r8)
 8002b18:	48000800 	.word	0x48000800
 8002b1c:	20000a1e 	.word	0x20000a1e
 8002b20:	20000414 	.word	0x20000414
 8002b24:	20000014 	.word	0x20000014
 8002b28:	200004c4 	.word	0x200004c4
 8002b2c:	20000a20 	.word	0x20000a20
 8002b30:	200005f8 	.word	0x200005f8
 8002b34:	20000a1d 	.word	0x20000a1d
 8002b38:	0000a40f 	.word	0x0000a40f

08002b3c <readButtonFunction>:
 * @brief Function implementing the readButton thread.
 * @param argument: Not used
 * @retval None
 */
/* USER CODE END Header_readButtonFunction */
void readButtonFunction(void) {
 8002b3c:	b580      	push	{r7, lr}
 8002b3e:	b082      	sub	sp, #8
 8002b40:	af00      	add	r7, sp, #0
	 }
	 } else {
	 buttonReadRaw = 666;
	 }
	 HAL_ADC_Stop(&hadc);*/
	buttonReadRaw = adc_buffer[254];
 8002b42:	4aba      	ldr	r2, [pc, #744]	@ (8002e2c <readButtonFunction+0x2f0>)
 8002b44:	23fe      	movs	r3, #254	@ 0xfe
 8002b46:	005b      	lsls	r3, r3, #1
 8002b48:	5ad3      	ldrh	r3, [r2, r3]
 8002b4a:	b29a      	uxth	r2, r3
 8002b4c:	4bb8      	ldr	r3, [pc, #736]	@ (8002e30 <readButtonFunction+0x2f4>)
 8002b4e:	801a      	strh	r2, [r3, #0]
	buttonRead[0] = buttonRead[1];
 8002b50:	4bb8      	ldr	r3, [pc, #736]	@ (8002e34 <readButtonFunction+0x2f8>)
 8002b52:	885a      	ldrh	r2, [r3, #2]
 8002b54:	4bb7      	ldr	r3, [pc, #732]	@ (8002e34 <readButtonFunction+0x2f8>)
 8002b56:	801a      	strh	r2, [r3, #0]
	buttonRead[1] = filterButton(interpolation(buttonReadRaw));
 8002b58:	4bb5      	ldr	r3, [pc, #724]	@ (8002e30 <readButtonFunction+0x2f4>)
 8002b5a:	881b      	ldrh	r3, [r3, #0]
 8002b5c:	b21b      	sxth	r3, r3
 8002b5e:	0018      	movs	r0, r3
 8002b60:	f7fe ff2a 	bl	80019b8 <interpolation>
 8002b64:	0003      	movs	r3, r0
 8002b66:	b29b      	uxth	r3, r3
 8002b68:	0018      	movs	r0, r3
 8002b6a:	f7fe ffab 	bl	8001ac4 <filterButton>
 8002b6e:	0003      	movs	r3, r0
 8002b70:	001a      	movs	r2, r3
 8002b72:	4bb0      	ldr	r3, [pc, #704]	@ (8002e34 <readButtonFunction+0x2f8>)
 8002b74:	805a      	strh	r2, [r3, #2]

	uint8_t rawButtonState = 0;
 8002b76:	1dfb      	adds	r3, r7, #7
 8002b78:	2200      	movs	r2, #0
 8002b7a:	701a      	strb	r2, [r3, #0]
	if (buttonRead[1] <= 50) {
 8002b7c:	4bad      	ldr	r3, [pc, #692]	@ (8002e34 <readButtonFunction+0x2f8>)
 8002b7e:	885b      	ldrh	r3, [r3, #2]
 8002b80:	2b32      	cmp	r3, #50	@ 0x32
 8002b82:	d803      	bhi.n	8002b8c <readButtonFunction+0x50>
		rawButtonState = 1;
 8002b84:	1dfb      	adds	r3, r7, #7
 8002b86:	2201      	movs	r2, #1
 8002b88:	701a      	strb	r2, [r3, #0]
 8002b8a:	e026      	b.n	8002bda <readButtonFunction+0x9e>
	} else if (buttonRead[1] > 290 && buttonRead[1] < 315) {
 8002b8c:	4ba9      	ldr	r3, [pc, #676]	@ (8002e34 <readButtonFunction+0x2f8>)
 8002b8e:	885a      	ldrh	r2, [r3, #2]
 8002b90:	2391      	movs	r3, #145	@ 0x91
 8002b92:	005b      	lsls	r3, r3, #1
 8002b94:	429a      	cmp	r2, r3
 8002b96:	d909      	bls.n	8002bac <readButtonFunction+0x70>
 8002b98:	4ba6      	ldr	r3, [pc, #664]	@ (8002e34 <readButtonFunction+0x2f8>)
 8002b9a:	885a      	ldrh	r2, [r3, #2]
 8002b9c:	239d      	movs	r3, #157	@ 0x9d
 8002b9e:	005b      	lsls	r3, r3, #1
 8002ba0:	429a      	cmp	r2, r3
 8002ba2:	d803      	bhi.n	8002bac <readButtonFunction+0x70>
		rawButtonState = 2;
 8002ba4:	1dfb      	adds	r3, r7, #7
 8002ba6:	2202      	movs	r2, #2
 8002ba8:	701a      	strb	r2, [r3, #0]
 8002baa:	e016      	b.n	8002bda <readButtonFunction+0x9e>
	} else if (buttonRead[1] > 186 && buttonRead[1] < 206) {
 8002bac:	4ba1      	ldr	r3, [pc, #644]	@ (8002e34 <readButtonFunction+0x2f8>)
 8002bae:	885b      	ldrh	r3, [r3, #2]
 8002bb0:	2bba      	cmp	r3, #186	@ 0xba
 8002bb2:	d907      	bls.n	8002bc4 <readButtonFunction+0x88>
 8002bb4:	4b9f      	ldr	r3, [pc, #636]	@ (8002e34 <readButtonFunction+0x2f8>)
 8002bb6:	885b      	ldrh	r3, [r3, #2]
 8002bb8:	2bcd      	cmp	r3, #205	@ 0xcd
 8002bba:	d803      	bhi.n	8002bc4 <readButtonFunction+0x88>
		rawButtonState = 3;
 8002bbc:	1dfb      	adds	r3, r7, #7
 8002bbe:	2203      	movs	r2, #3
 8002bc0:	701a      	strb	r2, [r3, #0]
 8002bc2:	e00a      	b.n	8002bda <readButtonFunction+0x9e>
	} else if (buttonRead[1] > 86 && buttonRead[1] < 108) {
 8002bc4:	4b9b      	ldr	r3, [pc, #620]	@ (8002e34 <readButtonFunction+0x2f8>)
 8002bc6:	885b      	ldrh	r3, [r3, #2]
 8002bc8:	2b56      	cmp	r3, #86	@ 0x56
 8002bca:	d906      	bls.n	8002bda <readButtonFunction+0x9e>
 8002bcc:	4b99      	ldr	r3, [pc, #612]	@ (8002e34 <readButtonFunction+0x2f8>)
 8002bce:	885b      	ldrh	r3, [r3, #2]
 8002bd0:	2b6b      	cmp	r3, #107	@ 0x6b
 8002bd2:	d802      	bhi.n	8002bda <readButtonFunction+0x9e>
		rawButtonState = 4;
 8002bd4:	1dfb      	adds	r3, r7, #7
 8002bd6:	2204      	movs	r2, #4
 8002bd8:	701a      	strb	r2, [r3, #0]
	}

	if (rawButtonState != buttonState) {
 8002bda:	4b97      	ldr	r3, [pc, #604]	@ (8002e38 <readButtonFunction+0x2fc>)
 8002bdc:	781b      	ldrb	r3, [r3, #0]
 8002bde:	1dfa      	adds	r2, r7, #7
 8002be0:	7812      	ldrb	r2, [r2, #0]
 8002be2:	429a      	cmp	r2, r3
 8002be4:	d100      	bne.n	8002be8 <readButtonFunction+0xac>
 8002be6:	e115      	b.n	8002e14 <readButtonFunction+0x2d8>
		if (!buttonTransitionFlag) {
 8002be8:	4b94      	ldr	r3, [pc, #592]	@ (8002e3c <readButtonFunction+0x300>)
 8002bea:	781b      	ldrb	r3, [r3, #0]
 8002bec:	2b00      	cmp	r3, #0
 8002bee:	d105      	bne.n	8002bfc <readButtonFunction+0xc0>
			buttonTransitionFlag = 1;
 8002bf0:	4b92      	ldr	r3, [pc, #584]	@ (8002e3c <readButtonFunction+0x300>)
 8002bf2:	2201      	movs	r2, #1
 8002bf4:	701a      	strb	r2, [r3, #0]
			buttonDebounceTimer = 0;
 8002bf6:	4b92      	ldr	r3, [pc, #584]	@ (8002e40 <readButtonFunction+0x304>)
 8002bf8:	2200      	movs	r2, #0
 8002bfa:	601a      	str	r2, [r3, #0]
		}
		buttonDebounceTimer += 5;
 8002bfc:	4b90      	ldr	r3, [pc, #576]	@ (8002e40 <readButtonFunction+0x304>)
 8002bfe:	681b      	ldr	r3, [r3, #0]
 8002c00:	1d5a      	adds	r2, r3, #5
 8002c02:	4b8f      	ldr	r3, [pc, #572]	@ (8002e40 <readButtonFunction+0x304>)
 8002c04:	601a      	str	r2, [r3, #0]

		if (buttonDebounceTimer >= 15) {
 8002c06:	4b8e      	ldr	r3, [pc, #568]	@ (8002e40 <readButtonFunction+0x304>)
 8002c08:	681b      	ldr	r3, [r3, #0]
 8002c0a:	2b0e      	cmp	r3, #14
 8002c0c:	d800      	bhi.n	8002c10 <readButtonFunction+0xd4>
 8002c0e:	e108      	b.n	8002e22 <readButtonFunction+0x2e6>
			buttonStatePrev = buttonState;
 8002c10:	4b89      	ldr	r3, [pc, #548]	@ (8002e38 <readButtonFunction+0x2fc>)
 8002c12:	781a      	ldrb	r2, [r3, #0]
 8002c14:	4b8b      	ldr	r3, [pc, #556]	@ (8002e44 <readButtonFunction+0x308>)
 8002c16:	701a      	strb	r2, [r3, #0]
			buttonState = rawButtonState;
 8002c18:	4b87      	ldr	r3, [pc, #540]	@ (8002e38 <readButtonFunction+0x2fc>)
 8002c1a:	1dfa      	adds	r2, r7, #7
 8002c1c:	7812      	ldrb	r2, [r2, #0]
 8002c1e:	701a      	strb	r2, [r3, #0]
			buttonTransitionFlag = 0;
 8002c20:	4b86      	ldr	r3, [pc, #536]	@ (8002e3c <readButtonFunction+0x300>)
 8002c22:	2200      	movs	r2, #0
 8002c24:	701a      	strb	r2, [r3, #0]
			buttonDebounceTimer = 0;
 8002c26:	4b86      	ldr	r3, [pc, #536]	@ (8002e40 <readButtonFunction+0x304>)
 8002c28:	2200      	movs	r2, #0
 8002c2a:	601a      	str	r2, [r3, #0]

			if (!buttonTransitionFlag) {
 8002c2c:	4b83      	ldr	r3, [pc, #524]	@ (8002e3c <readButtonFunction+0x300>)
 8002c2e:	781b      	ldrb	r3, [r3, #0]
 8002c30:	2b00      	cmp	r3, #0
 8002c32:	d000      	beq.n	8002c36 <readButtonFunction+0xfa>
 8002c34:	e0f5      	b.n	8002e22 <readButtonFunction+0x2e6>
				if (displayMode < 2) { // moduri voltmetru
 8002c36:	4b84      	ldr	r3, [pc, #528]	@ (8002e48 <readButtonFunction+0x30c>)
 8002c38:	781b      	ldrb	r3, [r3, #0]
 8002c3a:	2b01      	cmp	r3, #1
 8002c3c:	d900      	bls.n	8002c40 <readButtonFunction+0x104>
 8002c3e:	e075      	b.n	8002d2c <readButtonFunction+0x1f0>
					if (buttonState == 1 && buttonStatePrev == 0) {
 8002c40:	4b7d      	ldr	r3, [pc, #500]	@ (8002e38 <readButtonFunction+0x2fc>)
 8002c42:	781b      	ldrb	r3, [r3, #0]
 8002c44:	2b01      	cmp	r3, #1
 8002c46:	d11c      	bne.n	8002c82 <readButtonFunction+0x146>
 8002c48:	4b7e      	ldr	r3, [pc, #504]	@ (8002e44 <readButtonFunction+0x308>)
 8002c4a:	781b      	ldrb	r3, [r3, #0]
 8002c4c:	2b00      	cmp	r3, #0
 8002c4e:	d118      	bne.n	8002c82 <readButtonFunction+0x146>
						if (displayMode == 0)
 8002c50:	4b7d      	ldr	r3, [pc, #500]	@ (8002e48 <readButtonFunction+0x30c>)
 8002c52:	781b      	ldrb	r3, [r3, #0]
 8002c54:	2b00      	cmp	r3, #0
 8002c56:	d104      	bne.n	8002c62 <readButtonFunction+0x126>
							displayMode = displayModeMax;
 8002c58:	4b7c      	ldr	r3, [pc, #496]	@ (8002e4c <readButtonFunction+0x310>)
 8002c5a:	781a      	ldrb	r2, [r3, #0]
 8002c5c:	4b7a      	ldr	r3, [pc, #488]	@ (8002e48 <readButtonFunction+0x30c>)
 8002c5e:	701a      	strb	r2, [r3, #0]
 8002c60:	e005      	b.n	8002c6e <readButtonFunction+0x132>
						else
							displayMode--;
 8002c62:	4b79      	ldr	r3, [pc, #484]	@ (8002e48 <readButtonFunction+0x30c>)
 8002c64:	781b      	ldrb	r3, [r3, #0]
 8002c66:	3b01      	subs	r3, #1
 8002c68:	b2da      	uxtb	r2, r3
 8002c6a:	4b77      	ldr	r3, [pc, #476]	@ (8002e48 <readButtonFunction+0x30c>)
 8002c6c:	701a      	strb	r2, [r3, #0]
						showDisplayModeOverlay = 1;
 8002c6e:	4b78      	ldr	r3, [pc, #480]	@ (8002e50 <readButtonFunction+0x314>)
 8002c70:	2201      	movs	r2, #1
 8002c72:	701a      	strb	r2, [r3, #0]
						displayModeChangeTime = HAL_GetTick_us();
 8002c74:	f7fd ffaa 	bl	8000bcc <HAL_GetTick_us>
 8002c78:	0003      	movs	r3, r0
 8002c7a:	001a      	movs	r2, r3
 8002c7c:	4b75      	ldr	r3, [pc, #468]	@ (8002e54 <readButtonFunction+0x318>)
 8002c7e:	601a      	str	r2, [r3, #0]
					if (buttonState == 1 && buttonStatePrev == 0) {
 8002c80:	e0cf      	b.n	8002e22 <readButtonFunction+0x2e6>
					} else if (buttonState == 2 && buttonStatePrev == 0) {
 8002c82:	4b6d      	ldr	r3, [pc, #436]	@ (8002e38 <readButtonFunction+0x2fc>)
 8002c84:	781b      	ldrb	r3, [r3, #0]
 8002c86:	2b02      	cmp	r3, #2
 8002c88:	d11d      	bne.n	8002cc6 <readButtonFunction+0x18a>
 8002c8a:	4b6e      	ldr	r3, [pc, #440]	@ (8002e44 <readButtonFunction+0x308>)
 8002c8c:	781b      	ldrb	r3, [r3, #0]
 8002c8e:	2b00      	cmp	r3, #0
 8002c90:	d119      	bne.n	8002cc6 <readButtonFunction+0x18a>
						if (displayMode == displayModeMax)
 8002c92:	4b6d      	ldr	r3, [pc, #436]	@ (8002e48 <readButtonFunction+0x30c>)
 8002c94:	781a      	ldrb	r2, [r3, #0]
 8002c96:	4b6d      	ldr	r3, [pc, #436]	@ (8002e4c <readButtonFunction+0x310>)
 8002c98:	781b      	ldrb	r3, [r3, #0]
 8002c9a:	429a      	cmp	r2, r3
 8002c9c:	d103      	bne.n	8002ca6 <readButtonFunction+0x16a>
							displayMode = 0;
 8002c9e:	4b6a      	ldr	r3, [pc, #424]	@ (8002e48 <readButtonFunction+0x30c>)
 8002ca0:	2200      	movs	r2, #0
 8002ca2:	701a      	strb	r2, [r3, #0]
 8002ca4:	e005      	b.n	8002cb2 <readButtonFunction+0x176>
						else
							displayMode++;
 8002ca6:	4b68      	ldr	r3, [pc, #416]	@ (8002e48 <readButtonFunction+0x30c>)
 8002ca8:	781b      	ldrb	r3, [r3, #0]
 8002caa:	3301      	adds	r3, #1
 8002cac:	b2da      	uxtb	r2, r3
 8002cae:	4b66      	ldr	r3, [pc, #408]	@ (8002e48 <readButtonFunction+0x30c>)
 8002cb0:	701a      	strb	r2, [r3, #0]
						showDisplayModeOverlay = 1;
 8002cb2:	4b67      	ldr	r3, [pc, #412]	@ (8002e50 <readButtonFunction+0x314>)
 8002cb4:	2201      	movs	r2, #1
 8002cb6:	701a      	strb	r2, [r3, #0]
						displayModeChangeTime = HAL_GetTick_us();
 8002cb8:	f7fd ff88 	bl	8000bcc <HAL_GetTick_us>
 8002cbc:	0003      	movs	r3, r0
 8002cbe:	001a      	movs	r2, r3
 8002cc0:	4b64      	ldr	r3, [pc, #400]	@ (8002e54 <readButtonFunction+0x318>)
 8002cc2:	601a      	str	r2, [r3, #0]
					} else if (buttonState == 2 && buttonStatePrev == 0) {
 8002cc4:	e0ad      	b.n	8002e22 <readButtonFunction+0x2e6>
					}

					else if (buttonState == 3 && buttonStatePrev == 0) { //apas jos
 8002cc6:	4b5c      	ldr	r3, [pc, #368]	@ (8002e38 <readButtonFunction+0x2fc>)
 8002cc8:	781b      	ldrb	r3, [r3, #0]
 8002cca:	2b03      	cmp	r3, #3
 8002ccc:	d113      	bne.n	8002cf6 <readButtonFunction+0x1ba>
 8002cce:	4b5d      	ldr	r3, [pc, #372]	@ (8002e44 <readButtonFunction+0x308>)
 8002cd0:	781b      	ldrb	r3, [r3, #0]
 8002cd2:	2b00      	cmp	r3, #0
 8002cd4:	d10f      	bne.n	8002cf6 <readButtonFunction+0x1ba>
						if (fontMode == 0)
 8002cd6:	4b60      	ldr	r3, [pc, #384]	@ (8002e58 <readButtonFunction+0x31c>)
 8002cd8:	781b      	ldrb	r3, [r3, #0]
 8002cda:	2b00      	cmp	r3, #0
 8002cdc:	d104      	bne.n	8002ce8 <readButtonFunction+0x1ac>
							fontMode = fontModeMax;
 8002cde:	4b5f      	ldr	r3, [pc, #380]	@ (8002e5c <readButtonFunction+0x320>)
 8002ce0:	781a      	ldrb	r2, [r3, #0]
 8002ce2:	4b5d      	ldr	r3, [pc, #372]	@ (8002e58 <readButtonFunction+0x31c>)
 8002ce4:	701a      	strb	r2, [r3, #0]
						if (fontMode == 0)
 8002ce6:	e09c      	b.n	8002e22 <readButtonFunction+0x2e6>
						else
							fontMode--;
 8002ce8:	4b5b      	ldr	r3, [pc, #364]	@ (8002e58 <readButtonFunction+0x31c>)
 8002cea:	781b      	ldrb	r3, [r3, #0]
 8002cec:	3b01      	subs	r3, #1
 8002cee:	b2da      	uxtb	r2, r3
 8002cf0:	4b59      	ldr	r3, [pc, #356]	@ (8002e58 <readButtonFunction+0x31c>)
 8002cf2:	701a      	strb	r2, [r3, #0]
						if (fontMode == 0)
 8002cf4:	e095      	b.n	8002e22 <readButtonFunction+0x2e6>
					} else if (buttonState == 4 && buttonStatePrev == 0) { //apas sus
 8002cf6:	4b50      	ldr	r3, [pc, #320]	@ (8002e38 <readButtonFunction+0x2fc>)
 8002cf8:	781b      	ldrb	r3, [r3, #0]
 8002cfa:	2b04      	cmp	r3, #4
 8002cfc:	d000      	beq.n	8002d00 <readButtonFunction+0x1c4>
 8002cfe:	e090      	b.n	8002e22 <readButtonFunction+0x2e6>
 8002d00:	4b50      	ldr	r3, [pc, #320]	@ (8002e44 <readButtonFunction+0x308>)
 8002d02:	781b      	ldrb	r3, [r3, #0]
 8002d04:	2b00      	cmp	r3, #0
 8002d06:	d000      	beq.n	8002d0a <readButtonFunction+0x1ce>
 8002d08:	e08b      	b.n	8002e22 <readButtonFunction+0x2e6>
						if (fontMode == fontModeMax)
 8002d0a:	4b53      	ldr	r3, [pc, #332]	@ (8002e58 <readButtonFunction+0x31c>)
 8002d0c:	781a      	ldrb	r2, [r3, #0]
 8002d0e:	4b53      	ldr	r3, [pc, #332]	@ (8002e5c <readButtonFunction+0x320>)
 8002d10:	781b      	ldrb	r3, [r3, #0]
 8002d12:	429a      	cmp	r2, r3
 8002d14:	d103      	bne.n	8002d1e <readButtonFunction+0x1e2>
							fontMode = 0;
 8002d16:	4b50      	ldr	r3, [pc, #320]	@ (8002e58 <readButtonFunction+0x31c>)
 8002d18:	2200      	movs	r2, #0
 8002d1a:	701a      	strb	r2, [r3, #0]
	else {
				buttonTransitionFlag = 0;
				buttonDebounceTimer = 0;
			}
			/* USER CODE END readButtonFunction */
}
 8002d1c:	e081      	b.n	8002e22 <readButtonFunction+0x2e6>
							fontMode++;
 8002d1e:	4b4e      	ldr	r3, [pc, #312]	@ (8002e58 <readButtonFunction+0x31c>)
 8002d20:	781b      	ldrb	r3, [r3, #0]
 8002d22:	3301      	adds	r3, #1
 8002d24:	b2da      	uxtb	r2, r3
 8002d26:	4b4c      	ldr	r3, [pc, #304]	@ (8002e58 <readButtonFunction+0x31c>)
 8002d28:	701a      	strb	r2, [r3, #0]
}
 8002d2a:	e07a      	b.n	8002e22 <readButtonFunction+0x2e6>
					if (buttonState == 1 && buttonStatePrev == 0) {
 8002d2c:	4b42      	ldr	r3, [pc, #264]	@ (8002e38 <readButtonFunction+0x2fc>)
 8002d2e:	781b      	ldrb	r3, [r3, #0]
 8002d30:	2b01      	cmp	r3, #1
 8002d32:	d114      	bne.n	8002d5e <readButtonFunction+0x222>
 8002d34:	4b43      	ldr	r3, [pc, #268]	@ (8002e44 <readButtonFunction+0x308>)
 8002d36:	781b      	ldrb	r3, [r3, #0]
 8002d38:	2b00      	cmp	r3, #0
 8002d3a:	d110      	bne.n	8002d5e <readButtonFunction+0x222>
						oscilloscopeTriggerRaw+=100;
 8002d3c:	4b48      	ldr	r3, [pc, #288]	@ (8002e60 <readButtonFunction+0x324>)
 8002d3e:	881b      	ldrh	r3, [r3, #0]
 8002d40:	3364      	adds	r3, #100	@ 0x64
 8002d42:	b29a      	uxth	r2, r3
 8002d44:	4b46      	ldr	r3, [pc, #280]	@ (8002e60 <readButtonFunction+0x324>)
 8002d46:	801a      	strh	r2, [r3, #0]
						oscilloscopeTrigger=interpolation(oscilloscopeTriggerRaw);
 8002d48:	4b45      	ldr	r3, [pc, #276]	@ (8002e60 <readButtonFunction+0x324>)
 8002d4a:	881b      	ldrh	r3, [r3, #0]
 8002d4c:	b21b      	sxth	r3, r3
 8002d4e:	0018      	movs	r0, r3
 8002d50:	f7fe fe32 	bl	80019b8 <interpolation>
 8002d54:	0003      	movs	r3, r0
 8002d56:	b29a      	uxth	r2, r3
 8002d58:	4b42      	ldr	r3, [pc, #264]	@ (8002e64 <readButtonFunction+0x328>)
 8002d5a:	801a      	strh	r2, [r3, #0]
 8002d5c:	e061      	b.n	8002e22 <readButtonFunction+0x2e6>
					else if (buttonState == 2 && buttonStatePrev == 0) {
 8002d5e:	4b36      	ldr	r3, [pc, #216]	@ (8002e38 <readButtonFunction+0x2fc>)
 8002d60:	781b      	ldrb	r3, [r3, #0]
 8002d62:	2b02      	cmp	r3, #2
 8002d64:	d114      	bne.n	8002d90 <readButtonFunction+0x254>
 8002d66:	4b37      	ldr	r3, [pc, #220]	@ (8002e44 <readButtonFunction+0x308>)
 8002d68:	781b      	ldrb	r3, [r3, #0]
 8002d6a:	2b00      	cmp	r3, #0
 8002d6c:	d110      	bne.n	8002d90 <readButtonFunction+0x254>
						oscilloscopeTriggerRaw-=100;
 8002d6e:	4b3c      	ldr	r3, [pc, #240]	@ (8002e60 <readButtonFunction+0x324>)
 8002d70:	881b      	ldrh	r3, [r3, #0]
 8002d72:	3b64      	subs	r3, #100	@ 0x64
 8002d74:	b29a      	uxth	r2, r3
 8002d76:	4b3a      	ldr	r3, [pc, #232]	@ (8002e60 <readButtonFunction+0x324>)
 8002d78:	801a      	strh	r2, [r3, #0]
						oscilloscopeTrigger=interpolation(oscilloscopeTriggerRaw);
 8002d7a:	4b39      	ldr	r3, [pc, #228]	@ (8002e60 <readButtonFunction+0x324>)
 8002d7c:	881b      	ldrh	r3, [r3, #0]
 8002d7e:	b21b      	sxth	r3, r3
 8002d80:	0018      	movs	r0, r3
 8002d82:	f7fe fe19 	bl	80019b8 <interpolation>
 8002d86:	0003      	movs	r3, r0
 8002d88:	b29a      	uxth	r2, r3
 8002d8a:	4b36      	ldr	r3, [pc, #216]	@ (8002e64 <readButtonFunction+0x328>)
 8002d8c:	801a      	strh	r2, [r3, #0]
 8002d8e:	e048      	b.n	8002e22 <readButtonFunction+0x2e6>
					else if (buttonState == 3 && buttonStatePrev == 0) { //apas jos osciloscop
 8002d90:	4b29      	ldr	r3, [pc, #164]	@ (8002e38 <readButtonFunction+0x2fc>)
 8002d92:	781b      	ldrb	r3, [r3, #0]
 8002d94:	2b03      	cmp	r3, #3
 8002d96:	d11c      	bne.n	8002dd2 <readButtonFunction+0x296>
 8002d98:	4b2a      	ldr	r3, [pc, #168]	@ (8002e44 <readButtonFunction+0x308>)
 8002d9a:	781b      	ldrb	r3, [r3, #0]
 8002d9c:	2b00      	cmp	r3, #0
 8002d9e:	d118      	bne.n	8002dd2 <readButtonFunction+0x296>
						if (currentFreqMode == FREQ_40HZ) {
 8002da0:	4b31      	ldr	r3, [pc, #196]	@ (8002e68 <readButtonFunction+0x32c>)
 8002da2:	781b      	ldrb	r3, [r3, #0]
 8002da4:	2b00      	cmp	r3, #0
 8002da6:	d108      	bne.n	8002dba <readButtonFunction+0x27e>
							currentFreqMode = FREQ_60HZ;
 8002da8:	4b2f      	ldr	r3, [pc, #188]	@ (8002e68 <readButtonFunction+0x32c>)
 8002daa:	2202      	movs	r2, #2
 8002dac:	701a      	strb	r2, [r3, #0]
							update_tim3_frequency(currentFreqMode);
 8002dae:	4b2e      	ldr	r3, [pc, #184]	@ (8002e68 <readButtonFunction+0x32c>)
 8002db0:	781b      	ldrb	r3, [r3, #0]
 8002db2:	0018      	movs	r0, r3
 8002db4:	f7fd fec8 	bl	8000b48 <update_tim3_frequency>
						if (currentFreqMode == FREQ_40HZ) {
 8002db8:	e033      	b.n	8002e22 <readButtonFunction+0x2e6>
							currentFreqMode--;
 8002dba:	4b2b      	ldr	r3, [pc, #172]	@ (8002e68 <readButtonFunction+0x32c>)
 8002dbc:	781b      	ldrb	r3, [r3, #0]
 8002dbe:	3b01      	subs	r3, #1
 8002dc0:	b2da      	uxtb	r2, r3
 8002dc2:	4b29      	ldr	r3, [pc, #164]	@ (8002e68 <readButtonFunction+0x32c>)
 8002dc4:	701a      	strb	r2, [r3, #0]
							update_tim3_frequency(currentFreqMode);
 8002dc6:	4b28      	ldr	r3, [pc, #160]	@ (8002e68 <readButtonFunction+0x32c>)
 8002dc8:	781b      	ldrb	r3, [r3, #0]
 8002dca:	0018      	movs	r0, r3
 8002dcc:	f7fd febc 	bl	8000b48 <update_tim3_frequency>
						if (currentFreqMode == FREQ_40HZ) {
 8002dd0:	e027      	b.n	8002e22 <readButtonFunction+0x2e6>
					else if (buttonState == 4 && buttonStatePrev == 0) { //apas sus osciloscop
 8002dd2:	4b19      	ldr	r3, [pc, #100]	@ (8002e38 <readButtonFunction+0x2fc>)
 8002dd4:	781b      	ldrb	r3, [r3, #0]
 8002dd6:	2b04      	cmp	r3, #4
 8002dd8:	d123      	bne.n	8002e22 <readButtonFunction+0x2e6>
 8002dda:	4b1a      	ldr	r3, [pc, #104]	@ (8002e44 <readButtonFunction+0x308>)
 8002ddc:	781b      	ldrb	r3, [r3, #0]
 8002dde:	2b00      	cmp	r3, #0
 8002de0:	d11f      	bne.n	8002e22 <readButtonFunction+0x2e6>
						if (currentFreqMode == FREQ_60HZ) {
 8002de2:	4b21      	ldr	r3, [pc, #132]	@ (8002e68 <readButtonFunction+0x32c>)
 8002de4:	781b      	ldrb	r3, [r3, #0]
 8002de6:	2b02      	cmp	r3, #2
 8002de8:	d108      	bne.n	8002dfc <readButtonFunction+0x2c0>
							currentFreqMode = FREQ_40HZ;
 8002dea:	4b1f      	ldr	r3, [pc, #124]	@ (8002e68 <readButtonFunction+0x32c>)
 8002dec:	2200      	movs	r2, #0
 8002dee:	701a      	strb	r2, [r3, #0]
							update_tim3_frequency(currentFreqMode);
 8002df0:	4b1d      	ldr	r3, [pc, #116]	@ (8002e68 <readButtonFunction+0x32c>)
 8002df2:	781b      	ldrb	r3, [r3, #0]
 8002df4:	0018      	movs	r0, r3
 8002df6:	f7fd fea7 	bl	8000b48 <update_tim3_frequency>
}
 8002dfa:	e012      	b.n	8002e22 <readButtonFunction+0x2e6>
							currentFreqMode++;
 8002dfc:	4b1a      	ldr	r3, [pc, #104]	@ (8002e68 <readButtonFunction+0x32c>)
 8002dfe:	781b      	ldrb	r3, [r3, #0]
 8002e00:	3301      	adds	r3, #1
 8002e02:	b2da      	uxtb	r2, r3
 8002e04:	4b18      	ldr	r3, [pc, #96]	@ (8002e68 <readButtonFunction+0x32c>)
 8002e06:	701a      	strb	r2, [r3, #0]
							update_tim3_frequency(currentFreqMode);
 8002e08:	4b17      	ldr	r3, [pc, #92]	@ (8002e68 <readButtonFunction+0x32c>)
 8002e0a:	781b      	ldrb	r3, [r3, #0]
 8002e0c:	0018      	movs	r0, r3
 8002e0e:	f7fd fe9b 	bl	8000b48 <update_tim3_frequency>
}
 8002e12:	e006      	b.n	8002e22 <readButtonFunction+0x2e6>
				buttonTransitionFlag = 0;
 8002e14:	4b09      	ldr	r3, [pc, #36]	@ (8002e3c <readButtonFunction+0x300>)
 8002e16:	2200      	movs	r2, #0
 8002e18:	701a      	strb	r2, [r3, #0]
				buttonDebounceTimer = 0;
 8002e1a:	4b09      	ldr	r3, [pc, #36]	@ (8002e40 <readButtonFunction+0x304>)
 8002e1c:	2200      	movs	r2, #0
 8002e1e:	601a      	str	r2, [r3, #0]
}
 8002e20:	e7ff      	b.n	8002e22 <readButtonFunction+0x2e6>
 8002e22:	46c0      	nop			@ (mov r8, r8)
 8002e24:	46bd      	mov	sp, r7
 8002e26:	b002      	add	sp, #8
 8002e28:	bd80      	pop	{r7, pc}
 8002e2a:	46c0      	nop			@ (mov r8, r8)
 8002e2c:	200005fc 	.word	0x200005fc
 8002e30:	20000008 	.word	0x20000008
 8002e34:	200005bc 	.word	0x200005bc
 8002e38:	200005c1 	.word	0x200005c1
 8002e3c:	200005c8 	.word	0x200005c8
 8002e40:	200005c4 	.word	0x200005c4
 8002e44:	200005c2 	.word	0x200005c2
 8002e48:	2000000a 	.word	0x2000000a
 8002e4c:	2000000b 	.word	0x2000000b
 8002e50:	200005d0 	.word	0x200005d0
 8002e54:	200005cc 	.word	0x200005cc
 8002e58:	200005c0 	.word	0x200005c0
 8002e5c:	2000000c 	.word	0x2000000c
 8002e60:	20000010 	.word	0x20000010
 8002e64:	2000000e 	.word	0x2000000e
 8002e68:	20000004 	.word	0x20000004

08002e6c <oscilloscopeTriggerFunction>:

void oscilloscopeTriggerFunction(void) {
 8002e6c:	b580      	push	{r7, lr}
 8002e6e:	b084      	sub	sp, #16
 8002e70:	af00      	add	r7, sp, #0
    const uint8_t SCOPE_SIZE = 128;
 8002e72:	2309      	movs	r3, #9
 8002e74:	18fb      	adds	r3, r7, r3
 8002e76:	2280      	movs	r2, #128	@ 0x80
 8002e78:	701a      	strb	r2, [r3, #0]
    const uint8_t HYST_WINDOW = 4;
 8002e7a:	2308      	movs	r3, #8
 8002e7c:	18fb      	adds	r3, r7, r3
 8002e7e:	2204      	movs	r2, #4
 8002e80:	701a      	strb	r2, [r3, #0]
    uint8_t trigger_found = 0;
 8002e82:	1dfb      	adds	r3, r7, #7
 8002e84:	2200      	movs	r2, #0
 8002e86:	701a      	strb	r2, [r3, #0]
    uint16_t trigger_index = 3;
 8002e88:	1d3b      	adds	r3, r7, #4
 8002e8a:	2203      	movs	r2, #3
 8002e8c:	801a      	strh	r2, [r3, #0]

    for (uint16_t i = 0; i < 256; i++) {
 8002e8e:	230e      	movs	r3, #14
 8002e90:	18fb      	adds	r3, r7, r3
 8002e92:	2200      	movs	r2, #0
 8002e94:	801a      	strh	r2, [r3, #0]
 8002e96:	e010      	b.n	8002eba <oscilloscopeTriggerFunction+0x4e>
        oscilloscopeBuffer[i] = adc_buffer[i];
 8002e98:	200e      	movs	r0, #14
 8002e9a:	183b      	adds	r3, r7, r0
 8002e9c:	8819      	ldrh	r1, [r3, #0]
 8002e9e:	183b      	adds	r3, r7, r0
 8002ea0:	881a      	ldrh	r2, [r3, #0]
 8002ea2:	4b42      	ldr	r3, [pc, #264]	@ (8002fac <oscilloscopeTriggerFunction+0x140>)
 8002ea4:	0049      	lsls	r1, r1, #1
 8002ea6:	5acb      	ldrh	r3, [r1, r3]
 8002ea8:	b299      	uxth	r1, r3
 8002eaa:	4b41      	ldr	r3, [pc, #260]	@ (8002fb0 <oscilloscopeTriggerFunction+0x144>)
 8002eac:	0052      	lsls	r2, r2, #1
 8002eae:	52d1      	strh	r1, [r2, r3]
    for (uint16_t i = 0; i < 256; i++) {
 8002eb0:	183b      	adds	r3, r7, r0
 8002eb2:	881a      	ldrh	r2, [r3, #0]
 8002eb4:	183b      	adds	r3, r7, r0
 8002eb6:	3201      	adds	r2, #1
 8002eb8:	801a      	strh	r2, [r3, #0]
 8002eba:	230e      	movs	r3, #14
 8002ebc:	18fb      	adds	r3, r7, r3
 8002ebe:	881b      	ldrh	r3, [r3, #0]
 8002ec0:	2bff      	cmp	r3, #255	@ 0xff
 8002ec2:	d9e9      	bls.n	8002e98 <oscilloscopeTriggerFunction+0x2c>
    }

    for (uint16_t i = 2 * HYST_WINDOW + 1; i < 256; i += 2) {
 8002ec4:	2308      	movs	r3, #8
 8002ec6:	18fb      	adds	r3, r7, r3
 8002ec8:	781b      	ldrb	r3, [r3, #0]
 8002eca:	b29b      	uxth	r3, r3
 8002ecc:	18db      	adds	r3, r3, r3
 8002ece:	b29a      	uxth	r2, r3
 8002ed0:	230c      	movs	r3, #12
 8002ed2:	18fb      	adds	r3, r7, r3
 8002ed4:	3201      	adds	r2, #1
 8002ed6:	801a      	strh	r2, [r3, #0]
 8002ed8:	e05e      	b.n	8002f98 <oscilloscopeTriggerFunction+0x12c>
        uint16_t curr_val = oscilloscopeBuffer[i];
 8002eda:	230c      	movs	r3, #12
 8002edc:	18fb      	adds	r3, r7, r3
 8002ede:	8819      	ldrh	r1, [r3, #0]
 8002ee0:	1cbb      	adds	r3, r7, #2
 8002ee2:	4a33      	ldr	r2, [pc, #204]	@ (8002fb0 <oscilloscopeTriggerFunction+0x144>)
 8002ee4:	0049      	lsls	r1, r1, #1
 8002ee6:	5a8a      	ldrh	r2, [r1, r2]
 8002ee8:	801a      	strh	r2, [r3, #0]
        if (curr_val > (oscilloscopeTriggerRaw + oscilloscopeTriggerHyst)) {
 8002eea:	1cbb      	adds	r3, r7, #2
 8002eec:	881a      	ldrh	r2, [r3, #0]
 8002eee:	4b31      	ldr	r3, [pc, #196]	@ (8002fb4 <oscilloscopeTriggerFunction+0x148>)
 8002ef0:	881b      	ldrh	r3, [r3, #0]
 8002ef2:	0019      	movs	r1, r3
 8002ef4:	4b30      	ldr	r3, [pc, #192]	@ (8002fb8 <oscilloscopeTriggerFunction+0x14c>)
 8002ef6:	881b      	ldrh	r3, [r3, #0]
 8002ef8:	18cb      	adds	r3, r1, r3
 8002efa:	429a      	cmp	r2, r3
 8002efc:	dd46      	ble.n	8002f8c <oscilloscopeTriggerFunction+0x120>
            uint8_t below_count = 0;
 8002efe:	230b      	movs	r3, #11
 8002f00:	18fb      	adds	r3, r7, r3
 8002f02:	2200      	movs	r2, #0
 8002f04:	701a      	strb	r2, [r3, #0]
            for (uint8_t w = 1; w <= HYST_WINDOW; w++) {
 8002f06:	230a      	movs	r3, #10
 8002f08:	18fb      	adds	r3, r7, r3
 8002f0a:	2201      	movs	r2, #1
 8002f0c:	701a      	strb	r2, [r3, #0]
 8002f0e:	e01f      	b.n	8002f50 <oscilloscopeTriggerFunction+0xe4>
                if (oscilloscopeBuffer[i - 2 * w] < (oscilloscopeTriggerRaw - oscilloscopeTriggerHyst)) {
 8002f10:	230c      	movs	r3, #12
 8002f12:	18fb      	adds	r3, r7, r3
 8002f14:	881a      	ldrh	r2, [r3, #0]
 8002f16:	230a      	movs	r3, #10
 8002f18:	18fb      	adds	r3, r7, r3
 8002f1a:	781b      	ldrb	r3, [r3, #0]
 8002f1c:	005b      	lsls	r3, r3, #1
 8002f1e:	1ad2      	subs	r2, r2, r3
 8002f20:	4b23      	ldr	r3, [pc, #140]	@ (8002fb0 <oscilloscopeTriggerFunction+0x144>)
 8002f22:	0052      	lsls	r2, r2, #1
 8002f24:	5ad3      	ldrh	r3, [r2, r3]
 8002f26:	001a      	movs	r2, r3
 8002f28:	4b22      	ldr	r3, [pc, #136]	@ (8002fb4 <oscilloscopeTriggerFunction+0x148>)
 8002f2a:	881b      	ldrh	r3, [r3, #0]
 8002f2c:	0019      	movs	r1, r3
 8002f2e:	4b22      	ldr	r3, [pc, #136]	@ (8002fb8 <oscilloscopeTriggerFunction+0x14c>)
 8002f30:	881b      	ldrh	r3, [r3, #0]
 8002f32:	1acb      	subs	r3, r1, r3
 8002f34:	429a      	cmp	r2, r3
 8002f36:	da05      	bge.n	8002f44 <oscilloscopeTriggerFunction+0xd8>
                    below_count++;
 8002f38:	210b      	movs	r1, #11
 8002f3a:	187b      	adds	r3, r7, r1
 8002f3c:	781a      	ldrb	r2, [r3, #0]
 8002f3e:	187b      	adds	r3, r7, r1
 8002f40:	3201      	adds	r2, #1
 8002f42:	701a      	strb	r2, [r3, #0]
            for (uint8_t w = 1; w <= HYST_WINDOW; w++) {
 8002f44:	210a      	movs	r1, #10
 8002f46:	187b      	adds	r3, r7, r1
 8002f48:	781a      	ldrb	r2, [r3, #0]
 8002f4a:	187b      	adds	r3, r7, r1
 8002f4c:	3201      	adds	r2, #1
 8002f4e:	701a      	strb	r2, [r3, #0]
 8002f50:	230a      	movs	r3, #10
 8002f52:	18fa      	adds	r2, r7, r3
 8002f54:	2108      	movs	r1, #8
 8002f56:	187b      	adds	r3, r7, r1
 8002f58:	7812      	ldrb	r2, [r2, #0]
 8002f5a:	781b      	ldrb	r3, [r3, #0]
 8002f5c:	429a      	cmp	r2, r3
 8002f5e:	d9d7      	bls.n	8002f10 <oscilloscopeTriggerFunction+0xa4>
                }
            }
            if (below_count >= HYST_WINDOW /2) {
 8002f60:	187b      	adds	r3, r7, r1
 8002f62:	781b      	ldrb	r3, [r3, #0]
 8002f64:	085b      	lsrs	r3, r3, #1
 8002f66:	b2db      	uxtb	r3, r3
 8002f68:	220b      	movs	r2, #11
 8002f6a:	18ba      	adds	r2, r7, r2
 8002f6c:	7812      	ldrb	r2, [r2, #0]
 8002f6e:	429a      	cmp	r2, r3
 8002f70:	d30c      	bcc.n	8002f8c <oscilloscopeTriggerFunction+0x120>
                trigger_found = 1;
 8002f72:	1dfb      	adds	r3, r7, #7
 8002f74:	2201      	movs	r2, #1
 8002f76:	701a      	strb	r2, [r3, #0]
                trigger_index = i;
 8002f78:	1d3b      	adds	r3, r7, #4
 8002f7a:	220c      	movs	r2, #12
 8002f7c:	18ba      	adds	r2, r7, r2
 8002f7e:	8812      	ldrh	r2, [r2, #0]
 8002f80:	801a      	strh	r2, [r3, #0]
                oscilloscopeTriggerIndex = trigger_index;
 8002f82:	4b0e      	ldr	r3, [pc, #56]	@ (8002fbc <oscilloscopeTriggerFunction+0x150>)
 8002f84:	1d3a      	adds	r2, r7, #4
 8002f86:	8812      	ldrh	r2, [r2, #0]
 8002f88:	801a      	strh	r2, [r3, #0]
                break;
 8002f8a:	e00b      	b.n	8002fa4 <oscilloscopeTriggerFunction+0x138>
    for (uint16_t i = 2 * HYST_WINDOW + 1; i < 256; i += 2) {
 8002f8c:	220c      	movs	r2, #12
 8002f8e:	18bb      	adds	r3, r7, r2
 8002f90:	18ba      	adds	r2, r7, r2
 8002f92:	8812      	ldrh	r2, [r2, #0]
 8002f94:	3202      	adds	r2, #2
 8002f96:	801a      	strh	r2, [r3, #0]
 8002f98:	230c      	movs	r3, #12
 8002f9a:	18fb      	adds	r3, r7, r3
 8002f9c:	881b      	ldrh	r3, [r3, #0]
 8002f9e:	2bff      	cmp	r3, #255	@ 0xff
 8002fa0:	d99b      	bls.n	8002eda <oscilloscopeTriggerFunction+0x6e>
            }
        }
    }
}
 8002fa2:	46c0      	nop			@ (mov r8, r8)
 8002fa4:	46c0      	nop			@ (mov r8, r8)
 8002fa6:	46bd      	mov	sp, r7
 8002fa8:	b004      	add	sp, #16
 8002faa:	bd80      	pop	{r7, pc}
 8002fac:	200005fc 	.word	0x200005fc
 8002fb0:	200007fc 	.word	0x200007fc
 8002fb4:	20000010 	.word	0x20000010
 8002fb8:	20000012 	.word	0x20000012
 8002fbc:	200009fc 	.word	0x200009fc

08002fc0 <Error_Handler>:

/**
 * @brief  This function is executed in case of error occurrence.
 * @retval None
 */
void Error_Handler(void) {
 8002fc0:	b580      	push	{r7, lr}
 8002fc2:	af00      	add	r7, sp, #0
  \details Disables IRQ interrupts by setting the I-bit in the CPSR.
           Can only be executed in Privileged modes.
 */
__STATIC_FORCEINLINE void __disable_irq(void)
{
  __ASM volatile ("cpsid i" : : : "memory");
 8002fc4:	b672      	cpsid	i
}
 8002fc6:	46c0      	nop			@ (mov r8, r8)
	/* USER CODE BEGIN Error_Handler_Debug */
	/* User can add his own implementation to report the HAL error return state */
	__disable_irq();
	while (1) {
 8002fc8:	46c0      	nop			@ (mov r8, r8)
 8002fca:	e7fd      	b.n	8002fc8 <Error_Handler+0x8>

08002fcc <OS_Init>:
static const SimpleTask *os_tasks = 0;
static uint8_t os_num_tasks = 0;
static void (*os_init_task)(void) = 0;
static uint32_t os_init_max_time_ms = 0;

void OS_Init(const SimpleTask *tasks, uint8_t num_tasks, void (*init_task)(void), uint32_t init_max_time_ms) {
 8002fcc:	b580      	push	{r7, lr}
 8002fce:	b084      	sub	sp, #16
 8002fd0:	af00      	add	r7, sp, #0
 8002fd2:	60f8      	str	r0, [r7, #12]
 8002fd4:	607a      	str	r2, [r7, #4]
 8002fd6:	603b      	str	r3, [r7, #0]
 8002fd8:	200b      	movs	r0, #11
 8002fda:	183b      	adds	r3, r7, r0
 8002fdc:	1c0a      	adds	r2, r1, #0
 8002fde:	701a      	strb	r2, [r3, #0]
    os_tasks = tasks;
 8002fe0:	4b08      	ldr	r3, [pc, #32]	@ (8003004 <OS_Init+0x38>)
 8002fe2:	68fa      	ldr	r2, [r7, #12]
 8002fe4:	601a      	str	r2, [r3, #0]
    os_num_tasks = num_tasks;
 8002fe6:	4b08      	ldr	r3, [pc, #32]	@ (8003008 <OS_Init+0x3c>)
 8002fe8:	183a      	adds	r2, r7, r0
 8002fea:	7812      	ldrb	r2, [r2, #0]
 8002fec:	701a      	strb	r2, [r3, #0]
    os_init_task = init_task;
 8002fee:	4b07      	ldr	r3, [pc, #28]	@ (800300c <OS_Init+0x40>)
 8002ff0:	687a      	ldr	r2, [r7, #4]
 8002ff2:	601a      	str	r2, [r3, #0]
    os_init_max_time_ms = init_max_time_ms;
 8002ff4:	4b06      	ldr	r3, [pc, #24]	@ (8003010 <OS_Init+0x44>)
 8002ff6:	683a      	ldr	r2, [r7, #0]
 8002ff8:	601a      	str	r2, [r3, #0]
}
 8002ffa:	46c0      	nop			@ (mov r8, r8)
 8002ffc:	46bd      	mov	sp, r7
 8002ffe:	b004      	add	sp, #16
 8003000:	bd80      	pop	{r7, pc}
 8003002:	46c0      	nop			@ (mov r8, r8)
 8003004:	20000a24 	.word	0x20000a24
 8003008:	20000a28 	.word	0x20000a28
 800300c:	20000a2c 	.word	0x20000a2c
 8003010:	20000a30 	.word	0x20000a30

08003014 <OS_Run>:

void OS_Run(void) {
 8003014:	b590      	push	{r4, r7, lr}
 8003016:	b087      	sub	sp, #28
 8003018:	af00      	add	r7, sp, #0
    if (os_init_task) {
 800301a:	4b42      	ldr	r3, [pc, #264]	@ (8003124 <OS_Run+0x110>)
 800301c:	681b      	ldr	r3, [r3, #0]
 800301e:	2b00      	cmp	r3, #0
 8003020:	d026      	beq.n	8003070 <OS_Run+0x5c>
        uint32_t start = HAL_GetTick();
 8003022:	f000 f8e5 	bl	80031f0 <HAL_GetTick>
 8003026:	0003      	movs	r3, r0
 8003028:	613b      	str	r3, [r7, #16]
        os_init_task();
 800302a:	4b3e      	ldr	r3, [pc, #248]	@ (8003124 <OS_Run+0x110>)
 800302c:	681b      	ldr	r3, [r3, #0]
 800302e:	4798      	blx	r3
        uint32_t elapsed = HAL_GetTick_us() - start;
 8003030:	f7fd fdcc 	bl	8000bcc <HAL_GetTick_us>
 8003034:	0003      	movs	r3, r0
 8003036:	001a      	movs	r2, r3
 8003038:	693b      	ldr	r3, [r7, #16]
 800303a:	1ad3      	subs	r3, r2, r3
 800303c:	60fb      	str	r3, [r7, #12]
        if (elapsed > os_init_max_time_ms) {
 800303e:	4b3a      	ldr	r3, [pc, #232]	@ (8003128 <OS_Run+0x114>)
 8003040:	681b      	ldr	r3, [r3, #0]
 8003042:	68fa      	ldr	r2, [r7, #12]
 8003044:	429a      	cmp	r2, r3
 8003046:	d908      	bls.n	800305a <OS_Run+0x46>
            os_task_overrun_count[0]++;
 8003048:	4b38      	ldr	r3, [pc, #224]	@ (800312c <OS_Run+0x118>)
 800304a:	681b      	ldr	r3, [r3, #0]
 800304c:	1c5a      	adds	r2, r3, #1
 800304e:	4b37      	ldr	r3, [pc, #220]	@ (800312c <OS_Run+0x118>)
 8003050:	601a      	str	r2, [r3, #0]
            os_task_overrun_time=elapsed;
 8003052:	4b37      	ldr	r3, [pc, #220]	@ (8003130 <OS_Run+0x11c>)
 8003054:	68fa      	ldr	r2, [r7, #12]
 8003056:	601a      	str	r2, [r3, #0]
 8003058:	e00a      	b.n	8003070 <OS_Run+0x5c>
        } else {
            while ((HAL_GetTick_us() - start) < os_init_max_time_ms) {}
 800305a:	46c0      	nop			@ (mov r8, r8)
 800305c:	f7fd fdb6 	bl	8000bcc <HAL_GetTick_us>
 8003060:	0003      	movs	r3, r0
 8003062:	001a      	movs	r2, r3
 8003064:	693b      	ldr	r3, [r7, #16]
 8003066:	1ad2      	subs	r2, r2, r3
 8003068:	4b2f      	ldr	r3, [pc, #188]	@ (8003128 <OS_Run+0x114>)
 800306a:	681b      	ldr	r3, [r3, #0]
 800306c:	429a      	cmp	r2, r3
 800306e:	d3f5      	bcc.n	800305c <OS_Run+0x48>
        }
    }
    uint8_t i = 0;
 8003070:	2317      	movs	r3, #23
 8003072:	18fb      	adds	r3, r7, r3
 8003074:	2200      	movs	r2, #0
 8003076:	701a      	strb	r2, [r3, #0]
    while (1) {
        uint32_t start = HAL_GetTick_us();
 8003078:	f7fd fda8 	bl	8000bcc <HAL_GetTick_us>
 800307c:	0003      	movs	r3, r0
 800307e:	60bb      	str	r3, [r7, #8]
        os_tasks[i].task_func();
 8003080:	4b2c      	ldr	r3, [pc, #176]	@ (8003134 <OS_Run+0x120>)
 8003082:	6819      	ldr	r1, [r3, #0]
 8003084:	2417      	movs	r4, #23
 8003086:	193b      	adds	r3, r7, r4
 8003088:	781a      	ldrb	r2, [r3, #0]
 800308a:	0013      	movs	r3, r2
 800308c:	005b      	lsls	r3, r3, #1
 800308e:	189b      	adds	r3, r3, r2
 8003090:	009b      	lsls	r3, r3, #2
 8003092:	18cb      	adds	r3, r1, r3
 8003094:	685b      	ldr	r3, [r3, #4]
 8003096:	4798      	blx	r3
        uint32_t elapsed = HAL_GetTick_us() - start;
 8003098:	f7fd fd98 	bl	8000bcc <HAL_GetTick_us>
 800309c:	0003      	movs	r3, r0
 800309e:	001a      	movs	r2, r3
 80030a0:	68bb      	ldr	r3, [r7, #8]
 80030a2:	1ad3      	subs	r3, r2, r3
 80030a4:	607b      	str	r3, [r7, #4]
        if (elapsed > os_tasks[i].max_time_ms) {
 80030a6:	4b23      	ldr	r3, [pc, #140]	@ (8003134 <OS_Run+0x120>)
 80030a8:	6819      	ldr	r1, [r3, #0]
 80030aa:	193b      	adds	r3, r7, r4
 80030ac:	781a      	ldrb	r2, [r3, #0]
 80030ae:	0013      	movs	r3, r2
 80030b0:	005b      	lsls	r3, r3, #1
 80030b2:	189b      	adds	r3, r3, r2
 80030b4:	009b      	lsls	r3, r3, #2
 80030b6:	18cb      	adds	r3, r1, r3
 80030b8:	689b      	ldr	r3, [r3, #8]
 80030ba:	687a      	ldr	r2, [r7, #4]
 80030bc:	429a      	cmp	r2, r3
 80030be:	d90d      	bls.n	80030dc <OS_Run+0xc8>
            os_task_overrun_count[i+1]++;
 80030c0:	193b      	adds	r3, r7, r4
 80030c2:	781b      	ldrb	r3, [r3, #0]
 80030c4:	3301      	adds	r3, #1
 80030c6:	4a19      	ldr	r2, [pc, #100]	@ (800312c <OS_Run+0x118>)
 80030c8:	0099      	lsls	r1, r3, #2
 80030ca:	588a      	ldr	r2, [r1, r2]
 80030cc:	1c51      	adds	r1, r2, #1
 80030ce:	4a17      	ldr	r2, [pc, #92]	@ (800312c <OS_Run+0x118>)
 80030d0:	009b      	lsls	r3, r3, #2
 80030d2:	5099      	str	r1, [r3, r2]
            os_task_overrun_time=elapsed;
 80030d4:	4b16      	ldr	r3, [pc, #88]	@ (8003130 <OS_Run+0x11c>)
 80030d6:	687a      	ldr	r2, [r7, #4]
 80030d8:	601a      	str	r2, [r3, #0]
 80030da:	e013      	b.n	8003104 <OS_Run+0xf0>
        } else {
            while ((HAL_GetTick_us() - start) < os_tasks[i].max_time_ms) {}//bucla de asteptare pana la urmatorul task
 80030dc:	46c0      	nop			@ (mov r8, r8)
 80030de:	f7fd fd75 	bl	8000bcc <HAL_GetTick_us>
 80030e2:	0003      	movs	r3, r0
 80030e4:	001a      	movs	r2, r3
 80030e6:	68bb      	ldr	r3, [r7, #8]
 80030e8:	1ad1      	subs	r1, r2, r3
 80030ea:	4b12      	ldr	r3, [pc, #72]	@ (8003134 <OS_Run+0x120>)
 80030ec:	6818      	ldr	r0, [r3, #0]
 80030ee:	2317      	movs	r3, #23
 80030f0:	18fb      	adds	r3, r7, r3
 80030f2:	781a      	ldrb	r2, [r3, #0]
 80030f4:	0013      	movs	r3, r2
 80030f6:	005b      	lsls	r3, r3, #1
 80030f8:	189b      	adds	r3, r3, r2
 80030fa:	009b      	lsls	r3, r3, #2
 80030fc:	18c3      	adds	r3, r0, r3
 80030fe:	689b      	ldr	r3, [r3, #8]
 8003100:	4299      	cmp	r1, r3
 8003102:	d3ec      	bcc.n	80030de <OS_Run+0xca>
        }
        i++;
 8003104:	2117      	movs	r1, #23
 8003106:	187b      	adds	r3, r7, r1
 8003108:	781a      	ldrb	r2, [r3, #0]
 800310a:	187b      	adds	r3, r7, r1
 800310c:	3201      	adds	r2, #1
 800310e:	701a      	strb	r2, [r3, #0]
        if (i >= os_num_tasks) i = 0;
 8003110:	4b09      	ldr	r3, [pc, #36]	@ (8003138 <OS_Run+0x124>)
 8003112:	781b      	ldrb	r3, [r3, #0]
 8003114:	187a      	adds	r2, r7, r1
 8003116:	7812      	ldrb	r2, [r2, #0]
 8003118:	429a      	cmp	r2, r3
 800311a:	d3ad      	bcc.n	8003078 <OS_Run+0x64>
 800311c:	187b      	adds	r3, r7, r1
 800311e:	2200      	movs	r2, #0
 8003120:	701a      	strb	r2, [r3, #0]
    while (1) {
 8003122:	e7a9      	b.n	8003078 <OS_Run+0x64>
 8003124:	20000a2c 	.word	0x20000a2c
 8003128:	20000a30 	.word	0x20000a30
 800312c:	200005d4 	.word	0x200005d4
 8003130:	200005f4 	.word	0x200005f4
 8003134:	20000a24 	.word	0x20000a24
 8003138:	20000a28 	.word	0x20000a28

0800313c <HAL_Init>:
  *       In the default implementation,Systick is used as source of time base.
  *       The tick variable is incremented each 1ms in its ISR.
  * @retval HAL status
  */
HAL_StatusTypeDef HAL_Init(void)
{
 800313c:	b580      	push	{r7, lr}
 800313e:	af00      	add	r7, sp, #0
  /* Configure Flash prefetch */ 
#if (PREFETCH_ENABLE != 0)
  __HAL_FLASH_PREFETCH_BUFFER_ENABLE();
 8003140:	4b07      	ldr	r3, [pc, #28]	@ (8003160 <HAL_Init+0x24>)
 8003142:	681a      	ldr	r2, [r3, #0]
 8003144:	4b06      	ldr	r3, [pc, #24]	@ (8003160 <HAL_Init+0x24>)
 8003146:	2110      	movs	r1, #16
 8003148:	430a      	orrs	r2, r1
 800314a:	601a      	str	r2, [r3, #0]
#endif /* PREFETCH_ENABLE */

  /* Use systick as time base source and configure 1ms tick (default clock after Reset is HSI) */

  HAL_InitTick(TICK_INT_PRIORITY);
 800314c:	2003      	movs	r0, #3
 800314e:	f000 f809 	bl	8003164 <HAL_InitTick>

  /* Init the low level hardware */
  HAL_MspInit();
 8003152:	f7fd fbcf 	bl	80008f4 <HAL_MspInit>

  /* Return function status */
  return HAL_OK;
 8003156:	2300      	movs	r3, #0
}
 8003158:	0018      	movs	r0, r3
 800315a:	46bd      	mov	sp, r7
 800315c:	bd80      	pop	{r7, pc}
 800315e:	46c0      	nop			@ (mov r8, r8)
 8003160:	40022000 	.word	0x40022000

08003164 <HAL_InitTick>:
  *       implementation  in user file.
  * @param TickPriority Tick interrupt priority.
  * @retval HAL status
  */
__weak HAL_StatusTypeDef HAL_InitTick(uint32_t TickPriority)
{
 8003164:	b590      	push	{r4, r7, lr}
 8003166:	b083      	sub	sp, #12
 8003168:	af00      	add	r7, sp, #0
 800316a:	6078      	str	r0, [r7, #4]
  /*Configure the SysTick to have interrupt in 1ms time basis*/
  if (HAL_SYSTICK_Config(SystemCoreClock / (1000U / uwTickFreq)) > 0U)
 800316c:	4b14      	ldr	r3, [pc, #80]	@ (80031c0 <HAL_InitTick+0x5c>)
 800316e:	681c      	ldr	r4, [r3, #0]
 8003170:	4b14      	ldr	r3, [pc, #80]	@ (80031c4 <HAL_InitTick+0x60>)
 8003172:	781b      	ldrb	r3, [r3, #0]
 8003174:	0019      	movs	r1, r3
 8003176:	23fa      	movs	r3, #250	@ 0xfa
 8003178:	0098      	lsls	r0, r3, #2
 800317a:	f7fc ffc3 	bl	8000104 <__udivsi3>
 800317e:	0003      	movs	r3, r0
 8003180:	0019      	movs	r1, r3
 8003182:	0020      	movs	r0, r4
 8003184:	f7fc ffbe 	bl	8000104 <__udivsi3>
 8003188:	0003      	movs	r3, r0
 800318a:	0018      	movs	r0, r3
 800318c:	f000 fd1f 	bl	8003bce <HAL_SYSTICK_Config>
 8003190:	1e03      	subs	r3, r0, #0
 8003192:	d001      	beq.n	8003198 <HAL_InitTick+0x34>
  {
    return HAL_ERROR;
 8003194:	2301      	movs	r3, #1
 8003196:	e00f      	b.n	80031b8 <HAL_InitTick+0x54>
  }

  /* Configure the SysTick IRQ priority */
  if (TickPriority < (1UL << __NVIC_PRIO_BITS))
 8003198:	687b      	ldr	r3, [r7, #4]
 800319a:	2b03      	cmp	r3, #3
 800319c:	d80b      	bhi.n	80031b6 <HAL_InitTick+0x52>
  {
    HAL_NVIC_SetPriority(SysTick_IRQn, TickPriority, 0U);
 800319e:	6879      	ldr	r1, [r7, #4]
 80031a0:	2301      	movs	r3, #1
 80031a2:	425b      	negs	r3, r3
 80031a4:	2200      	movs	r2, #0
 80031a6:	0018      	movs	r0, r3
 80031a8:	f000 fcec 	bl	8003b84 <HAL_NVIC_SetPriority>
    uwTickPrio = TickPriority;
 80031ac:	4b06      	ldr	r3, [pc, #24]	@ (80031c8 <HAL_InitTick+0x64>)
 80031ae:	687a      	ldr	r2, [r7, #4]
 80031b0:	601a      	str	r2, [r3, #0]
  {
    return HAL_ERROR;
  }

   /* Return function status */
  return HAL_OK;
 80031b2:	2300      	movs	r3, #0
 80031b4:	e000      	b.n	80031b8 <HAL_InitTick+0x54>
    return HAL_ERROR;
 80031b6:	2301      	movs	r3, #1
}
 80031b8:	0018      	movs	r0, r3
 80031ba:	46bd      	mov	sp, r7
 80031bc:	b003      	add	sp, #12
 80031be:	bd90      	pop	{r4, r7, pc}
 80031c0:	20000000 	.word	0x20000000
 80031c4:	20000420 	.word	0x20000420
 80031c8:	2000041c 	.word	0x2000041c

080031cc <HAL_IncTick>:
  * @note This function is declared as __weak to be overwritten in case of other 
  *       implementations in user file.
  * @retval None
  */
__weak void HAL_IncTick(void)
{
 80031cc:	b580      	push	{r7, lr}
 80031ce:	af00      	add	r7, sp, #0
  uwTick += uwTickFreq;
 80031d0:	4b05      	ldr	r3, [pc, #20]	@ (80031e8 <HAL_IncTick+0x1c>)
 80031d2:	781b      	ldrb	r3, [r3, #0]
 80031d4:	001a      	movs	r2, r3
 80031d6:	4b05      	ldr	r3, [pc, #20]	@ (80031ec <HAL_IncTick+0x20>)
 80031d8:	681b      	ldr	r3, [r3, #0]
 80031da:	18d2      	adds	r2, r2, r3
 80031dc:	4b03      	ldr	r3, [pc, #12]	@ (80031ec <HAL_IncTick+0x20>)
 80031de:	601a      	str	r2, [r3, #0]
}
 80031e0:	46c0      	nop			@ (mov r8, r8)
 80031e2:	46bd      	mov	sp, r7
 80031e4:	bd80      	pop	{r7, pc}
 80031e6:	46c0      	nop			@ (mov r8, r8)
 80031e8:	20000420 	.word	0x20000420
 80031ec:	20000a34 	.word	0x20000a34

080031f0 <HAL_GetTick>:
  * @note   This function is declared as __weak  to be overwritten  in case of other 
  *       implementations in user file.
  * @retval tick value
  */
__weak uint32_t HAL_GetTick(void)
{
 80031f0:	b580      	push	{r7, lr}
 80031f2:	af00      	add	r7, sp, #0
  return uwTick;
 80031f4:	4b02      	ldr	r3, [pc, #8]	@ (8003200 <HAL_GetTick+0x10>)
 80031f6:	681b      	ldr	r3, [r3, #0]
}
 80031f8:	0018      	movs	r0, r3
 80031fa:	46bd      	mov	sp, r7
 80031fc:	bd80      	pop	{r7, pc}
 80031fe:	46c0      	nop			@ (mov r8, r8)
 8003200:	20000a34 	.word	0x20000a34

08003204 <HAL_Delay>:
  *       implementations in user file.
  * @param Delay specifies the delay time length, in milliseconds.
  * @retval None
  */
__weak void HAL_Delay(uint32_t Delay)
{
 8003204:	b580      	push	{r7, lr}
 8003206:	b084      	sub	sp, #16
 8003208:	af00      	add	r7, sp, #0
 800320a:	6078      	str	r0, [r7, #4]
  uint32_t tickstart = HAL_GetTick();
 800320c:	f7ff fff0 	bl	80031f0 <HAL_GetTick>
 8003210:	0003      	movs	r3, r0
 8003212:	60bb      	str	r3, [r7, #8]
  uint32_t wait = Delay;
 8003214:	687b      	ldr	r3, [r7, #4]
 8003216:	60fb      	str	r3, [r7, #12]
  
  /* Add a freq to guarantee minimum wait */
  if (wait < HAL_MAX_DELAY)
 8003218:	68fb      	ldr	r3, [r7, #12]
 800321a:	3301      	adds	r3, #1
 800321c:	d005      	beq.n	800322a <HAL_Delay+0x26>
  {
    wait += (uint32_t)(uwTickFreq);
 800321e:	4b0a      	ldr	r3, [pc, #40]	@ (8003248 <HAL_Delay+0x44>)
 8003220:	781b      	ldrb	r3, [r3, #0]
 8003222:	001a      	movs	r2, r3
 8003224:	68fb      	ldr	r3, [r7, #12]
 8003226:	189b      	adds	r3, r3, r2
 8003228:	60fb      	str	r3, [r7, #12]
  }
  
  while((HAL_GetTick() - tickstart) < wait)
 800322a:	46c0      	nop			@ (mov r8, r8)
 800322c:	f7ff ffe0 	bl	80031f0 <HAL_GetTick>
 8003230:	0002      	movs	r2, r0
 8003232:	68bb      	ldr	r3, [r7, #8]
 8003234:	1ad3      	subs	r3, r2, r3
 8003236:	68fa      	ldr	r2, [r7, #12]
 8003238:	429a      	cmp	r2, r3
 800323a:	d8f7      	bhi.n	800322c <HAL_Delay+0x28>
  {
  }
}
 800323c:	46c0      	nop			@ (mov r8, r8)
 800323e:	46c0      	nop			@ (mov r8, r8)
 8003240:	46bd      	mov	sp, r7
 8003242:	b004      	add	sp, #16
 8003244:	bd80      	pop	{r7, pc}
 8003246:	46c0      	nop			@ (mov r8, r8)
 8003248:	20000420 	.word	0x20000420

0800324c <HAL_ADC_Init>:
  *         of structure "ADC_InitTypeDef".
  * @param  hadc ADC handle
  * @retval HAL status
  */
HAL_StatusTypeDef HAL_ADC_Init(ADC_HandleTypeDef* hadc)
{
 800324c:	b580      	push	{r7, lr}
 800324e:	b084      	sub	sp, #16
 8003250:	af00      	add	r7, sp, #0
 8003252:	6078      	str	r0, [r7, #4]
  HAL_StatusTypeDef tmp_hal_status = HAL_OK;
 8003254:	230f      	movs	r3, #15
 8003256:	18fb      	adds	r3, r7, r3
 8003258:	2200      	movs	r2, #0
 800325a:	701a      	strb	r2, [r3, #0]
  uint32_t tmpCFGR1 = 0U;
 800325c:	2300      	movs	r3, #0
 800325e:	60bb      	str	r3, [r7, #8]

  /* Check ADC handle */
  if(hadc == NULL)
 8003260:	687b      	ldr	r3, [r7, #4]
 8003262:	2b00      	cmp	r3, #0
 8003264:	d101      	bne.n	800326a <HAL_ADC_Init+0x1e>
  {
    return HAL_ERROR;
 8003266:	2301      	movs	r3, #1
 8003268:	e125      	b.n	80034b6 <HAL_ADC_Init+0x26a>
  /* Refer to header of this file for more details on clock enabling procedure*/
  
  /* Actions performed only if ADC is coming from state reset:                */
  /* - Initialization of ADC MSP                                              */
  /* - ADC voltage regulator enable                                           */
  if (hadc->State == HAL_ADC_STATE_RESET)
 800326a:	687b      	ldr	r3, [r7, #4]
 800326c:	6b9b      	ldr	r3, [r3, #56]	@ 0x38
 800326e:	2b00      	cmp	r3, #0
 8003270:	d10a      	bne.n	8003288 <HAL_ADC_Init+0x3c>
  {
    /* Initialize ADC error code */
    ADC_CLEAR_ERRORCODE(hadc);
 8003272:	687b      	ldr	r3, [r7, #4]
 8003274:	2200      	movs	r2, #0
 8003276:	63da      	str	r2, [r3, #60]	@ 0x3c
    
    /* Allocate lock resource and initialize it */
    hadc->Lock = HAL_UNLOCKED;
 8003278:	687b      	ldr	r3, [r7, #4]
 800327a:	2234      	movs	r2, #52	@ 0x34
 800327c:	2100      	movs	r1, #0
 800327e:	5499      	strb	r1, [r3, r2]
    
    /* Init the low level hardware */
    hadc->MspInitCallback(hadc);
#else
    /* Init the low level hardware */
    HAL_ADC_MspInit(hadc);
 8003280:	687b      	ldr	r3, [r7, #4]
 8003282:	0018      	movs	r0, r3
 8003284:	f7fd f946 	bl	8000514 <HAL_ADC_MspInit>
  /* Configuration of ADC parameters if previous preliminary actions are      */ 
  /* correctly completed.                                                     */
  /* and if there is no conversion on going on regular group (ADC can be      */ 
  /* enabled anyway, in case of call of this function to update a parameter   */
  /* on the fly).                                                             */
  if (HAL_IS_BIT_CLR(hadc->State, HAL_ADC_STATE_ERROR_INTERNAL) &&
 8003288:	687b      	ldr	r3, [r7, #4]
 800328a:	6b9b      	ldr	r3, [r3, #56]	@ 0x38
 800328c:	2210      	movs	r2, #16
 800328e:	4013      	ands	r3, r2
 8003290:	d000      	beq.n	8003294 <HAL_ADC_Init+0x48>
 8003292:	e103      	b.n	800349c <HAL_ADC_Init+0x250>
 8003294:	230f      	movs	r3, #15
 8003296:	18fb      	adds	r3, r7, r3
 8003298:	781b      	ldrb	r3, [r3, #0]
 800329a:	2b00      	cmp	r3, #0
 800329c:	d000      	beq.n	80032a0 <HAL_ADC_Init+0x54>
 800329e:	e0fd      	b.n	800349c <HAL_ADC_Init+0x250>
      (tmp_hal_status == HAL_OK)                                &&
      (ADC_IS_CONVERSION_ONGOING_REGULAR(hadc) == RESET)          )
 80032a0:	687b      	ldr	r3, [r7, #4]
 80032a2:	681b      	ldr	r3, [r3, #0]
 80032a4:	689b      	ldr	r3, [r3, #8]
 80032a6:	2204      	movs	r2, #4
 80032a8:	4013      	ands	r3, r2
      (tmp_hal_status == HAL_OK)                                &&
 80032aa:	d000      	beq.n	80032ae <HAL_ADC_Init+0x62>
 80032ac:	e0f6      	b.n	800349c <HAL_ADC_Init+0x250>
  {
    /* Set ADC state */
    ADC_STATE_CLR_SET(hadc->State,
 80032ae:	687b      	ldr	r3, [r7, #4]
 80032b0:	6b9b      	ldr	r3, [r3, #56]	@ 0x38
 80032b2:	4a83      	ldr	r2, [pc, #524]	@ (80034c0 <HAL_ADC_Init+0x274>)
 80032b4:	4013      	ands	r3, r2
 80032b6:	2202      	movs	r2, #2
 80032b8:	431a      	orrs	r2, r3
 80032ba:	687b      	ldr	r3, [r7, #4]
 80032bc:	639a      	str	r2, [r3, #56]	@ 0x38
    /* Parameters update conditioned to ADC state:                            */
    /* Parameters that can be updated only when ADC is disabled:              */
    /*  - ADC clock mode                                                      */
    /*  - ADC clock prescaler                                                 */
    /*  - ADC resolution                                                      */
    if (ADC_IS_ENABLE(hadc) == RESET)
 80032be:	687b      	ldr	r3, [r7, #4]
 80032c0:	681b      	ldr	r3, [r3, #0]
 80032c2:	689b      	ldr	r3, [r3, #8]
 80032c4:	2203      	movs	r2, #3
 80032c6:	4013      	ands	r3, r2
 80032c8:	2b01      	cmp	r3, #1
 80032ca:	d112      	bne.n	80032f2 <HAL_ADC_Init+0xa6>
 80032cc:	687b      	ldr	r3, [r7, #4]
 80032ce:	681b      	ldr	r3, [r3, #0]
 80032d0:	681b      	ldr	r3, [r3, #0]
 80032d2:	2201      	movs	r2, #1
 80032d4:	4013      	ands	r3, r2
 80032d6:	2b01      	cmp	r3, #1
 80032d8:	d009      	beq.n	80032ee <HAL_ADC_Init+0xa2>
 80032da:	687b      	ldr	r3, [r7, #4]
 80032dc:	681b      	ldr	r3, [r3, #0]
 80032de:	68da      	ldr	r2, [r3, #12]
 80032e0:	2380      	movs	r3, #128	@ 0x80
 80032e2:	021b      	lsls	r3, r3, #8
 80032e4:	401a      	ands	r2, r3
 80032e6:	2380      	movs	r3, #128	@ 0x80
 80032e8:	021b      	lsls	r3, r3, #8
 80032ea:	429a      	cmp	r2, r3
 80032ec:	d101      	bne.n	80032f2 <HAL_ADC_Init+0xa6>
 80032ee:	2301      	movs	r3, #1
 80032f0:	e000      	b.n	80032f4 <HAL_ADC_Init+0xa8>
 80032f2:	2300      	movs	r3, #0
 80032f4:	2b00      	cmp	r3, #0
 80032f6:	d116      	bne.n	8003326 <HAL_ADC_Init+0xda>
      /* parameters):                                                         */
      /*   - internal measurement paths: Vbat, temperature sensor, Vref       */
      /*     (set into HAL_ADC_ConfigChannel() )                              */
     
      /* Configuration of ADC resolution                                      */
      MODIFY_REG(hadc->Instance->CFGR1,
 80032f8:	687b      	ldr	r3, [r7, #4]
 80032fa:	681b      	ldr	r3, [r3, #0]
 80032fc:	68db      	ldr	r3, [r3, #12]
 80032fe:	2218      	movs	r2, #24
 8003300:	4393      	bics	r3, r2
 8003302:	0019      	movs	r1, r3
 8003304:	687b      	ldr	r3, [r7, #4]
 8003306:	689a      	ldr	r2, [r3, #8]
 8003308:	687b      	ldr	r3, [r7, #4]
 800330a:	681b      	ldr	r3, [r3, #0]
 800330c:	430a      	orrs	r2, r1
 800330e:	60da      	str	r2, [r3, #12]
                 ADC_CFGR1_RES        ,
                 hadc->Init.Resolution );
      
      /* Configuration of ADC clock mode: clock source AHB or HSI with        */
      /* selectable prescaler                                                 */
      MODIFY_REG(hadc->Instance->CFGR2    ,
 8003310:	687b      	ldr	r3, [r7, #4]
 8003312:	681b      	ldr	r3, [r3, #0]
 8003314:	691b      	ldr	r3, [r3, #16]
 8003316:	009b      	lsls	r3, r3, #2
 8003318:	0899      	lsrs	r1, r3, #2
 800331a:	687b      	ldr	r3, [r7, #4]
 800331c:	685a      	ldr	r2, [r3, #4]
 800331e:	687b      	ldr	r3, [r7, #4]
 8003320:	681b      	ldr	r3, [r3, #0]
 8003322:	430a      	orrs	r2, r1
 8003324:	611a      	str	r2, [r3, #16]
    /*  - external trigger polarity                                           */
    /*  - data alignment                                                      */
    /*  - resolution                                                          */
    /*  - scan direction                                                      */
    /*  - DMA continuous request                                              */
    hadc->Instance->CFGR1 &= ~( ADC_CFGR1_DISCEN  |
 8003326:	687b      	ldr	r3, [r7, #4]
 8003328:	681b      	ldr	r3, [r3, #0]
 800332a:	68da      	ldr	r2, [r3, #12]
 800332c:	687b      	ldr	r3, [r7, #4]
 800332e:	681b      	ldr	r3, [r3, #0]
 8003330:	4964      	ldr	r1, [pc, #400]	@ (80034c4 <HAL_ADC_Init+0x278>)
 8003332:	400a      	ands	r2, r1
 8003334:	60da      	str	r2, [r3, #12]
                                ADC_CFGR1_EXTEN   |
                                ADC_CFGR1_ALIGN   |
                                ADC_CFGR1_SCANDIR |
                                ADC_CFGR1_DMACFG   );

    tmpCFGR1 |= (ADC_CFGR1_AUTOWAIT((uint32_t)hadc->Init.LowPowerAutoWait)        |
 8003336:	687b      	ldr	r3, [r7, #4]
 8003338:	7e1b      	ldrb	r3, [r3, #24]
 800333a:	039a      	lsls	r2, r3, #14
                 ADC_CFGR1_AUTOOFF((uint32_t)hadc->Init.LowPowerAutoPowerOff)     |
 800333c:	687b      	ldr	r3, [r7, #4]
 800333e:	7e5b      	ldrb	r3, [r3, #25]
 8003340:	03db      	lsls	r3, r3, #15
    tmpCFGR1 |= (ADC_CFGR1_AUTOWAIT((uint32_t)hadc->Init.LowPowerAutoWait)        |
 8003342:	431a      	orrs	r2, r3
                 ADC_CFGR1_CONTINUOUS((uint32_t)hadc->Init.ContinuousConvMode)    |
 8003344:	687b      	ldr	r3, [r7, #4]
 8003346:	7e9b      	ldrb	r3, [r3, #26]
 8003348:	035b      	lsls	r3, r3, #13
                 ADC_CFGR1_AUTOOFF((uint32_t)hadc->Init.LowPowerAutoPowerOff)     |
 800334a:	431a      	orrs	r2, r3
                 ADC_CFGR1_OVERRUN(hadc->Init.Overrun)                            |
 800334c:	687b      	ldr	r3, [r7, #4]
 800334e:	6a9b      	ldr	r3, [r3, #40]	@ 0x28
 8003350:	2b01      	cmp	r3, #1
 8003352:	d002      	beq.n	800335a <HAL_ADC_Init+0x10e>
 8003354:	2380      	movs	r3, #128	@ 0x80
 8003356:	015b      	lsls	r3, r3, #5
 8003358:	e000      	b.n	800335c <HAL_ADC_Init+0x110>
 800335a:	2300      	movs	r3, #0
                 ADC_CFGR1_CONTINUOUS((uint32_t)hadc->Init.ContinuousConvMode)    |
 800335c:	431a      	orrs	r2, r3
                 hadc->Init.DataAlign                                             |
 800335e:	687b      	ldr	r3, [r7, #4]
 8003360:	68db      	ldr	r3, [r3, #12]
                 ADC_CFGR1_OVERRUN(hadc->Init.Overrun)                            |
 8003362:	431a      	orrs	r2, r3
                 ADC_SCANDIR(hadc->Init.ScanConvMode)                             |
 8003364:	687b      	ldr	r3, [r7, #4]
 8003366:	691b      	ldr	r3, [r3, #16]
 8003368:	2b02      	cmp	r3, #2
 800336a:	d101      	bne.n	8003370 <HAL_ADC_Init+0x124>
 800336c:	2304      	movs	r3, #4
 800336e:	e000      	b.n	8003372 <HAL_ADC_Init+0x126>
 8003370:	2300      	movs	r3, #0
                 hadc->Init.DataAlign                                             |
 8003372:	431a      	orrs	r2, r3
                 ADC_CFGR1_DMACONTREQ((uint32_t)hadc->Init.DMAContinuousRequests)  );
 8003374:	687b      	ldr	r3, [r7, #4]
 8003376:	2124      	movs	r1, #36	@ 0x24
 8003378:	5c5b      	ldrb	r3, [r3, r1]
 800337a:	005b      	lsls	r3, r3, #1
                 ADC_SCANDIR(hadc->Init.ScanConvMode)                             |
 800337c:	4313      	orrs	r3, r2
    tmpCFGR1 |= (ADC_CFGR1_AUTOWAIT((uint32_t)hadc->Init.LowPowerAutoWait)        |
 800337e:	68ba      	ldr	r2, [r7, #8]
 8003380:	4313      	orrs	r3, r2
 8003382:	60bb      	str	r3, [r7, #8]
    
    /* Enable discontinuous mode only if continuous mode is disabled */
    if (hadc->Init.DiscontinuousConvMode == ENABLE)
 8003384:	687b      	ldr	r3, [r7, #4]
 8003386:	7edb      	ldrb	r3, [r3, #27]
 8003388:	2b01      	cmp	r3, #1
 800338a:	d115      	bne.n	80033b8 <HAL_ADC_Init+0x16c>
    {
      if (hadc->Init.ContinuousConvMode == DISABLE)
 800338c:	687b      	ldr	r3, [r7, #4]
 800338e:	7e9b      	ldrb	r3, [r3, #26]
 8003390:	2b00      	cmp	r3, #0
 8003392:	d105      	bne.n	80033a0 <HAL_ADC_Init+0x154>
      {
        /* Enable the selected ADC group regular discontinuous mode */
        tmpCFGR1 |= ADC_CFGR1_DISCEN;
 8003394:	68bb      	ldr	r3, [r7, #8]
 8003396:	2280      	movs	r2, #128	@ 0x80
 8003398:	0252      	lsls	r2, r2, #9
 800339a:	4313      	orrs	r3, r2
 800339c:	60bb      	str	r3, [r7, #8]
 800339e:	e00b      	b.n	80033b8 <HAL_ADC_Init+0x16c>
        /* ADC regular group discontinuous was intended to be enabled,        */
        /* but ADC regular group modes continuous and sequencer discontinuous */
        /* cannot be enabled simultaneously.                                  */
        
        /* Update ADC state machine to error */
        SET_BIT(hadc->State, HAL_ADC_STATE_ERROR_CONFIG);
 80033a0:	687b      	ldr	r3, [r7, #4]
 80033a2:	6b9b      	ldr	r3, [r3, #56]	@ 0x38
 80033a4:	2220      	movs	r2, #32
 80033a6:	431a      	orrs	r2, r3
 80033a8:	687b      	ldr	r3, [r7, #4]
 80033aa:	639a      	str	r2, [r3, #56]	@ 0x38
        
        /* Set ADC error code to ADC IP internal error */
        SET_BIT(hadc->ErrorCode, HAL_ADC_ERROR_INTERNAL);
 80033ac:	687b      	ldr	r3, [r7, #4]
 80033ae:	6bdb      	ldr	r3, [r3, #60]	@ 0x3c
 80033b0:	2201      	movs	r2, #1
 80033b2:	431a      	orrs	r2, r3
 80033b4:	687b      	ldr	r3, [r7, #4]
 80033b6:	63da      	str	r2, [r3, #60]	@ 0x3c
    /* Enable external trigger if trigger selection is different of software  */
    /* start.                                                                 */
    /* Note: This configuration keeps the hardware feature of parameter       */
    /*       ExternalTrigConvEdge "trigger edge none" equivalent to           */
    /*       software start.                                                  */
    if (hadc->Init.ExternalTrigConv != ADC_SOFTWARE_START)
 80033b8:	687b      	ldr	r3, [r7, #4]
 80033ba:	69da      	ldr	r2, [r3, #28]
 80033bc:	23c2      	movs	r3, #194	@ 0xc2
 80033be:	33ff      	adds	r3, #255	@ 0xff
 80033c0:	429a      	cmp	r2, r3
 80033c2:	d007      	beq.n	80033d4 <HAL_ADC_Init+0x188>
    {
      tmpCFGR1 |= ( hadc->Init.ExternalTrigConv    |
 80033c4:	687b      	ldr	r3, [r7, #4]
 80033c6:	69da      	ldr	r2, [r3, #28]
                    hadc->Init.ExternalTrigConvEdge );
 80033c8:	687b      	ldr	r3, [r7, #4]
 80033ca:	6a1b      	ldr	r3, [r3, #32]
      tmpCFGR1 |= ( hadc->Init.ExternalTrigConv    |
 80033cc:	4313      	orrs	r3, r2
 80033ce:	68ba      	ldr	r2, [r7, #8]
 80033d0:	4313      	orrs	r3, r2
 80033d2:	60bb      	str	r3, [r7, #8]
    }
    
    /* Update ADC configuration register with previous settings */
    hadc->Instance->CFGR1 |= tmpCFGR1;
 80033d4:	687b      	ldr	r3, [r7, #4]
 80033d6:	681b      	ldr	r3, [r3, #0]
 80033d8:	68d9      	ldr	r1, [r3, #12]
 80033da:	687b      	ldr	r3, [r7, #4]
 80033dc:	681b      	ldr	r3, [r3, #0]
 80033de:	68ba      	ldr	r2, [r7, #8]
 80033e0:	430a      	orrs	r2, r1
 80033e2:	60da      	str	r2, [r3, #12]
    /* Management of parameters "SamplingTimeCommon" and "SamplingTime"       */
    /* (obsolete): sampling time set in this function if parameter            */
    /*  "SamplingTimeCommon" has been set to a valid sampling time.           */
    /* Otherwise, sampling time is set into ADC channel initialization        */
    /* structure with parameter "SamplingTime" (obsolete).                    */
    if (IS_ADC_SAMPLE_TIME(hadc->Init.SamplingTimeCommon))
 80033e4:	687b      	ldr	r3, [r7, #4]
 80033e6:	6ada      	ldr	r2, [r3, #44]	@ 0x2c
 80033e8:	2380      	movs	r3, #128	@ 0x80
 80033ea:	055b      	lsls	r3, r3, #21
 80033ec:	429a      	cmp	r2, r3
 80033ee:	d01b      	beq.n	8003428 <HAL_ADC_Init+0x1dc>
 80033f0:	687b      	ldr	r3, [r7, #4]
 80033f2:	6adb      	ldr	r3, [r3, #44]	@ 0x2c
 80033f4:	2b01      	cmp	r3, #1
 80033f6:	d017      	beq.n	8003428 <HAL_ADC_Init+0x1dc>
 80033f8:	687b      	ldr	r3, [r7, #4]
 80033fa:	6adb      	ldr	r3, [r3, #44]	@ 0x2c
 80033fc:	2b02      	cmp	r3, #2
 80033fe:	d013      	beq.n	8003428 <HAL_ADC_Init+0x1dc>
 8003400:	687b      	ldr	r3, [r7, #4]
 8003402:	6adb      	ldr	r3, [r3, #44]	@ 0x2c
 8003404:	2b03      	cmp	r3, #3
 8003406:	d00f      	beq.n	8003428 <HAL_ADC_Init+0x1dc>
 8003408:	687b      	ldr	r3, [r7, #4]
 800340a:	6adb      	ldr	r3, [r3, #44]	@ 0x2c
 800340c:	2b04      	cmp	r3, #4
 800340e:	d00b      	beq.n	8003428 <HAL_ADC_Init+0x1dc>
 8003410:	687b      	ldr	r3, [r7, #4]
 8003412:	6adb      	ldr	r3, [r3, #44]	@ 0x2c
 8003414:	2b05      	cmp	r3, #5
 8003416:	d007      	beq.n	8003428 <HAL_ADC_Init+0x1dc>
 8003418:	687b      	ldr	r3, [r7, #4]
 800341a:	6adb      	ldr	r3, [r3, #44]	@ 0x2c
 800341c:	2b06      	cmp	r3, #6
 800341e:	d003      	beq.n	8003428 <HAL_ADC_Init+0x1dc>
 8003420:	687b      	ldr	r3, [r7, #4]
 8003422:	6adb      	ldr	r3, [r3, #44]	@ 0x2c
 8003424:	2b07      	cmp	r3, #7
 8003426:	d112      	bne.n	800344e <HAL_ADC_Init+0x202>
    {
      /* Channel sampling time configuration */
      /* Clear the old sample time */
      hadc->Instance->SMPR &= ~(ADC_SMPR_SMP);
 8003428:	687b      	ldr	r3, [r7, #4]
 800342a:	681b      	ldr	r3, [r3, #0]
 800342c:	695a      	ldr	r2, [r3, #20]
 800342e:	687b      	ldr	r3, [r7, #4]
 8003430:	681b      	ldr	r3, [r3, #0]
 8003432:	2107      	movs	r1, #7
 8003434:	438a      	bics	r2, r1
 8003436:	615a      	str	r2, [r3, #20]
      
      /* Set the new sample time */
      hadc->Instance->SMPR |= ADC_SMPR_SET(hadc->Init.SamplingTimeCommon);
 8003438:	687b      	ldr	r3, [r7, #4]
 800343a:	681b      	ldr	r3, [r3, #0]
 800343c:	6959      	ldr	r1, [r3, #20]
 800343e:	687b      	ldr	r3, [r7, #4]
 8003440:	6adb      	ldr	r3, [r3, #44]	@ 0x2c
 8003442:	2207      	movs	r2, #7
 8003444:	401a      	ands	r2, r3
 8003446:	687b      	ldr	r3, [r7, #4]
 8003448:	681b      	ldr	r3, [r3, #0]
 800344a:	430a      	orrs	r2, r1
 800344c:	615a      	str	r2, [r3, #20]
    /* Check back that ADC registers have effectively been configured to      */
    /* ensure of no potential problem of ADC core IP clocking.                */
    /* Check through register CFGR1 (excluding analog watchdog configuration: */
    /* set into separate dedicated function, and bits of ADC resolution set   */
    /* out of temporary variable 'tmpCFGR1').                                 */
    if ((hadc->Instance->CFGR1 & ~(ADC_CFGR1_AWDCH | ADC_CFGR1_AWDEN | ADC_CFGR1_AWDSGL | ADC_CFGR1_RES))
 800344e:	687b      	ldr	r3, [r7, #4]
 8003450:	681b      	ldr	r3, [r3, #0]
 8003452:	68db      	ldr	r3, [r3, #12]
 8003454:	4a1c      	ldr	r2, [pc, #112]	@ (80034c8 <HAL_ADC_Init+0x27c>)
 8003456:	4013      	ands	r3, r2
 8003458:	68ba      	ldr	r2, [r7, #8]
 800345a:	429a      	cmp	r2, r3
 800345c:	d10b      	bne.n	8003476 <HAL_ADC_Init+0x22a>
         == tmpCFGR1)
    {
      /* Set ADC error code to none */
      ADC_CLEAR_ERRORCODE(hadc);
 800345e:	687b      	ldr	r3, [r7, #4]
 8003460:	2200      	movs	r2, #0
 8003462:	63da      	str	r2, [r3, #60]	@ 0x3c
      
      /* Set the ADC state */
      ADC_STATE_CLR_SET(hadc->State,
 8003464:	687b      	ldr	r3, [r7, #4]
 8003466:	6b9b      	ldr	r3, [r3, #56]	@ 0x38
 8003468:	2203      	movs	r2, #3
 800346a:	4393      	bics	r3, r2
 800346c:	2201      	movs	r2, #1
 800346e:	431a      	orrs	r2, r3
 8003470:	687b      	ldr	r3, [r7, #4]
 8003472:	639a      	str	r2, [r3, #56]	@ 0x38
    if ((hadc->Instance->CFGR1 & ~(ADC_CFGR1_AWDCH | ADC_CFGR1_AWDEN | ADC_CFGR1_AWDSGL | ADC_CFGR1_RES))
 8003474:	e01c      	b.n	80034b0 <HAL_ADC_Init+0x264>
                        HAL_ADC_STATE_READY);
    }
    else
    {
      /* Update ADC state machine to error */
      ADC_STATE_CLR_SET(hadc->State,
 8003476:	687b      	ldr	r3, [r7, #4]
 8003478:	6b9b      	ldr	r3, [r3, #56]	@ 0x38
 800347a:	2212      	movs	r2, #18
 800347c:	4393      	bics	r3, r2
 800347e:	2210      	movs	r2, #16
 8003480:	431a      	orrs	r2, r3
 8003482:	687b      	ldr	r3, [r7, #4]
 8003484:	639a      	str	r2, [r3, #56]	@ 0x38
                        HAL_ADC_STATE_BUSY_INTERNAL,
                        HAL_ADC_STATE_ERROR_INTERNAL);
      
      /* Set ADC error code to ADC IP internal error */
      SET_BIT(hadc->ErrorCode, HAL_ADC_ERROR_INTERNAL);
 8003486:	687b      	ldr	r3, [r7, #4]
 8003488:	6bdb      	ldr	r3, [r3, #60]	@ 0x3c
 800348a:	2201      	movs	r2, #1
 800348c:	431a      	orrs	r2, r3
 800348e:	687b      	ldr	r3, [r7, #4]
 8003490:	63da      	str	r2, [r3, #60]	@ 0x3c
      
      tmp_hal_status = HAL_ERROR;
 8003492:	230f      	movs	r3, #15
 8003494:	18fb      	adds	r3, r7, r3
 8003496:	2201      	movs	r2, #1
 8003498:	701a      	strb	r2, [r3, #0]
    if ((hadc->Instance->CFGR1 & ~(ADC_CFGR1_AWDCH | ADC_CFGR1_AWDEN | ADC_CFGR1_AWDSGL | ADC_CFGR1_RES))
 800349a:	e009      	b.n	80034b0 <HAL_ADC_Init+0x264>
  
  }
  else
  {
    /* Update ADC state machine to error */
    SET_BIT(hadc->State, HAL_ADC_STATE_ERROR_INTERNAL);
 800349c:	687b      	ldr	r3, [r7, #4]
 800349e:	6b9b      	ldr	r3, [r3, #56]	@ 0x38
 80034a0:	2210      	movs	r2, #16
 80034a2:	431a      	orrs	r2, r3
 80034a4:	687b      	ldr	r3, [r7, #4]
 80034a6:	639a      	str	r2, [r3, #56]	@ 0x38
        
    tmp_hal_status = HAL_ERROR;
 80034a8:	230f      	movs	r3, #15
 80034aa:	18fb      	adds	r3, r7, r3
 80034ac:	2201      	movs	r2, #1
 80034ae:	701a      	strb	r2, [r3, #0]
  }
  
  /* Return function status */
  return tmp_hal_status;
 80034b0:	230f      	movs	r3, #15
 80034b2:	18fb      	adds	r3, r7, r3
 80034b4:	781b      	ldrb	r3, [r3, #0]
}
 80034b6:	0018      	movs	r0, r3
 80034b8:	46bd      	mov	sp, r7
 80034ba:	b004      	add	sp, #16
 80034bc:	bd80      	pop	{r7, pc}
 80034be:	46c0      	nop			@ (mov r8, r8)
 80034c0:	fffffefd 	.word	0xfffffefd
 80034c4:	fffe0219 	.word	0xfffe0219
 80034c8:	833fffe7 	.word	0x833fffe7

080034cc <HAL_ADC_Start_DMA>:
  * @param  pData The destination Buffer address.
  * @param  Length The length of data to be transferred from ADC peripheral to memory.
  * @retval None
  */
HAL_StatusTypeDef HAL_ADC_Start_DMA(ADC_HandleTypeDef* hadc, uint32_t* pData, uint32_t Length)
{
 80034cc:	b590      	push	{r4, r7, lr}
 80034ce:	b087      	sub	sp, #28
 80034d0:	af00      	add	r7, sp, #0
 80034d2:	60f8      	str	r0, [r7, #12]
 80034d4:	60b9      	str	r1, [r7, #8]
 80034d6:	607a      	str	r2, [r7, #4]
  HAL_StatusTypeDef tmp_hal_status = HAL_OK;
 80034d8:	2317      	movs	r3, #23
 80034da:	18fb      	adds	r3, r7, r3
 80034dc:	2200      	movs	r2, #0
 80034de:	701a      	strb	r2, [r3, #0]
  
  /* Check the parameters */
  assert_param(IS_ADC_ALL_INSTANCE(hadc->Instance));

  /* Perform ADC enable and conversion start if no conversion is on going */
  if (ADC_IS_CONVERSION_ONGOING_REGULAR(hadc) == RESET)
 80034e0:	68fb      	ldr	r3, [r7, #12]
 80034e2:	681b      	ldr	r3, [r3, #0]
 80034e4:	689b      	ldr	r3, [r3, #8]
 80034e6:	2204      	movs	r2, #4
 80034e8:	4013      	ands	r3, r2
 80034ea:	d15e      	bne.n	80035aa <HAL_ADC_Start_DMA+0xde>
  {
    /* Process locked */
    __HAL_LOCK(hadc);
 80034ec:	68fb      	ldr	r3, [r7, #12]
 80034ee:	2234      	movs	r2, #52	@ 0x34
 80034f0:	5c9b      	ldrb	r3, [r3, r2]
 80034f2:	2b01      	cmp	r3, #1
 80034f4:	d101      	bne.n	80034fa <HAL_ADC_Start_DMA+0x2e>
 80034f6:	2302      	movs	r3, #2
 80034f8:	e05e      	b.n	80035b8 <HAL_ADC_Start_DMA+0xec>
 80034fa:	68fb      	ldr	r3, [r7, #12]
 80034fc:	2234      	movs	r2, #52	@ 0x34
 80034fe:	2101      	movs	r1, #1
 8003500:	5499      	strb	r1, [r3, r2]

    /* Enable the ADC peripheral */
    /* If low power mode AutoPowerOff is enabled, power-on/off phases are       */
    /* performed automatically by hardware.                                     */
    if (hadc->Init.LowPowerAutoPowerOff != ENABLE)
 8003502:	68fb      	ldr	r3, [r7, #12]
 8003504:	7e5b      	ldrb	r3, [r3, #25]
 8003506:	2b01      	cmp	r3, #1
 8003508:	d007      	beq.n	800351a <HAL_ADC_Start_DMA+0x4e>
    {
      tmp_hal_status = ADC_Enable(hadc);
 800350a:	2317      	movs	r3, #23
 800350c:	18fc      	adds	r4, r7, r3
 800350e:	68fb      	ldr	r3, [r7, #12]
 8003510:	0018      	movs	r0, r3
 8003512:	f000 f983 	bl	800381c <ADC_Enable>
 8003516:	0003      	movs	r3, r0
 8003518:	7023      	strb	r3, [r4, #0]
    }
    
    /* Start conversion if ADC is effectively enabled */
    if (tmp_hal_status == HAL_OK)
 800351a:	2317      	movs	r3, #23
 800351c:	18fb      	adds	r3, r7, r3
 800351e:	781b      	ldrb	r3, [r3, #0]
 8003520:	2b00      	cmp	r3, #0
 8003522:	d146      	bne.n	80035b2 <HAL_ADC_Start_DMA+0xe6>
    {
      /* Set ADC state                                                        */
      /* - Clear state bitfield related to regular group conversion results   */
      /* - Set state bitfield related to regular operation                    */
      ADC_STATE_CLR_SET(hadc->State,
 8003524:	68fb      	ldr	r3, [r7, #12]
 8003526:	6b9b      	ldr	r3, [r3, #56]	@ 0x38
 8003528:	4a25      	ldr	r2, [pc, #148]	@ (80035c0 <HAL_ADC_Start_DMA+0xf4>)
 800352a:	4013      	ands	r3, r2
 800352c:	2280      	movs	r2, #128	@ 0x80
 800352e:	0052      	lsls	r2, r2, #1
 8003530:	431a      	orrs	r2, r3
 8003532:	68fb      	ldr	r3, [r7, #12]
 8003534:	639a      	str	r2, [r3, #56]	@ 0x38
                        HAL_ADC_STATE_READY | HAL_ADC_STATE_REG_EOC | HAL_ADC_STATE_REG_OVR | HAL_ADC_STATE_REG_EOSMP,
                        HAL_ADC_STATE_REG_BUSY);
      
      /* Reset ADC all error code fields */
      ADC_CLEAR_ERRORCODE(hadc);
 8003536:	68fb      	ldr	r3, [r7, #12]
 8003538:	2200      	movs	r2, #0
 800353a:	63da      	str	r2, [r3, #60]	@ 0x3c
      
      /* Process unlocked */
      /* Unlock before starting ADC conversions: in case of potential         */
      /* interruption, to let the process to ADC IRQ Handler.                 */
      __HAL_UNLOCK(hadc);
 800353c:	68fb      	ldr	r3, [r7, #12]
 800353e:	2234      	movs	r2, #52	@ 0x34
 8003540:	2100      	movs	r1, #0
 8003542:	5499      	strb	r1, [r3, r2]

      /* Set the DMA transfer complete callback */
      hadc->DMA_Handle->XferCpltCallback = ADC_DMAConvCplt;
 8003544:	68fb      	ldr	r3, [r7, #12]
 8003546:	6b1b      	ldr	r3, [r3, #48]	@ 0x30
 8003548:	4a1e      	ldr	r2, [pc, #120]	@ (80035c4 <HAL_ADC_Start_DMA+0xf8>)
 800354a:	629a      	str	r2, [r3, #40]	@ 0x28

      /* Set the DMA half transfer complete callback */
      hadc->DMA_Handle->XferHalfCpltCallback = ADC_DMAHalfConvCplt;
 800354c:	68fb      	ldr	r3, [r7, #12]
 800354e:	6b1b      	ldr	r3, [r3, #48]	@ 0x30
 8003550:	4a1d      	ldr	r2, [pc, #116]	@ (80035c8 <HAL_ADC_Start_DMA+0xfc>)
 8003552:	62da      	str	r2, [r3, #44]	@ 0x2c
      
      /* Set the DMA error callback */
      hadc->DMA_Handle->XferErrorCallback = ADC_DMAError;
 8003554:	68fb      	ldr	r3, [r7, #12]
 8003556:	6b1b      	ldr	r3, [r3, #48]	@ 0x30
 8003558:	4a1c      	ldr	r2, [pc, #112]	@ (80035cc <HAL_ADC_Start_DMA+0x100>)
 800355a:	631a      	str	r2, [r3, #48]	@ 0x30
      /* start (in case of SW start):                                         */
      
      /* Clear regular group conversion flag and overrun flag */
      /* (To ensure of no unknown state from potential previous ADC           */
      /* operations)                                                          */
      __HAL_ADC_CLEAR_FLAG(hadc, (ADC_FLAG_EOC | ADC_FLAG_EOS | ADC_FLAG_OVR));
 800355c:	68fb      	ldr	r3, [r7, #12]
 800355e:	681b      	ldr	r3, [r3, #0]
 8003560:	221c      	movs	r2, #28
 8003562:	601a      	str	r2, [r3, #0]
      
      /* Enable ADC overrun interrupt */
      __HAL_ADC_ENABLE_IT(hadc, ADC_IT_OVR);
 8003564:	68fb      	ldr	r3, [r7, #12]
 8003566:	681b      	ldr	r3, [r3, #0]
 8003568:	685a      	ldr	r2, [r3, #4]
 800356a:	68fb      	ldr	r3, [r7, #12]
 800356c:	681b      	ldr	r3, [r3, #0]
 800356e:	2110      	movs	r1, #16
 8003570:	430a      	orrs	r2, r1
 8003572:	605a      	str	r2, [r3, #4]
      
      /* Enable ADC DMA mode */
      hadc->Instance->CFGR1 |= ADC_CFGR1_DMAEN;
 8003574:	68fb      	ldr	r3, [r7, #12]
 8003576:	681b      	ldr	r3, [r3, #0]
 8003578:	68da      	ldr	r2, [r3, #12]
 800357a:	68fb      	ldr	r3, [r7, #12]
 800357c:	681b      	ldr	r3, [r3, #0]
 800357e:	2101      	movs	r1, #1
 8003580:	430a      	orrs	r2, r1
 8003582:	60da      	str	r2, [r3, #12]
      
      /* Start the DMA channel */
      HAL_DMA_Start_IT(hadc->DMA_Handle, (uint32_t)&hadc->Instance->DR, (uint32_t)pData, Length);
 8003584:	68fb      	ldr	r3, [r7, #12]
 8003586:	6b18      	ldr	r0, [r3, #48]	@ 0x30
 8003588:	68fb      	ldr	r3, [r7, #12]
 800358a:	681b      	ldr	r3, [r3, #0]
 800358c:	3340      	adds	r3, #64	@ 0x40
 800358e:	0019      	movs	r1, r3
 8003590:	68ba      	ldr	r2, [r7, #8]
 8003592:	687b      	ldr	r3, [r7, #4]
 8003594:	f000 fb70 	bl	8003c78 <HAL_DMA_Start_IT>
           
      /* Enable conversion of regular group.                                  */
      /* If software start has been selected, conversion starts immediately.  */
      /* If external trigger has been selected, conversion will start at next */
      /* trigger event.                                                       */
      hadc->Instance->CR |= ADC_CR_ADSTART;
 8003598:	68fb      	ldr	r3, [r7, #12]
 800359a:	681b      	ldr	r3, [r3, #0]
 800359c:	689a      	ldr	r2, [r3, #8]
 800359e:	68fb      	ldr	r3, [r7, #12]
 80035a0:	681b      	ldr	r3, [r3, #0]
 80035a2:	2104      	movs	r1, #4
 80035a4:	430a      	orrs	r2, r1
 80035a6:	609a      	str	r2, [r3, #8]
 80035a8:	e003      	b.n	80035b2 <HAL_ADC_Start_DMA+0xe6>
    }
  }
  else
  {
    tmp_hal_status = HAL_BUSY;
 80035aa:	2317      	movs	r3, #23
 80035ac:	18fb      	adds	r3, r7, r3
 80035ae:	2202      	movs	r2, #2
 80035b0:	701a      	strb	r2, [r3, #0]
  }
    
  /* Return function status */
  return tmp_hal_status;
 80035b2:	2317      	movs	r3, #23
 80035b4:	18fb      	adds	r3, r7, r3
 80035b6:	781b      	ldrb	r3, [r3, #0]
}
 80035b8:	0018      	movs	r0, r3
 80035ba:	46bd      	mov	sp, r7
 80035bc:	b007      	add	sp, #28
 80035be:	bd90      	pop	{r4, r7, pc}
 80035c0:	fffff0fe 	.word	0xfffff0fe
 80035c4:	08003925 	.word	0x08003925
 80035c8:	080039d9 	.word	0x080039d9
 80035cc:	080039f7 	.word	0x080039f7

080035d0 <HAL_ADC_ConvCpltCallback>:
  * @brief  Conversion complete callback in non blocking mode 
  * @param  hadc ADC handle
  * @retval None
  */
__weak void HAL_ADC_ConvCpltCallback(ADC_HandleTypeDef* hadc)
{
 80035d0:	b580      	push	{r7, lr}
 80035d2:	b082      	sub	sp, #8
 80035d4:	af00      	add	r7, sp, #0
 80035d6:	6078      	str	r0, [r7, #4]
  UNUSED(hadc);

  /* NOTE : This function should not be modified. When the callback is needed,
            function HAL_ADC_ConvCpltCallback must be implemented in the user file.
   */
}
 80035d8:	46c0      	nop			@ (mov r8, r8)
 80035da:	46bd      	mov	sp, r7
 80035dc:	b002      	add	sp, #8
 80035de:	bd80      	pop	{r7, pc}

080035e0 <HAL_ADC_ConvHalfCpltCallback>:
  * @brief  Conversion DMA half-transfer callback in non blocking mode 
  * @param  hadc ADC handle
  * @retval None
  */
__weak void HAL_ADC_ConvHalfCpltCallback(ADC_HandleTypeDef* hadc)
{
 80035e0:	b580      	push	{r7, lr}
 80035e2:	b082      	sub	sp, #8
 80035e4:	af00      	add	r7, sp, #0
 80035e6:	6078      	str	r0, [r7, #4]
  UNUSED(hadc);

  /* NOTE : This function should not be modified. When the callback is needed,
            function HAL_ADC_ConvHalfCpltCallback must be implemented in the user file.
  */
}
 80035e8:	46c0      	nop			@ (mov r8, r8)
 80035ea:	46bd      	mov	sp, r7
 80035ec:	b002      	add	sp, #8
 80035ee:	bd80      	pop	{r7, pc}

080035f0 <HAL_ADC_ErrorCallback>:
  *        (ADC conversion with interruption or transfer by DMA)
  * @param  hadc ADC handle
  * @retval None
  */
__weak void HAL_ADC_ErrorCallback(ADC_HandleTypeDef *hadc)
{
 80035f0:	b580      	push	{r7, lr}
 80035f2:	b082      	sub	sp, #8
 80035f4:	af00      	add	r7, sp, #0
 80035f6:	6078      	str	r0, [r7, #4]
  UNUSED(hadc);

  /* NOTE : This function should not be modified. When the callback is needed,
            function HAL_ADC_ErrorCallback must be implemented in the user file.
  */
}
 80035f8:	46c0      	nop			@ (mov r8, r8)
 80035fa:	46bd      	mov	sp, r7
 80035fc:	b002      	add	sp, #8
 80035fe:	bd80      	pop	{r7, pc}

08003600 <HAL_ADC_ConfigChannel>:
  * @param  hadc ADC handle
  * @param  sConfig Structure of ADC channel for regular group.
  * @retval HAL status
  */
HAL_StatusTypeDef HAL_ADC_ConfigChannel(ADC_HandleTypeDef* hadc, ADC_ChannelConfTypeDef* sConfig)
{
 8003600:	b580      	push	{r7, lr}
 8003602:	b084      	sub	sp, #16
 8003604:	af00      	add	r7, sp, #0
 8003606:	6078      	str	r0, [r7, #4]
 8003608:	6039      	str	r1, [r7, #0]
  HAL_StatusTypeDef tmp_hal_status = HAL_OK;
 800360a:	230f      	movs	r3, #15
 800360c:	18fb      	adds	r3, r7, r3
 800360e:	2200      	movs	r2, #0
 8003610:	701a      	strb	r2, [r3, #0]
  __IO uint32_t wait_loop_index = 0U;
 8003612:	2300      	movs	r3, #0
 8003614:	60bb      	str	r3, [r7, #8]
  /* Check the parameters */
  assert_param(IS_ADC_ALL_INSTANCE(hadc->Instance));
  assert_param(IS_ADC_CHANNEL(sConfig->Channel));
  assert_param(IS_ADC_RANK(sConfig->Rank));
  
  if (! IS_ADC_SAMPLE_TIME(hadc->Init.SamplingTimeCommon))
 8003616:	687b      	ldr	r3, [r7, #4]
 8003618:	6ada      	ldr	r2, [r3, #44]	@ 0x2c
 800361a:	2380      	movs	r3, #128	@ 0x80
 800361c:	055b      	lsls	r3, r3, #21
 800361e:	429a      	cmp	r2, r3
 8003620:	d011      	beq.n	8003646 <HAL_ADC_ConfigChannel+0x46>
 8003622:	687b      	ldr	r3, [r7, #4]
 8003624:	6adb      	ldr	r3, [r3, #44]	@ 0x2c
 8003626:	2b01      	cmp	r3, #1
 8003628:	d00d      	beq.n	8003646 <HAL_ADC_ConfigChannel+0x46>
 800362a:	687b      	ldr	r3, [r7, #4]
 800362c:	6adb      	ldr	r3, [r3, #44]	@ 0x2c
 800362e:	2b02      	cmp	r3, #2
 8003630:	d009      	beq.n	8003646 <HAL_ADC_ConfigChannel+0x46>
 8003632:	687b      	ldr	r3, [r7, #4]
 8003634:	6adb      	ldr	r3, [r3, #44]	@ 0x2c
 8003636:	2b03      	cmp	r3, #3
 8003638:	d005      	beq.n	8003646 <HAL_ADC_ConfigChannel+0x46>
 800363a:	687b      	ldr	r3, [r7, #4]
 800363c:	6adb      	ldr	r3, [r3, #44]	@ 0x2c
 800363e:	2b04      	cmp	r3, #4
 8003640:	d001      	beq.n	8003646 <HAL_ADC_ConfigChannel+0x46>
 8003642:	687b      	ldr	r3, [r7, #4]
 8003644:	6adb      	ldr	r3, [r3, #44]	@ 0x2c
  {
    assert_param(IS_ADC_SAMPLE_TIME(sConfig->SamplingTime));
  }
  
  /* Process locked */
  __HAL_LOCK(hadc);
 8003646:	687b      	ldr	r3, [r7, #4]
 8003648:	2234      	movs	r2, #52	@ 0x34
 800364a:	5c9b      	ldrb	r3, [r3, r2]
 800364c:	2b01      	cmp	r3, #1
 800364e:	d101      	bne.n	8003654 <HAL_ADC_ConfigChannel+0x54>
 8003650:	2302      	movs	r3, #2
 8003652:	e0d0      	b.n	80037f6 <HAL_ADC_ConfigChannel+0x1f6>
 8003654:	687b      	ldr	r3, [r7, #4]
 8003656:	2234      	movs	r2, #52	@ 0x34
 8003658:	2101      	movs	r1, #1
 800365a:	5499      	strb	r1, [r3, r2]
  /* Parameters that can be updated when ADC is disabled or enabled without   */
  /* conversion on going on regular group:                                    */
  /*  - Channel number                                                        */
  /*  - Channel sampling time                                                 */
  /*  - Management of internal measurement channels: VrefInt/TempSensor/Vbat  */
  if (ADC_IS_CONVERSION_ONGOING_REGULAR(hadc) == RESET)
 800365c:	687b      	ldr	r3, [r7, #4]
 800365e:	681b      	ldr	r3, [r3, #0]
 8003660:	689b      	ldr	r3, [r3, #8]
 8003662:	2204      	movs	r2, #4
 8003664:	4013      	ands	r3, r2
 8003666:	d000      	beq.n	800366a <HAL_ADC_ConfigChannel+0x6a>
 8003668:	e0b4      	b.n	80037d4 <HAL_ADC_ConfigChannel+0x1d4>
  {
    /* Configure channel: depending on rank setting, add it or remove it from */
    /* ADC conversion sequencer.                                              */
    if (sConfig->Rank != ADC_RANK_NONE)
 800366a:	683b      	ldr	r3, [r7, #0]
 800366c:	685b      	ldr	r3, [r3, #4]
 800366e:	4a64      	ldr	r2, [pc, #400]	@ (8003800 <HAL_ADC_ConfigChannel+0x200>)
 8003670:	4293      	cmp	r3, r2
 8003672:	d100      	bne.n	8003676 <HAL_ADC_ConfigChannel+0x76>
 8003674:	e082      	b.n	800377c <HAL_ADC_ConfigChannel+0x17c>
    {
      /* Regular sequence configuration */
      /* Set the channel selection register from the selected channel */
      hadc->Instance->CHSELR |= ADC_CHSELR_CHANNEL(sConfig->Channel);
 8003676:	687b      	ldr	r3, [r7, #4]
 8003678:	681b      	ldr	r3, [r3, #0]
 800367a:	6a99      	ldr	r1, [r3, #40]	@ 0x28
 800367c:	683b      	ldr	r3, [r7, #0]
 800367e:	681b      	ldr	r3, [r3, #0]
 8003680:	2201      	movs	r2, #1
 8003682:	409a      	lsls	r2, r3
 8003684:	687b      	ldr	r3, [r7, #4]
 8003686:	681b      	ldr	r3, [r3, #0]
 8003688:	430a      	orrs	r2, r1
 800368a:	629a      	str	r2, [r3, #40]	@ 0x28
      /* Channel sampling time configuration */
      /* Management of parameters "SamplingTimeCommon" and "SamplingTime"     */
      /* (obsolete): sampling time set in this function with                  */
      /* parameter "SamplingTime" (obsolete) only if not already set into     */
      /* ADC initialization structure with parameter "SamplingTimeCommon".    */
      if (! IS_ADC_SAMPLE_TIME(hadc->Init.SamplingTimeCommon))
 800368c:	687b      	ldr	r3, [r7, #4]
 800368e:	6ada      	ldr	r2, [r3, #44]	@ 0x2c
 8003690:	2380      	movs	r3, #128	@ 0x80
 8003692:	055b      	lsls	r3, r3, #21
 8003694:	429a      	cmp	r2, r3
 8003696:	d037      	beq.n	8003708 <HAL_ADC_ConfigChannel+0x108>
 8003698:	687b      	ldr	r3, [r7, #4]
 800369a:	6adb      	ldr	r3, [r3, #44]	@ 0x2c
 800369c:	2b01      	cmp	r3, #1
 800369e:	d033      	beq.n	8003708 <HAL_ADC_ConfigChannel+0x108>
 80036a0:	687b      	ldr	r3, [r7, #4]
 80036a2:	6adb      	ldr	r3, [r3, #44]	@ 0x2c
 80036a4:	2b02      	cmp	r3, #2
 80036a6:	d02f      	beq.n	8003708 <HAL_ADC_ConfigChannel+0x108>
 80036a8:	687b      	ldr	r3, [r7, #4]
 80036aa:	6adb      	ldr	r3, [r3, #44]	@ 0x2c
 80036ac:	2b03      	cmp	r3, #3
 80036ae:	d02b      	beq.n	8003708 <HAL_ADC_ConfigChannel+0x108>
 80036b0:	687b      	ldr	r3, [r7, #4]
 80036b2:	6adb      	ldr	r3, [r3, #44]	@ 0x2c
 80036b4:	2b04      	cmp	r3, #4
 80036b6:	d027      	beq.n	8003708 <HAL_ADC_ConfigChannel+0x108>
 80036b8:	687b      	ldr	r3, [r7, #4]
 80036ba:	6adb      	ldr	r3, [r3, #44]	@ 0x2c
 80036bc:	2b05      	cmp	r3, #5
 80036be:	d023      	beq.n	8003708 <HAL_ADC_ConfigChannel+0x108>
 80036c0:	687b      	ldr	r3, [r7, #4]
 80036c2:	6adb      	ldr	r3, [r3, #44]	@ 0x2c
 80036c4:	2b06      	cmp	r3, #6
 80036c6:	d01f      	beq.n	8003708 <HAL_ADC_ConfigChannel+0x108>
 80036c8:	687b      	ldr	r3, [r7, #4]
 80036ca:	6adb      	ldr	r3, [r3, #44]	@ 0x2c
 80036cc:	2b07      	cmp	r3, #7
 80036ce:	d01b      	beq.n	8003708 <HAL_ADC_ConfigChannel+0x108>
      {
        /* Modify sampling time if needed (not needed in case of recurrence */
        /* for several channels programmed consecutively into the sequencer)  */
        if (sConfig->SamplingTime != ADC_GET_SAMPLINGTIME(hadc))
 80036d0:	683b      	ldr	r3, [r7, #0]
 80036d2:	689a      	ldr	r2, [r3, #8]
 80036d4:	687b      	ldr	r3, [r7, #4]
 80036d6:	681b      	ldr	r3, [r3, #0]
 80036d8:	695b      	ldr	r3, [r3, #20]
 80036da:	2107      	movs	r1, #7
 80036dc:	400b      	ands	r3, r1
 80036de:	429a      	cmp	r2, r3
 80036e0:	d012      	beq.n	8003708 <HAL_ADC_ConfigChannel+0x108>
        {
          /* Channel sampling time configuration */
          /* Clear the old sample time */
          hadc->Instance->SMPR &= ~(ADC_SMPR_SMP);
 80036e2:	687b      	ldr	r3, [r7, #4]
 80036e4:	681b      	ldr	r3, [r3, #0]
 80036e6:	695a      	ldr	r2, [r3, #20]
 80036e8:	687b      	ldr	r3, [r7, #4]
 80036ea:	681b      	ldr	r3, [r3, #0]
 80036ec:	2107      	movs	r1, #7
 80036ee:	438a      	bics	r2, r1
 80036f0:	615a      	str	r2, [r3, #20]
          
          /* Set the new sample time */
          hadc->Instance->SMPR |= ADC_SMPR_SET(sConfig->SamplingTime);
 80036f2:	687b      	ldr	r3, [r7, #4]
 80036f4:	681b      	ldr	r3, [r3, #0]
 80036f6:	6959      	ldr	r1, [r3, #20]
 80036f8:	683b      	ldr	r3, [r7, #0]
 80036fa:	689b      	ldr	r3, [r3, #8]
 80036fc:	2207      	movs	r2, #7
 80036fe:	401a      	ands	r2, r3
 8003700:	687b      	ldr	r3, [r7, #4]
 8003702:	681b      	ldr	r3, [r3, #0]
 8003704:	430a      	orrs	r2, r1
 8003706:	615a      	str	r2, [r3, #20]
      /* internal measurement paths enable: If internal channel selected,     */
      /* enable dedicated internal buffers and path.                          */
      /* Note: these internal measurement paths can be disabled using         */
      /*       HAL_ADC_DeInit() or removing the channel from sequencer with   */
      /*       channel configuration parameter "Rank".                        */
      if(ADC_IS_CHANNEL_INTERNAL(sConfig->Channel))
 8003708:	683b      	ldr	r3, [r7, #0]
 800370a:	681b      	ldr	r3, [r3, #0]
 800370c:	2b10      	cmp	r3, #16
 800370e:	d007      	beq.n	8003720 <HAL_ADC_ConfigChannel+0x120>
 8003710:	683b      	ldr	r3, [r7, #0]
 8003712:	681b      	ldr	r3, [r3, #0]
 8003714:	2b11      	cmp	r3, #17
 8003716:	d003      	beq.n	8003720 <HAL_ADC_ConfigChannel+0x120>
 8003718:	683b      	ldr	r3, [r7, #0]
 800371a:	681b      	ldr	r3, [r3, #0]
 800371c:	2b12      	cmp	r3, #18
 800371e:	d163      	bne.n	80037e8 <HAL_ADC_ConfigChannel+0x1e8>
      {
        /* If Channel_16 is selected, enable Temp. sensor measurement path. */
        /* If Channel_17 is selected, enable VREFINT measurement path. */
        /* If Channel_18 is selected, enable VBAT measurement path. */
        ADC->CCR |= ADC_CHANNEL_INTERNAL_PATH(sConfig->Channel);
 8003720:	4b38      	ldr	r3, [pc, #224]	@ (8003804 <HAL_ADC_ConfigChannel+0x204>)
 8003722:	6819      	ldr	r1, [r3, #0]
 8003724:	683b      	ldr	r3, [r7, #0]
 8003726:	681b      	ldr	r3, [r3, #0]
 8003728:	2b10      	cmp	r3, #16
 800372a:	d009      	beq.n	8003740 <HAL_ADC_ConfigChannel+0x140>
 800372c:	683b      	ldr	r3, [r7, #0]
 800372e:	681b      	ldr	r3, [r3, #0]
 8003730:	2b11      	cmp	r3, #17
 8003732:	d102      	bne.n	800373a <HAL_ADC_ConfigChannel+0x13a>
 8003734:	2380      	movs	r3, #128	@ 0x80
 8003736:	03db      	lsls	r3, r3, #15
 8003738:	e004      	b.n	8003744 <HAL_ADC_ConfigChannel+0x144>
 800373a:	2380      	movs	r3, #128	@ 0x80
 800373c:	045b      	lsls	r3, r3, #17
 800373e:	e001      	b.n	8003744 <HAL_ADC_ConfigChannel+0x144>
 8003740:	2380      	movs	r3, #128	@ 0x80
 8003742:	041b      	lsls	r3, r3, #16
 8003744:	4a2f      	ldr	r2, [pc, #188]	@ (8003804 <HAL_ADC_ConfigChannel+0x204>)
 8003746:	430b      	orrs	r3, r1
 8003748:	6013      	str	r3, [r2, #0]
        
        /* If Temp. sensor is selected, wait for stabilization delay */
        if (sConfig->Channel == ADC_CHANNEL_TEMPSENSOR)
 800374a:	683b      	ldr	r3, [r7, #0]
 800374c:	681b      	ldr	r3, [r3, #0]
 800374e:	2b10      	cmp	r3, #16
 8003750:	d14a      	bne.n	80037e8 <HAL_ADC_ConfigChannel+0x1e8>
        {
          /* Delay for temperature sensor stabilization time */
          /* Compute number of CPU cycles to wait for */
          wait_loop_index = (ADC_TEMPSENSOR_DELAY_US * (SystemCoreClock / 1000000U));
 8003752:	4b2d      	ldr	r3, [pc, #180]	@ (8003808 <HAL_ADC_ConfigChannel+0x208>)
 8003754:	681b      	ldr	r3, [r3, #0]
 8003756:	492d      	ldr	r1, [pc, #180]	@ (800380c <HAL_ADC_ConfigChannel+0x20c>)
 8003758:	0018      	movs	r0, r3
 800375a:	f7fc fcd3 	bl	8000104 <__udivsi3>
 800375e:	0003      	movs	r3, r0
 8003760:	001a      	movs	r2, r3
 8003762:	0013      	movs	r3, r2
 8003764:	009b      	lsls	r3, r3, #2
 8003766:	189b      	adds	r3, r3, r2
 8003768:	005b      	lsls	r3, r3, #1
 800376a:	60bb      	str	r3, [r7, #8]
          while(wait_loop_index != 0U)
 800376c:	e002      	b.n	8003774 <HAL_ADC_ConfigChannel+0x174>
          {
            wait_loop_index--;
 800376e:	68bb      	ldr	r3, [r7, #8]
 8003770:	3b01      	subs	r3, #1
 8003772:	60bb      	str	r3, [r7, #8]
          while(wait_loop_index != 0U)
 8003774:	68bb      	ldr	r3, [r7, #8]
 8003776:	2b00      	cmp	r3, #0
 8003778:	d1f9      	bne.n	800376e <HAL_ADC_ConfigChannel+0x16e>
 800377a:	e035      	b.n	80037e8 <HAL_ADC_ConfigChannel+0x1e8>
    }
    else
    {
      /* Regular sequence configuration */
      /* Reset the channel selection register from the selected channel */
      hadc->Instance->CHSELR &= ~ADC_CHSELR_CHANNEL(sConfig->Channel);
 800377c:	687b      	ldr	r3, [r7, #4]
 800377e:	681b      	ldr	r3, [r3, #0]
 8003780:	6a9a      	ldr	r2, [r3, #40]	@ 0x28
 8003782:	683b      	ldr	r3, [r7, #0]
 8003784:	681b      	ldr	r3, [r3, #0]
 8003786:	2101      	movs	r1, #1
 8003788:	4099      	lsls	r1, r3
 800378a:	000b      	movs	r3, r1
 800378c:	43d9      	mvns	r1, r3
 800378e:	687b      	ldr	r3, [r7, #4]
 8003790:	681b      	ldr	r3, [r3, #0]
 8003792:	400a      	ands	r2, r1
 8003794:	629a      	str	r2, [r3, #40]	@ 0x28
      
      /* Management of internal measurement channels: VrefInt/TempSensor/Vbat */
      /* internal measurement paths disable: If internal channel selected,    */
      /* disable dedicated internal buffers and path.                         */
      if(ADC_IS_CHANNEL_INTERNAL(sConfig->Channel))
 8003796:	683b      	ldr	r3, [r7, #0]
 8003798:	681b      	ldr	r3, [r3, #0]
 800379a:	2b10      	cmp	r3, #16
 800379c:	d007      	beq.n	80037ae <HAL_ADC_ConfigChannel+0x1ae>
 800379e:	683b      	ldr	r3, [r7, #0]
 80037a0:	681b      	ldr	r3, [r3, #0]
 80037a2:	2b11      	cmp	r3, #17
 80037a4:	d003      	beq.n	80037ae <HAL_ADC_ConfigChannel+0x1ae>
 80037a6:	683b      	ldr	r3, [r7, #0]
 80037a8:	681b      	ldr	r3, [r3, #0]
 80037aa:	2b12      	cmp	r3, #18
 80037ac:	d11c      	bne.n	80037e8 <HAL_ADC_ConfigChannel+0x1e8>
      {
        /* If Channel_16 is selected, disable Temp. sensor measurement path. */
        /* If Channel_17 is selected, disable VREFINT measurement path. */
        /* If Channel_18 is selected, disable VBAT measurement path. */
        ADC->CCR &= ~ADC_CHANNEL_INTERNAL_PATH(sConfig->Channel);
 80037ae:	4b15      	ldr	r3, [pc, #84]	@ (8003804 <HAL_ADC_ConfigChannel+0x204>)
 80037b0:	6819      	ldr	r1, [r3, #0]
 80037b2:	683b      	ldr	r3, [r7, #0]
 80037b4:	681b      	ldr	r3, [r3, #0]
 80037b6:	2b10      	cmp	r3, #16
 80037b8:	d007      	beq.n	80037ca <HAL_ADC_ConfigChannel+0x1ca>
 80037ba:	683b      	ldr	r3, [r7, #0]
 80037bc:	681b      	ldr	r3, [r3, #0]
 80037be:	2b11      	cmp	r3, #17
 80037c0:	d101      	bne.n	80037c6 <HAL_ADC_ConfigChannel+0x1c6>
 80037c2:	4b13      	ldr	r3, [pc, #76]	@ (8003810 <HAL_ADC_ConfigChannel+0x210>)
 80037c4:	e002      	b.n	80037cc <HAL_ADC_ConfigChannel+0x1cc>
 80037c6:	4b13      	ldr	r3, [pc, #76]	@ (8003814 <HAL_ADC_ConfigChannel+0x214>)
 80037c8:	e000      	b.n	80037cc <HAL_ADC_ConfigChannel+0x1cc>
 80037ca:	4b13      	ldr	r3, [pc, #76]	@ (8003818 <HAL_ADC_ConfigChannel+0x218>)
 80037cc:	4a0d      	ldr	r2, [pc, #52]	@ (8003804 <HAL_ADC_ConfigChannel+0x204>)
 80037ce:	400b      	ands	r3, r1
 80037d0:	6013      	str	r3, [r2, #0]
 80037d2:	e009      	b.n	80037e8 <HAL_ADC_ConfigChannel+0x1e8>
  /* channel could be done on neither of the channel configuration structure  */
  /* parameters.                                                              */
  else
  {
    /* Update ADC state machine to error */
    SET_BIT(hadc->State, HAL_ADC_STATE_ERROR_CONFIG);
 80037d4:	687b      	ldr	r3, [r7, #4]
 80037d6:	6b9b      	ldr	r3, [r3, #56]	@ 0x38
 80037d8:	2220      	movs	r2, #32
 80037da:	431a      	orrs	r2, r3
 80037dc:	687b      	ldr	r3, [r7, #4]
 80037de:	639a      	str	r2, [r3, #56]	@ 0x38
    
    tmp_hal_status = HAL_ERROR;
 80037e0:	230f      	movs	r3, #15
 80037e2:	18fb      	adds	r3, r7, r3
 80037e4:	2201      	movs	r2, #1
 80037e6:	701a      	strb	r2, [r3, #0]
  }
  
  /* Process unlocked */
  __HAL_UNLOCK(hadc);
 80037e8:	687b      	ldr	r3, [r7, #4]
 80037ea:	2234      	movs	r2, #52	@ 0x34
 80037ec:	2100      	movs	r1, #0
 80037ee:	5499      	strb	r1, [r3, r2]
  
  /* Return function status */
  return tmp_hal_status;
 80037f0:	230f      	movs	r3, #15
 80037f2:	18fb      	adds	r3, r7, r3
 80037f4:	781b      	ldrb	r3, [r3, #0]
}
 80037f6:	0018      	movs	r0, r3
 80037f8:	46bd      	mov	sp, r7
 80037fa:	b004      	add	sp, #16
 80037fc:	bd80      	pop	{r7, pc}
 80037fe:	46c0      	nop			@ (mov r8, r8)
 8003800:	00001001 	.word	0x00001001
 8003804:	40012708 	.word	0x40012708
 8003808:	20000000 	.word	0x20000000
 800380c:	000f4240 	.word	0x000f4240
 8003810:	ffbfffff 	.word	0xffbfffff
 8003814:	feffffff 	.word	0xfeffffff
 8003818:	ff7fffff 	.word	0xff7fffff

0800381c <ADC_Enable>:
  *         "if (hadc->Init.LowPowerAutoPowerOff != ENABLE)".
  * @param  hadc ADC handle
  * @retval HAL status.
  */
static HAL_StatusTypeDef ADC_Enable(ADC_HandleTypeDef* hadc)
{
 800381c:	b580      	push	{r7, lr}
 800381e:	b084      	sub	sp, #16
 8003820:	af00      	add	r7, sp, #0
 8003822:	6078      	str	r0, [r7, #4]
  uint32_t tickstart = 0U;
 8003824:	2300      	movs	r3, #0
 8003826:	60fb      	str	r3, [r7, #12]
  __IO uint32_t wait_loop_index = 0U;
 8003828:	2300      	movs	r3, #0
 800382a:	60bb      	str	r3, [r7, #8]
  
  /* ADC enable and wait for ADC ready (in case of ADC is disabled or         */
  /* enabling phase not yet completed: flag ADC ready not yet set).           */
  /* Timeout implemented to not be stuck if ADC cannot be enabled (possible   */
  /* causes: ADC clock not running, ...).                                     */
  if (ADC_IS_ENABLE(hadc) == RESET)
 800382c:	687b      	ldr	r3, [r7, #4]
 800382e:	681b      	ldr	r3, [r3, #0]
 8003830:	689b      	ldr	r3, [r3, #8]
 8003832:	2203      	movs	r2, #3
 8003834:	4013      	ands	r3, r2
 8003836:	2b01      	cmp	r3, #1
 8003838:	d112      	bne.n	8003860 <ADC_Enable+0x44>
 800383a:	687b      	ldr	r3, [r7, #4]
 800383c:	681b      	ldr	r3, [r3, #0]
 800383e:	681b      	ldr	r3, [r3, #0]
 8003840:	2201      	movs	r2, #1
 8003842:	4013      	ands	r3, r2
 8003844:	2b01      	cmp	r3, #1
 8003846:	d009      	beq.n	800385c <ADC_Enable+0x40>
 8003848:	687b      	ldr	r3, [r7, #4]
 800384a:	681b      	ldr	r3, [r3, #0]
 800384c:	68da      	ldr	r2, [r3, #12]
 800384e:	2380      	movs	r3, #128	@ 0x80
 8003850:	021b      	lsls	r3, r3, #8
 8003852:	401a      	ands	r2, r3
 8003854:	2380      	movs	r3, #128	@ 0x80
 8003856:	021b      	lsls	r3, r3, #8
 8003858:	429a      	cmp	r2, r3
 800385a:	d101      	bne.n	8003860 <ADC_Enable+0x44>
 800385c:	2301      	movs	r3, #1
 800385e:	e000      	b.n	8003862 <ADC_Enable+0x46>
 8003860:	2300      	movs	r3, #0
 8003862:	2b00      	cmp	r3, #0
 8003864:	d152      	bne.n	800390c <ADC_Enable+0xf0>
  {
    /* Check if conditions to enable the ADC are fulfilled */
    if (ADC_ENABLING_CONDITIONS(hadc) == RESET)
 8003866:	687b      	ldr	r3, [r7, #4]
 8003868:	681b      	ldr	r3, [r3, #0]
 800386a:	689b      	ldr	r3, [r3, #8]
 800386c:	4a2a      	ldr	r2, [pc, #168]	@ (8003918 <ADC_Enable+0xfc>)
 800386e:	4013      	ands	r3, r2
 8003870:	d00d      	beq.n	800388e <ADC_Enable+0x72>
    {
      /* Update ADC state machine to error */
      SET_BIT(hadc->State, HAL_ADC_STATE_ERROR_INTERNAL);
 8003872:	687b      	ldr	r3, [r7, #4]
 8003874:	6b9b      	ldr	r3, [r3, #56]	@ 0x38
 8003876:	2210      	movs	r2, #16
 8003878:	431a      	orrs	r2, r3
 800387a:	687b      	ldr	r3, [r7, #4]
 800387c:	639a      	str	r2, [r3, #56]	@ 0x38
    
      /* Set ADC error code to ADC IP internal error */
      SET_BIT(hadc->ErrorCode, HAL_ADC_ERROR_INTERNAL);
 800387e:	687b      	ldr	r3, [r7, #4]
 8003880:	6bdb      	ldr	r3, [r3, #60]	@ 0x3c
 8003882:	2201      	movs	r2, #1
 8003884:	431a      	orrs	r2, r3
 8003886:	687b      	ldr	r3, [r7, #4]
 8003888:	63da      	str	r2, [r3, #60]	@ 0x3c
      
      return HAL_ERROR;
 800388a:	2301      	movs	r3, #1
 800388c:	e03f      	b.n	800390e <ADC_Enable+0xf2>
    }
    
    /* Enable the ADC peripheral */
    __HAL_ADC_ENABLE(hadc);
 800388e:	687b      	ldr	r3, [r7, #4]
 8003890:	681b      	ldr	r3, [r3, #0]
 8003892:	689a      	ldr	r2, [r3, #8]
 8003894:	687b      	ldr	r3, [r7, #4]
 8003896:	681b      	ldr	r3, [r3, #0]
 8003898:	2101      	movs	r1, #1
 800389a:	430a      	orrs	r2, r1
 800389c:	609a      	str	r2, [r3, #8]
    
    /* Delay for ADC stabilization time */
    /* Compute number of CPU cycles to wait for */
    wait_loop_index = (ADC_STAB_DELAY_US * (SystemCoreClock / 1000000U));
 800389e:	4b1f      	ldr	r3, [pc, #124]	@ (800391c <ADC_Enable+0x100>)
 80038a0:	681b      	ldr	r3, [r3, #0]
 80038a2:	491f      	ldr	r1, [pc, #124]	@ (8003920 <ADC_Enable+0x104>)
 80038a4:	0018      	movs	r0, r3
 80038a6:	f7fc fc2d 	bl	8000104 <__udivsi3>
 80038aa:	0003      	movs	r3, r0
 80038ac:	60bb      	str	r3, [r7, #8]
    while(wait_loop_index != 0U)
 80038ae:	e002      	b.n	80038b6 <ADC_Enable+0x9a>
    {
      wait_loop_index--;
 80038b0:	68bb      	ldr	r3, [r7, #8]
 80038b2:	3b01      	subs	r3, #1
 80038b4:	60bb      	str	r3, [r7, #8]
    while(wait_loop_index != 0U)
 80038b6:	68bb      	ldr	r3, [r7, #8]
 80038b8:	2b00      	cmp	r3, #0
 80038ba:	d1f9      	bne.n	80038b0 <ADC_Enable+0x94>
    }

    /* Get tick count */
    tickstart = HAL_GetTick();
 80038bc:	f7ff fc98 	bl	80031f0 <HAL_GetTick>
 80038c0:	0003      	movs	r3, r0
 80038c2:	60fb      	str	r3, [r7, #12]
    
    /* Wait for ADC effectively enabled */
    while(__HAL_ADC_GET_FLAG(hadc, ADC_FLAG_RDY) == RESET)
 80038c4:	e01b      	b.n	80038fe <ADC_Enable+0xe2>
    {
      if((HAL_GetTick() - tickstart) > ADC_ENABLE_TIMEOUT)
 80038c6:	f7ff fc93 	bl	80031f0 <HAL_GetTick>
 80038ca:	0002      	movs	r2, r0
 80038cc:	68fb      	ldr	r3, [r7, #12]
 80038ce:	1ad3      	subs	r3, r2, r3
 80038d0:	2b02      	cmp	r3, #2
 80038d2:	d914      	bls.n	80038fe <ADC_Enable+0xe2>
      {
        /* New check to avoid false timeout detection in case of preemption */
        if(__HAL_ADC_GET_FLAG(hadc, ADC_FLAG_RDY) == RESET)
 80038d4:	687b      	ldr	r3, [r7, #4]
 80038d6:	681b      	ldr	r3, [r3, #0]
 80038d8:	681b      	ldr	r3, [r3, #0]
 80038da:	2201      	movs	r2, #1
 80038dc:	4013      	ands	r3, r2
 80038de:	2b01      	cmp	r3, #1
 80038e0:	d00d      	beq.n	80038fe <ADC_Enable+0xe2>
        {
          /* Update ADC state machine to error */
          SET_BIT(hadc->State, HAL_ADC_STATE_ERROR_INTERNAL);
 80038e2:	687b      	ldr	r3, [r7, #4]
 80038e4:	6b9b      	ldr	r3, [r3, #56]	@ 0x38
 80038e6:	2210      	movs	r2, #16
 80038e8:	431a      	orrs	r2, r3
 80038ea:	687b      	ldr	r3, [r7, #4]
 80038ec:	639a      	str	r2, [r3, #56]	@ 0x38

          /* Set ADC error code to ADC IP internal error */
          SET_BIT(hadc->ErrorCode, HAL_ADC_ERROR_INTERNAL);
 80038ee:	687b      	ldr	r3, [r7, #4]
 80038f0:	6bdb      	ldr	r3, [r3, #60]	@ 0x3c
 80038f2:	2201      	movs	r2, #1
 80038f4:	431a      	orrs	r2, r3
 80038f6:	687b      	ldr	r3, [r7, #4]
 80038f8:	63da      	str	r2, [r3, #60]	@ 0x3c

          return HAL_ERROR;
 80038fa:	2301      	movs	r3, #1
 80038fc:	e007      	b.n	800390e <ADC_Enable+0xf2>
    while(__HAL_ADC_GET_FLAG(hadc, ADC_FLAG_RDY) == RESET)
 80038fe:	687b      	ldr	r3, [r7, #4]
 8003900:	681b      	ldr	r3, [r3, #0]
 8003902:	681b      	ldr	r3, [r3, #0]
 8003904:	2201      	movs	r2, #1
 8003906:	4013      	ands	r3, r2
 8003908:	2b01      	cmp	r3, #1
 800390a:	d1dc      	bne.n	80038c6 <ADC_Enable+0xaa>
      }
    }
  }
   
  /* Return HAL status */
  return HAL_OK;
 800390c:	2300      	movs	r3, #0
}
 800390e:	0018      	movs	r0, r3
 8003910:	46bd      	mov	sp, r7
 8003912:	b004      	add	sp, #16
 8003914:	bd80      	pop	{r7, pc}
 8003916:	46c0      	nop			@ (mov r8, r8)
 8003918:	80000017 	.word	0x80000017
 800391c:	20000000 	.word	0x20000000
 8003920:	000f4240 	.word	0x000f4240

08003924 <ADC_DMAConvCplt>:
  * @brief  DMA transfer complete callback. 
  * @param  hdma pointer to DMA handle.
  * @retval None
  */
static void ADC_DMAConvCplt(DMA_HandleTypeDef *hdma)
{
 8003924:	b580      	push	{r7, lr}
 8003926:	b084      	sub	sp, #16
 8003928:	af00      	add	r7, sp, #0
 800392a:	6078      	str	r0, [r7, #4]
  /* Retrieve ADC handle corresponding to current DMA handle */
  ADC_HandleTypeDef* hadc = ( ADC_HandleTypeDef* )((DMA_HandleTypeDef* )hdma)->Parent;
 800392c:	687b      	ldr	r3, [r7, #4]
 800392e:	6a5b      	ldr	r3, [r3, #36]	@ 0x24
 8003930:	60fb      	str	r3, [r7, #12]
  
  /* Update state machine on conversion status if not in error state */
  if (HAL_IS_BIT_CLR(hadc->State, HAL_ADC_STATE_ERROR_INTERNAL | HAL_ADC_STATE_ERROR_DMA))
 8003932:	68fb      	ldr	r3, [r7, #12]
 8003934:	6b9b      	ldr	r3, [r3, #56]	@ 0x38
 8003936:	2250      	movs	r2, #80	@ 0x50
 8003938:	4013      	ands	r3, r2
 800393a:	d140      	bne.n	80039be <ADC_DMAConvCplt+0x9a>
  {
    /* Set ADC state */
    SET_BIT(hadc->State, HAL_ADC_STATE_REG_EOC); 
 800393c:	68fb      	ldr	r3, [r7, #12]
 800393e:	6b9b      	ldr	r3, [r3, #56]	@ 0x38
 8003940:	2280      	movs	r2, #128	@ 0x80
 8003942:	0092      	lsls	r2, r2, #2
 8003944:	431a      	orrs	r2, r3
 8003946:	68fb      	ldr	r3, [r7, #12]
 8003948:	639a      	str	r2, [r3, #56]	@ 0x38
    
    /* Determine whether any further conversion upcoming on group regular     */
    /* by external trigger, continuous mode or scan sequence on going.        */
    if(ADC_IS_SOFTWARE_START_REGULAR(hadc)        && 
 800394a:	68fb      	ldr	r3, [r7, #12]
 800394c:	681b      	ldr	r3, [r3, #0]
 800394e:	68da      	ldr	r2, [r3, #12]
 8003950:	23c0      	movs	r3, #192	@ 0xc0
 8003952:	011b      	lsls	r3, r3, #4
 8003954:	4013      	ands	r3, r2
 8003956:	d12d      	bne.n	80039b4 <ADC_DMAConvCplt+0x90>
       (hadc->Init.ContinuousConvMode == DISABLE)   )
 8003958:	68fb      	ldr	r3, [r7, #12]
 800395a:	7e9b      	ldrb	r3, [r3, #26]
    if(ADC_IS_SOFTWARE_START_REGULAR(hadc)        && 
 800395c:	2b00      	cmp	r3, #0
 800395e:	d129      	bne.n	80039b4 <ADC_DMAConvCplt+0x90>
    {
      /* If End of Sequence is reached, disable interrupts */
      if( __HAL_ADC_GET_FLAG(hadc, ADC_FLAG_EOS) )
 8003960:	68fb      	ldr	r3, [r7, #12]
 8003962:	681b      	ldr	r3, [r3, #0]
 8003964:	681b      	ldr	r3, [r3, #0]
 8003966:	2208      	movs	r2, #8
 8003968:	4013      	ands	r3, r2
 800396a:	2b08      	cmp	r3, #8
 800396c:	d122      	bne.n	80039b4 <ADC_DMAConvCplt+0x90>
      {
        /* Allowed to modify bits ADC_IT_EOC/ADC_IT_EOS only if bit           */
        /* ADSTART==0 (no conversion on going)                                */
        if (ADC_IS_CONVERSION_ONGOING_REGULAR(hadc) == RESET)
 800396e:	68fb      	ldr	r3, [r7, #12]
 8003970:	681b      	ldr	r3, [r3, #0]
 8003972:	689b      	ldr	r3, [r3, #8]
 8003974:	2204      	movs	r2, #4
 8003976:	4013      	ands	r3, r2
 8003978:	d110      	bne.n	800399c <ADC_DMAConvCplt+0x78>
        {
          /* Disable ADC end of single conversion interrupt on group regular */
          /* Note: Overrun interrupt was enabled with EOC interrupt in        */
          /* HAL_Start_IT(), but is not disabled here because can be used     */
          /* by overrun IRQ process below.                                    */
          __HAL_ADC_DISABLE_IT(hadc, ADC_IT_EOC | ADC_IT_EOS);
 800397a:	68fb      	ldr	r3, [r7, #12]
 800397c:	681b      	ldr	r3, [r3, #0]
 800397e:	685a      	ldr	r2, [r3, #4]
 8003980:	68fb      	ldr	r3, [r7, #12]
 8003982:	681b      	ldr	r3, [r3, #0]
 8003984:	210c      	movs	r1, #12
 8003986:	438a      	bics	r2, r1
 8003988:	605a      	str	r2, [r3, #4]
          
          /* Set ADC state */
          ADC_STATE_CLR_SET(hadc->State,
 800398a:	68fb      	ldr	r3, [r7, #12]
 800398c:	6b9b      	ldr	r3, [r3, #56]	@ 0x38
 800398e:	4a11      	ldr	r2, [pc, #68]	@ (80039d4 <ADC_DMAConvCplt+0xb0>)
 8003990:	4013      	ands	r3, r2
 8003992:	2201      	movs	r2, #1
 8003994:	431a      	orrs	r2, r3
 8003996:	68fb      	ldr	r3, [r7, #12]
 8003998:	639a      	str	r2, [r3, #56]	@ 0x38
 800399a:	e00b      	b.n	80039b4 <ADC_DMAConvCplt+0x90>
                            HAL_ADC_STATE_READY);
        }
        else
        {
          /* Change ADC state to error state */
          SET_BIT(hadc->State, HAL_ADC_STATE_ERROR_CONFIG);
 800399c:	68fb      	ldr	r3, [r7, #12]
 800399e:	6b9b      	ldr	r3, [r3, #56]	@ 0x38
 80039a0:	2220      	movs	r2, #32
 80039a2:	431a      	orrs	r2, r3
 80039a4:	68fb      	ldr	r3, [r7, #12]
 80039a6:	639a      	str	r2, [r3, #56]	@ 0x38
          
          /* Set ADC error code to ADC IP internal error */
          SET_BIT(hadc->ErrorCode, HAL_ADC_ERROR_INTERNAL);
 80039a8:	68fb      	ldr	r3, [r7, #12]
 80039aa:	6bdb      	ldr	r3, [r3, #60]	@ 0x3c
 80039ac:	2201      	movs	r2, #1
 80039ae:	431a      	orrs	r2, r3
 80039b0:	68fb      	ldr	r3, [r7, #12]
 80039b2:	63da      	str	r2, [r3, #60]	@ 0x3c

    /* Conversion complete callback */
#if (USE_HAL_ADC_REGISTER_CALLBACKS == 1)
    hadc->ConvCpltCallback(hadc);
#else
    HAL_ADC_ConvCpltCallback(hadc);
 80039b4:	68fb      	ldr	r3, [r7, #12]
 80039b6:	0018      	movs	r0, r3
 80039b8:	f7ff fe0a 	bl	80035d0 <HAL_ADC_ConvCpltCallback>
  {
    /* Call DMA error callback */
    hadc->DMA_Handle->XferErrorCallback(hdma);
  }

}
 80039bc:	e005      	b.n	80039ca <ADC_DMAConvCplt+0xa6>
    hadc->DMA_Handle->XferErrorCallback(hdma);
 80039be:	68fb      	ldr	r3, [r7, #12]
 80039c0:	6b1b      	ldr	r3, [r3, #48]	@ 0x30
 80039c2:	6b1b      	ldr	r3, [r3, #48]	@ 0x30
 80039c4:	687a      	ldr	r2, [r7, #4]
 80039c6:	0010      	movs	r0, r2
 80039c8:	4798      	blx	r3
}
 80039ca:	46c0      	nop			@ (mov r8, r8)
 80039cc:	46bd      	mov	sp, r7
 80039ce:	b004      	add	sp, #16
 80039d0:	bd80      	pop	{r7, pc}
 80039d2:	46c0      	nop			@ (mov r8, r8)
 80039d4:	fffffefe 	.word	0xfffffefe

080039d8 <ADC_DMAHalfConvCplt>:
  * @brief  DMA half transfer complete callback. 
  * @param  hdma pointer to DMA handle.
  * @retval None
  */
static void ADC_DMAHalfConvCplt(DMA_HandleTypeDef *hdma)   
{
 80039d8:	b580      	push	{r7, lr}
 80039da:	b084      	sub	sp, #16
 80039dc:	af00      	add	r7, sp, #0
 80039de:	6078      	str	r0, [r7, #4]
  /* Retrieve ADC handle corresponding to current DMA handle */
  ADC_HandleTypeDef* hadc = ( ADC_HandleTypeDef* )((DMA_HandleTypeDef* )hdma)->Parent;
 80039e0:	687b      	ldr	r3, [r7, #4]
 80039e2:	6a5b      	ldr	r3, [r3, #36]	@ 0x24
 80039e4:	60fb      	str	r3, [r7, #12]
  
  /* Half conversion callback */
#if (USE_HAL_ADC_REGISTER_CALLBACKS == 1)
    hadc->ConvHalfCpltCallback(hadc);
#else
  HAL_ADC_ConvHalfCpltCallback(hadc); 
 80039e6:	68fb      	ldr	r3, [r7, #12]
 80039e8:	0018      	movs	r0, r3
 80039ea:	f7ff fdf9 	bl	80035e0 <HAL_ADC_ConvHalfCpltCallback>
#endif /* USE_HAL_ADC_REGISTER_CALLBACKS */
}
 80039ee:	46c0      	nop			@ (mov r8, r8)
 80039f0:	46bd      	mov	sp, r7
 80039f2:	b004      	add	sp, #16
 80039f4:	bd80      	pop	{r7, pc}

080039f6 <ADC_DMAError>:
  * @brief  DMA error callback 
  * @param  hdma pointer to DMA handle.
  * @retval None
  */
static void ADC_DMAError(DMA_HandleTypeDef *hdma)   
{
 80039f6:	b580      	push	{r7, lr}
 80039f8:	b084      	sub	sp, #16
 80039fa:	af00      	add	r7, sp, #0
 80039fc:	6078      	str	r0, [r7, #4]
  /* Retrieve ADC handle corresponding to current DMA handle */
  ADC_HandleTypeDef* hadc = ( ADC_HandleTypeDef* )((DMA_HandleTypeDef* )hdma)->Parent;
 80039fe:	687b      	ldr	r3, [r7, #4]
 8003a00:	6a5b      	ldr	r3, [r3, #36]	@ 0x24
 8003a02:	60fb      	str	r3, [r7, #12]
  
  /* Set ADC state */
  SET_BIT(hadc->State, HAL_ADC_STATE_ERROR_DMA);
 8003a04:	68fb      	ldr	r3, [r7, #12]
 8003a06:	6b9b      	ldr	r3, [r3, #56]	@ 0x38
 8003a08:	2240      	movs	r2, #64	@ 0x40
 8003a0a:	431a      	orrs	r2, r3
 8003a0c:	68fb      	ldr	r3, [r7, #12]
 8003a0e:	639a      	str	r2, [r3, #56]	@ 0x38
  
  /* Set ADC error code to DMA error */
  SET_BIT(hadc->ErrorCode, HAL_ADC_ERROR_DMA);
 8003a10:	68fb      	ldr	r3, [r7, #12]
 8003a12:	6bdb      	ldr	r3, [r3, #60]	@ 0x3c
 8003a14:	2204      	movs	r2, #4
 8003a16:	431a      	orrs	r2, r3
 8003a18:	68fb      	ldr	r3, [r7, #12]
 8003a1a:	63da      	str	r2, [r3, #60]	@ 0x3c
  
  /* Error callback */
#if (USE_HAL_ADC_REGISTER_CALLBACKS == 1)
  hadc->ErrorCallback(hadc);
#else
  HAL_ADC_ErrorCallback(hadc); 
 8003a1c:	68fb      	ldr	r3, [r7, #12]
 8003a1e:	0018      	movs	r0, r3
 8003a20:	f7ff fde6 	bl	80035f0 <HAL_ADC_ErrorCallback>
#endif /* USE_HAL_ADC_REGISTER_CALLBACKS */
}
 8003a24:	46c0      	nop			@ (mov r8, r8)
 8003a26:	46bd      	mov	sp, r7
 8003a28:	b004      	add	sp, #16
 8003a2a:	bd80      	pop	{r7, pc}

08003a2c <__NVIC_EnableIRQ>:
  \details Enables a device specific interrupt in the NVIC interrupt controller.
  \param [in]      IRQn  Device specific interrupt number.
  \note    IRQn must not be negative.
 */
__STATIC_INLINE void __NVIC_EnableIRQ(IRQn_Type IRQn)
{
 8003a2c:	b580      	push	{r7, lr}
 8003a2e:	b082      	sub	sp, #8
 8003a30:	af00      	add	r7, sp, #0
 8003a32:	0002      	movs	r2, r0
 8003a34:	1dfb      	adds	r3, r7, #7
 8003a36:	701a      	strb	r2, [r3, #0]
  if ((int32_t)(IRQn) >= 0)
 8003a38:	1dfb      	adds	r3, r7, #7
 8003a3a:	781b      	ldrb	r3, [r3, #0]
 8003a3c:	2b7f      	cmp	r3, #127	@ 0x7f
 8003a3e:	d809      	bhi.n	8003a54 <__NVIC_EnableIRQ+0x28>
  {
    NVIC->ISER[0U] = (uint32_t)(1UL << (((uint32_t)IRQn) & 0x1FUL));
 8003a40:	1dfb      	adds	r3, r7, #7
 8003a42:	781b      	ldrb	r3, [r3, #0]
 8003a44:	001a      	movs	r2, r3
 8003a46:	231f      	movs	r3, #31
 8003a48:	401a      	ands	r2, r3
 8003a4a:	4b04      	ldr	r3, [pc, #16]	@ (8003a5c <__NVIC_EnableIRQ+0x30>)
 8003a4c:	2101      	movs	r1, #1
 8003a4e:	4091      	lsls	r1, r2
 8003a50:	000a      	movs	r2, r1
 8003a52:	601a      	str	r2, [r3, #0]
  }
}
 8003a54:	46c0      	nop			@ (mov r8, r8)
 8003a56:	46bd      	mov	sp, r7
 8003a58:	b002      	add	sp, #8
 8003a5a:	bd80      	pop	{r7, pc}
 8003a5c:	e000e100 	.word	0xe000e100

08003a60 <__NVIC_SetPriority>:
  \param [in]      IRQn  Interrupt number.
  \param [in]  priority  Priority to set.
  \note    The priority cannot be set for every processor exception.
 */
__STATIC_INLINE void __NVIC_SetPriority(IRQn_Type IRQn, uint32_t priority)
{
 8003a60:	b590      	push	{r4, r7, lr}
 8003a62:	b083      	sub	sp, #12
 8003a64:	af00      	add	r7, sp, #0
 8003a66:	0002      	movs	r2, r0
 8003a68:	6039      	str	r1, [r7, #0]
 8003a6a:	1dfb      	adds	r3, r7, #7
 8003a6c:	701a      	strb	r2, [r3, #0]
  if ((int32_t)(IRQn) >= 0)
 8003a6e:	1dfb      	adds	r3, r7, #7
 8003a70:	781b      	ldrb	r3, [r3, #0]
 8003a72:	2b7f      	cmp	r3, #127	@ 0x7f
 8003a74:	d828      	bhi.n	8003ac8 <__NVIC_SetPriority+0x68>
  {
    NVIC->IP[_IP_IDX(IRQn)]  = ((uint32_t)(NVIC->IP[_IP_IDX(IRQn)]  & ~(0xFFUL << _BIT_SHIFT(IRQn))) |
 8003a76:	4a2f      	ldr	r2, [pc, #188]	@ (8003b34 <__NVIC_SetPriority+0xd4>)
 8003a78:	1dfb      	adds	r3, r7, #7
 8003a7a:	781b      	ldrb	r3, [r3, #0]
 8003a7c:	b25b      	sxtb	r3, r3
 8003a7e:	089b      	lsrs	r3, r3, #2
 8003a80:	33c0      	adds	r3, #192	@ 0xc0
 8003a82:	009b      	lsls	r3, r3, #2
 8003a84:	589b      	ldr	r3, [r3, r2]
 8003a86:	1dfa      	adds	r2, r7, #7
 8003a88:	7812      	ldrb	r2, [r2, #0]
 8003a8a:	0011      	movs	r1, r2
 8003a8c:	2203      	movs	r2, #3
 8003a8e:	400a      	ands	r2, r1
 8003a90:	00d2      	lsls	r2, r2, #3
 8003a92:	21ff      	movs	r1, #255	@ 0xff
 8003a94:	4091      	lsls	r1, r2
 8003a96:	000a      	movs	r2, r1
 8003a98:	43d2      	mvns	r2, r2
 8003a9a:	401a      	ands	r2, r3
 8003a9c:	0011      	movs	r1, r2
       (((priority << (8U - __NVIC_PRIO_BITS)) & (uint32_t)0xFFUL) << _BIT_SHIFT(IRQn)));
 8003a9e:	683b      	ldr	r3, [r7, #0]
 8003aa0:	019b      	lsls	r3, r3, #6
 8003aa2:	22ff      	movs	r2, #255	@ 0xff
 8003aa4:	401a      	ands	r2, r3
 8003aa6:	1dfb      	adds	r3, r7, #7
 8003aa8:	781b      	ldrb	r3, [r3, #0]
 8003aaa:	0018      	movs	r0, r3
 8003aac:	2303      	movs	r3, #3
 8003aae:	4003      	ands	r3, r0
 8003ab0:	00db      	lsls	r3, r3, #3
 8003ab2:	409a      	lsls	r2, r3
    NVIC->IP[_IP_IDX(IRQn)]  = ((uint32_t)(NVIC->IP[_IP_IDX(IRQn)]  & ~(0xFFUL << _BIT_SHIFT(IRQn))) |
 8003ab4:	481f      	ldr	r0, [pc, #124]	@ (8003b34 <__NVIC_SetPriority+0xd4>)
 8003ab6:	1dfb      	adds	r3, r7, #7
 8003ab8:	781b      	ldrb	r3, [r3, #0]
 8003aba:	b25b      	sxtb	r3, r3
 8003abc:	089b      	lsrs	r3, r3, #2
 8003abe:	430a      	orrs	r2, r1
 8003ac0:	33c0      	adds	r3, #192	@ 0xc0
 8003ac2:	009b      	lsls	r3, r3, #2
 8003ac4:	501a      	str	r2, [r3, r0]
  else
  {
    SCB->SHP[_SHP_IDX(IRQn)] = ((uint32_t)(SCB->SHP[_SHP_IDX(IRQn)] & ~(0xFFUL << _BIT_SHIFT(IRQn))) |
       (((priority << (8U - __NVIC_PRIO_BITS)) & (uint32_t)0xFFUL) << _BIT_SHIFT(IRQn)));
  }
}
 8003ac6:	e031      	b.n	8003b2c <__NVIC_SetPriority+0xcc>
    SCB->SHP[_SHP_IDX(IRQn)] = ((uint32_t)(SCB->SHP[_SHP_IDX(IRQn)] & ~(0xFFUL << _BIT_SHIFT(IRQn))) |
 8003ac8:	4a1b      	ldr	r2, [pc, #108]	@ (8003b38 <__NVIC_SetPriority+0xd8>)
 8003aca:	1dfb      	adds	r3, r7, #7
 8003acc:	781b      	ldrb	r3, [r3, #0]
 8003ace:	0019      	movs	r1, r3
 8003ad0:	230f      	movs	r3, #15
 8003ad2:	400b      	ands	r3, r1
 8003ad4:	3b08      	subs	r3, #8
 8003ad6:	089b      	lsrs	r3, r3, #2
 8003ad8:	3306      	adds	r3, #6
 8003ada:	009b      	lsls	r3, r3, #2
 8003adc:	18d3      	adds	r3, r2, r3
 8003ade:	3304      	adds	r3, #4
 8003ae0:	681b      	ldr	r3, [r3, #0]
 8003ae2:	1dfa      	adds	r2, r7, #7
 8003ae4:	7812      	ldrb	r2, [r2, #0]
 8003ae6:	0011      	movs	r1, r2
 8003ae8:	2203      	movs	r2, #3
 8003aea:	400a      	ands	r2, r1
 8003aec:	00d2      	lsls	r2, r2, #3
 8003aee:	21ff      	movs	r1, #255	@ 0xff
 8003af0:	4091      	lsls	r1, r2
 8003af2:	000a      	movs	r2, r1
 8003af4:	43d2      	mvns	r2, r2
 8003af6:	401a      	ands	r2, r3
 8003af8:	0011      	movs	r1, r2
       (((priority << (8U - __NVIC_PRIO_BITS)) & (uint32_t)0xFFUL) << _BIT_SHIFT(IRQn)));
 8003afa:	683b      	ldr	r3, [r7, #0]
 8003afc:	019b      	lsls	r3, r3, #6
 8003afe:	22ff      	movs	r2, #255	@ 0xff
 8003b00:	401a      	ands	r2, r3
 8003b02:	1dfb      	adds	r3, r7, #7
 8003b04:	781b      	ldrb	r3, [r3, #0]
 8003b06:	0018      	movs	r0, r3
 8003b08:	2303      	movs	r3, #3
 8003b0a:	4003      	ands	r3, r0
 8003b0c:	00db      	lsls	r3, r3, #3
 8003b0e:	409a      	lsls	r2, r3
    SCB->SHP[_SHP_IDX(IRQn)] = ((uint32_t)(SCB->SHP[_SHP_IDX(IRQn)] & ~(0xFFUL << _BIT_SHIFT(IRQn))) |
 8003b10:	4809      	ldr	r0, [pc, #36]	@ (8003b38 <__NVIC_SetPriority+0xd8>)
 8003b12:	1dfb      	adds	r3, r7, #7
 8003b14:	781b      	ldrb	r3, [r3, #0]
 8003b16:	001c      	movs	r4, r3
 8003b18:	230f      	movs	r3, #15
 8003b1a:	4023      	ands	r3, r4
 8003b1c:	3b08      	subs	r3, #8
 8003b1e:	089b      	lsrs	r3, r3, #2
 8003b20:	430a      	orrs	r2, r1
 8003b22:	3306      	adds	r3, #6
 8003b24:	009b      	lsls	r3, r3, #2
 8003b26:	18c3      	adds	r3, r0, r3
 8003b28:	3304      	adds	r3, #4
 8003b2a:	601a      	str	r2, [r3, #0]
}
 8003b2c:	46c0      	nop			@ (mov r8, r8)
 8003b2e:	46bd      	mov	sp, r7
 8003b30:	b003      	add	sp, #12
 8003b32:	bd90      	pop	{r4, r7, pc}
 8003b34:	e000e100 	.word	0xe000e100
 8003b38:	e000ed00 	.word	0xe000ed00

08003b3c <SysTick_Config>:
  \note    When the variable <b>__Vendor_SysTickConfig</b> is set to 1, then the
           function <b>SysTick_Config</b> is not included. In this case, the file <b><i>device</i>.h</b>
           must contain a vendor-specific implementation of this function.
 */
__STATIC_INLINE uint32_t SysTick_Config(uint32_t ticks)
{
 8003b3c:	b580      	push	{r7, lr}
 8003b3e:	b082      	sub	sp, #8
 8003b40:	af00      	add	r7, sp, #0
 8003b42:	6078      	str	r0, [r7, #4]
  if ((ticks - 1UL) > SysTick_LOAD_RELOAD_Msk)
 8003b44:	687b      	ldr	r3, [r7, #4]
 8003b46:	1e5a      	subs	r2, r3, #1
 8003b48:	2380      	movs	r3, #128	@ 0x80
 8003b4a:	045b      	lsls	r3, r3, #17
 8003b4c:	429a      	cmp	r2, r3
 8003b4e:	d301      	bcc.n	8003b54 <SysTick_Config+0x18>
  {
    return (1UL);                                                   /* Reload value impossible */
 8003b50:	2301      	movs	r3, #1
 8003b52:	e010      	b.n	8003b76 <SysTick_Config+0x3a>
  }

  SysTick->LOAD  = (uint32_t)(ticks - 1UL);                         /* set reload register */
 8003b54:	4b0a      	ldr	r3, [pc, #40]	@ (8003b80 <SysTick_Config+0x44>)
 8003b56:	687a      	ldr	r2, [r7, #4]
 8003b58:	3a01      	subs	r2, #1
 8003b5a:	605a      	str	r2, [r3, #4]
  NVIC_SetPriority (SysTick_IRQn, (1UL << __NVIC_PRIO_BITS) - 1UL); /* set Priority for Systick Interrupt */
 8003b5c:	2301      	movs	r3, #1
 8003b5e:	425b      	negs	r3, r3
 8003b60:	2103      	movs	r1, #3
 8003b62:	0018      	movs	r0, r3
 8003b64:	f7ff ff7c 	bl	8003a60 <__NVIC_SetPriority>
  SysTick->VAL   = 0UL;                                             /* Load the SysTick Counter Value */
 8003b68:	4b05      	ldr	r3, [pc, #20]	@ (8003b80 <SysTick_Config+0x44>)
 8003b6a:	2200      	movs	r2, #0
 8003b6c:	609a      	str	r2, [r3, #8]
  SysTick->CTRL  = SysTick_CTRL_CLKSOURCE_Msk |
 8003b6e:	4b04      	ldr	r3, [pc, #16]	@ (8003b80 <SysTick_Config+0x44>)
 8003b70:	2207      	movs	r2, #7
 8003b72:	601a      	str	r2, [r3, #0]
                   SysTick_CTRL_TICKINT_Msk   |
                   SysTick_CTRL_ENABLE_Msk;                         /* Enable SysTick IRQ and SysTick Timer */
  return (0UL);                                                     /* Function successful */
 8003b74:	2300      	movs	r3, #0
}
 8003b76:	0018      	movs	r0, r3
 8003b78:	46bd      	mov	sp, r7
 8003b7a:	b002      	add	sp, #8
 8003b7c:	bd80      	pop	{r7, pc}
 8003b7e:	46c0      	nop			@ (mov r8, r8)
 8003b80:	e000e010 	.word	0xe000e010

08003b84 <HAL_NVIC_SetPriority>:
  *         with stm32f0xx devices, this parameter is a dummy value and it is ignored, because 
  *         no subpriority supported in Cortex M0 based products.   
  * @retval None
  */
void HAL_NVIC_SetPriority(IRQn_Type IRQn, uint32_t PreemptPriority, uint32_t SubPriority)
{
 8003b84:	b580      	push	{r7, lr}
 8003b86:	b084      	sub	sp, #16
 8003b88:	af00      	add	r7, sp, #0
 8003b8a:	60b9      	str	r1, [r7, #8]
 8003b8c:	607a      	str	r2, [r7, #4]
 8003b8e:	210f      	movs	r1, #15
 8003b90:	187b      	adds	r3, r7, r1
 8003b92:	1c02      	adds	r2, r0, #0
 8003b94:	701a      	strb	r2, [r3, #0]
  /* Check the parameters */
  assert_param(IS_NVIC_PREEMPTION_PRIORITY(PreemptPriority));
  NVIC_SetPriority(IRQn,PreemptPriority);
 8003b96:	68ba      	ldr	r2, [r7, #8]
 8003b98:	187b      	adds	r3, r7, r1
 8003b9a:	781b      	ldrb	r3, [r3, #0]
 8003b9c:	b25b      	sxtb	r3, r3
 8003b9e:	0011      	movs	r1, r2
 8003ba0:	0018      	movs	r0, r3
 8003ba2:	f7ff ff5d 	bl	8003a60 <__NVIC_SetPriority>

  /* Prevent unused argument(s) compilation warning */
  UNUSED(SubPriority);
}
 8003ba6:	46c0      	nop			@ (mov r8, r8)
 8003ba8:	46bd      	mov	sp, r7
 8003baa:	b004      	add	sp, #16
 8003bac:	bd80      	pop	{r7, pc}

08003bae <HAL_NVIC_EnableIRQ>:
  *         This parameter can be an enumerator of IRQn_Type enumeration
  *         (For the complete STM32 Devices IRQ Channels list, please refer to the appropriate CMSIS device file (stm32f0xxxx.h))
  * @retval None
  */
void HAL_NVIC_EnableIRQ(IRQn_Type IRQn)
{
 8003bae:	b580      	push	{r7, lr}
 8003bb0:	b082      	sub	sp, #8
 8003bb2:	af00      	add	r7, sp, #0
 8003bb4:	0002      	movs	r2, r0
 8003bb6:	1dfb      	adds	r3, r7, #7
 8003bb8:	701a      	strb	r2, [r3, #0]
  /* Check the parameters */
  assert_param(IS_NVIC_DEVICE_IRQ(IRQn));
  
  /* Enable interrupt */
  NVIC_EnableIRQ(IRQn);
 8003bba:	1dfb      	adds	r3, r7, #7
 8003bbc:	781b      	ldrb	r3, [r3, #0]
 8003bbe:	b25b      	sxtb	r3, r3
 8003bc0:	0018      	movs	r0, r3
 8003bc2:	f7ff ff33 	bl	8003a2c <__NVIC_EnableIRQ>
}
 8003bc6:	46c0      	nop			@ (mov r8, r8)
 8003bc8:	46bd      	mov	sp, r7
 8003bca:	b002      	add	sp, #8
 8003bcc:	bd80      	pop	{r7, pc}

08003bce <HAL_SYSTICK_Config>:
  * @param  TicksNumb Specifies the ticks Number of ticks between two interrupts.
  * @retval status:  - 0  Function succeeded.
  *                  - 1  Function failed.
  */
uint32_t HAL_SYSTICK_Config(uint32_t TicksNumb)
{
 8003bce:	b580      	push	{r7, lr}
 8003bd0:	b082      	sub	sp, #8
 8003bd2:	af00      	add	r7, sp, #0
 8003bd4:	6078      	str	r0, [r7, #4]
   return SysTick_Config(TicksNumb);
 8003bd6:	687b      	ldr	r3, [r7, #4]
 8003bd8:	0018      	movs	r0, r3
 8003bda:	f7ff ffaf 	bl	8003b3c <SysTick_Config>
 8003bde:	0003      	movs	r3, r0
}
 8003be0:	0018      	movs	r0, r3
 8003be2:	46bd      	mov	sp, r7
 8003be4:	b002      	add	sp, #8
 8003be6:	bd80      	pop	{r7, pc}

08003be8 <HAL_DMA_Init>:
  * @param  hdma Pointer to a DMA_HandleTypeDef structure that contains
  *               the configuration information for the specified DMA Channel.
  * @retval HAL status
  */
HAL_StatusTypeDef HAL_DMA_Init(DMA_HandleTypeDef *hdma)
{
 8003be8:	b580      	push	{r7, lr}
 8003bea:	b084      	sub	sp, #16
 8003bec:	af00      	add	r7, sp, #0
 8003bee:	6078      	str	r0, [r7, #4]
  uint32_t tmp = 0U;
 8003bf0:	2300      	movs	r3, #0
 8003bf2:	60fb      	str	r3, [r7, #12]

  /* Check the DMA handle allocation */
  if (NULL == hdma)
 8003bf4:	687b      	ldr	r3, [r7, #4]
 8003bf6:	2b00      	cmp	r3, #0
 8003bf8:	d101      	bne.n	8003bfe <HAL_DMA_Init+0x16>
  {
    return HAL_ERROR;
 8003bfa:	2301      	movs	r3, #1
 8003bfc:	e036      	b.n	8003c6c <HAL_DMA_Init+0x84>
  assert_param(IS_DMA_MEMORY_DATA_SIZE(hdma->Init.MemDataAlignment));
  assert_param(IS_DMA_MODE(hdma->Init.Mode));
  assert_param(IS_DMA_PRIORITY(hdma->Init.Priority));

  /* Change DMA peripheral state */
  hdma->State = HAL_DMA_STATE_BUSY;
 8003bfe:	687b      	ldr	r3, [r7, #4]
 8003c00:	2221      	movs	r2, #33	@ 0x21
 8003c02:	2102      	movs	r1, #2
 8003c04:	5499      	strb	r1, [r3, r2]

  /* Get the CR register value */
  tmp = hdma->Instance->CCR;
 8003c06:	687b      	ldr	r3, [r7, #4]
 8003c08:	681b      	ldr	r3, [r3, #0]
 8003c0a:	681b      	ldr	r3, [r3, #0]
 8003c0c:	60fb      	str	r3, [r7, #12]

  /* Clear PL, MSIZE, PSIZE, MINC, PINC, CIRC, DIR bits */
  tmp &= ((uint32_t)~(DMA_CCR_PL    | DMA_CCR_MSIZE  | DMA_CCR_PSIZE  | \
 8003c0e:	68fb      	ldr	r3, [r7, #12]
 8003c10:	4a18      	ldr	r2, [pc, #96]	@ (8003c74 <HAL_DMA_Init+0x8c>)
 8003c12:	4013      	ands	r3, r2
 8003c14:	60fb      	str	r3, [r7, #12]
                      DMA_CCR_MINC  | DMA_CCR_PINC   | DMA_CCR_CIRC   | \
                      DMA_CCR_DIR));

  /* Prepare the DMA Channel configuration */
  tmp |=  hdma->Init.Direction        |
 8003c16:	687b      	ldr	r3, [r7, #4]
 8003c18:	685a      	ldr	r2, [r3, #4]
          hdma->Init.PeriphInc           | hdma->Init.MemInc           |
 8003c1a:	687b      	ldr	r3, [r7, #4]
 8003c1c:	689b      	ldr	r3, [r3, #8]
  tmp |=  hdma->Init.Direction        |
 8003c1e:	431a      	orrs	r2, r3
          hdma->Init.PeriphInc           | hdma->Init.MemInc           |
 8003c20:	687b      	ldr	r3, [r7, #4]
 8003c22:	68db      	ldr	r3, [r3, #12]
 8003c24:	431a      	orrs	r2, r3
          hdma->Init.PeriphDataAlignment | hdma->Init.MemDataAlignment |
 8003c26:	687b      	ldr	r3, [r7, #4]
 8003c28:	691b      	ldr	r3, [r3, #16]
          hdma->Init.PeriphInc           | hdma->Init.MemInc           |
 8003c2a:	431a      	orrs	r2, r3
          hdma->Init.PeriphDataAlignment | hdma->Init.MemDataAlignment |
 8003c2c:	687b      	ldr	r3, [r7, #4]
 8003c2e:	695b      	ldr	r3, [r3, #20]
 8003c30:	431a      	orrs	r2, r3
          hdma->Init.Mode                | hdma->Init.Priority;
 8003c32:	687b      	ldr	r3, [r7, #4]
 8003c34:	699b      	ldr	r3, [r3, #24]
          hdma->Init.PeriphDataAlignment | hdma->Init.MemDataAlignment |
 8003c36:	431a      	orrs	r2, r3
          hdma->Init.Mode                | hdma->Init.Priority;
 8003c38:	687b      	ldr	r3, [r7, #4]
 8003c3a:	69db      	ldr	r3, [r3, #28]
 8003c3c:	4313      	orrs	r3, r2
  tmp |=  hdma->Init.Direction        |
 8003c3e:	68fa      	ldr	r2, [r7, #12]
 8003c40:	4313      	orrs	r3, r2
 8003c42:	60fb      	str	r3, [r7, #12]

  /* Write to DMA Channel CR register */
  hdma->Instance->CCR = tmp;
 8003c44:	687b      	ldr	r3, [r7, #4]
 8003c46:	681b      	ldr	r3, [r3, #0]
 8003c48:	68fa      	ldr	r2, [r7, #12]
 8003c4a:	601a      	str	r2, [r3, #0]

  /* Initialize DmaBaseAddress and ChannelIndex parameters used
     by HAL_DMA_IRQHandler() and HAL_DMA_PollForTransfer() */
  DMA_CalcBaseAndBitshift(hdma);
 8003c4c:	687b      	ldr	r3, [r7, #4]
 8003c4e:	0018      	movs	r0, r3
 8003c50:	f000 f946 	bl	8003ee0 <DMA_CalcBaseAndBitshift>

  /* Initialise the error code */
  hdma->ErrorCode = HAL_DMA_ERROR_NONE;
 8003c54:	687b      	ldr	r3, [r7, #4]
 8003c56:	2200      	movs	r2, #0
 8003c58:	639a      	str	r2, [r3, #56]	@ 0x38

  /* Initialize the DMA state*/
  hdma->State = HAL_DMA_STATE_READY;
 8003c5a:	687b      	ldr	r3, [r7, #4]
 8003c5c:	2221      	movs	r2, #33	@ 0x21
 8003c5e:	2101      	movs	r1, #1
 8003c60:	5499      	strb	r1, [r3, r2]

  /* Allocate lock resource and initialize it */
  hdma->Lock = HAL_UNLOCKED;
 8003c62:	687b      	ldr	r3, [r7, #4]
 8003c64:	2220      	movs	r2, #32
 8003c66:	2100      	movs	r1, #0
 8003c68:	5499      	strb	r1, [r3, r2]

  return HAL_OK;
 8003c6a:	2300      	movs	r3, #0
}
 8003c6c:	0018      	movs	r0, r3
 8003c6e:	46bd      	mov	sp, r7
 8003c70:	b004      	add	sp, #16
 8003c72:	bd80      	pop	{r7, pc}
 8003c74:	ffffc00f 	.word	0xffffc00f

08003c78 <HAL_DMA_Start_IT>:
  * @param  DstAddress The destination memory Buffer address
  * @param  DataLength The length of data to be transferred from source to destination
  * @retval HAL status
  */
HAL_StatusTypeDef HAL_DMA_Start_IT(DMA_HandleTypeDef *hdma, uint32_t SrcAddress, uint32_t DstAddress, uint32_t DataLength)
{
 8003c78:	b580      	push	{r7, lr}
 8003c7a:	b086      	sub	sp, #24
 8003c7c:	af00      	add	r7, sp, #0
 8003c7e:	60f8      	str	r0, [r7, #12]
 8003c80:	60b9      	str	r1, [r7, #8]
 8003c82:	607a      	str	r2, [r7, #4]
 8003c84:	603b      	str	r3, [r7, #0]
  HAL_StatusTypeDef status = HAL_OK;
 8003c86:	2317      	movs	r3, #23
 8003c88:	18fb      	adds	r3, r7, r3
 8003c8a:	2200      	movs	r2, #0
 8003c8c:	701a      	strb	r2, [r3, #0]

  /* Check the parameters */
  assert_param(IS_DMA_BUFFER_SIZE(DataLength));

  /* Process locked */
  __HAL_LOCK(hdma);
 8003c8e:	68fb      	ldr	r3, [r7, #12]
 8003c90:	2220      	movs	r2, #32
 8003c92:	5c9b      	ldrb	r3, [r3, r2]
 8003c94:	2b01      	cmp	r3, #1
 8003c96:	d101      	bne.n	8003c9c <HAL_DMA_Start_IT+0x24>
 8003c98:	2302      	movs	r3, #2
 8003c9a:	e04f      	b.n	8003d3c <HAL_DMA_Start_IT+0xc4>
 8003c9c:	68fb      	ldr	r3, [r7, #12]
 8003c9e:	2220      	movs	r2, #32
 8003ca0:	2101      	movs	r1, #1
 8003ca2:	5499      	strb	r1, [r3, r2]

  if (HAL_DMA_STATE_READY == hdma->State)
 8003ca4:	68fb      	ldr	r3, [r7, #12]
 8003ca6:	2221      	movs	r2, #33	@ 0x21
 8003ca8:	5c9b      	ldrb	r3, [r3, r2]
 8003caa:	b2db      	uxtb	r3, r3
 8003cac:	2b01      	cmp	r3, #1
 8003cae:	d13a      	bne.n	8003d26 <HAL_DMA_Start_IT+0xae>
  {
    /* Change DMA peripheral state */
    hdma->State = HAL_DMA_STATE_BUSY;
 8003cb0:	68fb      	ldr	r3, [r7, #12]
 8003cb2:	2221      	movs	r2, #33	@ 0x21
 8003cb4:	2102      	movs	r1, #2
 8003cb6:	5499      	strb	r1, [r3, r2]

    hdma->ErrorCode = HAL_DMA_ERROR_NONE;
 8003cb8:	68fb      	ldr	r3, [r7, #12]
 8003cba:	2200      	movs	r2, #0
 8003cbc:	639a      	str	r2, [r3, #56]	@ 0x38

    /* Disable the peripheral */
    hdma->Instance->CCR &= ~DMA_CCR_EN;
 8003cbe:	68fb      	ldr	r3, [r7, #12]
 8003cc0:	681b      	ldr	r3, [r3, #0]
 8003cc2:	681a      	ldr	r2, [r3, #0]
 8003cc4:	68fb      	ldr	r3, [r7, #12]
 8003cc6:	681b      	ldr	r3, [r3, #0]
 8003cc8:	2101      	movs	r1, #1
 8003cca:	438a      	bics	r2, r1
 8003ccc:	601a      	str	r2, [r3, #0]

    /* Configure the source, destination address and the data length */
    DMA_SetConfig(hdma, SrcAddress, DstAddress, DataLength);
 8003cce:	683b      	ldr	r3, [r7, #0]
 8003cd0:	687a      	ldr	r2, [r7, #4]
 8003cd2:	68b9      	ldr	r1, [r7, #8]
 8003cd4:	68f8      	ldr	r0, [r7, #12]
 8003cd6:	f000 f8d7 	bl	8003e88 <DMA_SetConfig>

    /* Enable the transfer complete, & transfer error interrupts */
    /* Half transfer interrupt is optional: enable it only if associated callback is available */
    if (NULL != hdma->XferHalfCpltCallback)
 8003cda:	68fb      	ldr	r3, [r7, #12]
 8003cdc:	6adb      	ldr	r3, [r3, #44]	@ 0x2c
 8003cde:	2b00      	cmp	r3, #0
 8003ce0:	d008      	beq.n	8003cf4 <HAL_DMA_Start_IT+0x7c>
    {
      hdma->Instance->CCR |= (DMA_IT_TC | DMA_IT_HT | DMA_IT_TE);
 8003ce2:	68fb      	ldr	r3, [r7, #12]
 8003ce4:	681b      	ldr	r3, [r3, #0]
 8003ce6:	681a      	ldr	r2, [r3, #0]
 8003ce8:	68fb      	ldr	r3, [r7, #12]
 8003cea:	681b      	ldr	r3, [r3, #0]
 8003cec:	210e      	movs	r1, #14
 8003cee:	430a      	orrs	r2, r1
 8003cf0:	601a      	str	r2, [r3, #0]
 8003cf2:	e00f      	b.n	8003d14 <HAL_DMA_Start_IT+0x9c>
    }
    else
    {
      hdma->Instance->CCR |= (DMA_IT_TC | DMA_IT_TE);
 8003cf4:	68fb      	ldr	r3, [r7, #12]
 8003cf6:	681b      	ldr	r3, [r3, #0]
 8003cf8:	681a      	ldr	r2, [r3, #0]
 8003cfa:	68fb      	ldr	r3, [r7, #12]
 8003cfc:	681b      	ldr	r3, [r3, #0]
 8003cfe:	210a      	movs	r1, #10
 8003d00:	430a      	orrs	r2, r1
 8003d02:	601a      	str	r2, [r3, #0]
      hdma->Instance->CCR &= ~DMA_IT_HT;
 8003d04:	68fb      	ldr	r3, [r7, #12]
 8003d06:	681b      	ldr	r3, [r3, #0]
 8003d08:	681a      	ldr	r2, [r3, #0]
 8003d0a:	68fb      	ldr	r3, [r7, #12]
 8003d0c:	681b      	ldr	r3, [r3, #0]
 8003d0e:	2104      	movs	r1, #4
 8003d10:	438a      	bics	r2, r1
 8003d12:	601a      	str	r2, [r3, #0]
    }

    /* Enable the Peripheral */
    hdma->Instance->CCR |= DMA_CCR_EN;
 8003d14:	68fb      	ldr	r3, [r7, #12]
 8003d16:	681b      	ldr	r3, [r3, #0]
 8003d18:	681a      	ldr	r2, [r3, #0]
 8003d1a:	68fb      	ldr	r3, [r7, #12]
 8003d1c:	681b      	ldr	r3, [r3, #0]
 8003d1e:	2101      	movs	r1, #1
 8003d20:	430a      	orrs	r2, r1
 8003d22:	601a      	str	r2, [r3, #0]
 8003d24:	e007      	b.n	8003d36 <HAL_DMA_Start_IT+0xbe>
  }
  else
  {
    /* Process Unlocked */
    __HAL_UNLOCK(hdma);
 8003d26:	68fb      	ldr	r3, [r7, #12]
 8003d28:	2220      	movs	r2, #32
 8003d2a:	2100      	movs	r1, #0
 8003d2c:	5499      	strb	r1, [r3, r2]

    /* Remain BUSY */
    status = HAL_BUSY;
 8003d2e:	2317      	movs	r3, #23
 8003d30:	18fb      	adds	r3, r7, r3
 8003d32:	2202      	movs	r2, #2
 8003d34:	701a      	strb	r2, [r3, #0]
  }

  return status;
 8003d36:	2317      	movs	r3, #23
 8003d38:	18fb      	adds	r3, r7, r3
 8003d3a:	781b      	ldrb	r3, [r3, #0]
}
 8003d3c:	0018      	movs	r0, r3
 8003d3e:	46bd      	mov	sp, r7
 8003d40:	b006      	add	sp, #24
 8003d42:	bd80      	pop	{r7, pc}

08003d44 <HAL_DMA_IRQHandler>:
  * @param  hdma pointer to a DMA_HandleTypeDef structure that contains
  *               the configuration information for the specified DMA Channel.
  * @retval None
  */
void HAL_DMA_IRQHandler(DMA_HandleTypeDef *hdma)
{
 8003d44:	b580      	push	{r7, lr}
 8003d46:	b084      	sub	sp, #16
 8003d48:	af00      	add	r7, sp, #0
 8003d4a:	6078      	str	r0, [r7, #4]
  uint32_t flag_it = hdma->DmaBaseAddress->ISR;
 8003d4c:	687b      	ldr	r3, [r7, #4]
 8003d4e:	6bdb      	ldr	r3, [r3, #60]	@ 0x3c
 8003d50:	681b      	ldr	r3, [r3, #0]
 8003d52:	60fb      	str	r3, [r7, #12]
  uint32_t source_it = hdma->Instance->CCR;
 8003d54:	687b      	ldr	r3, [r7, #4]
 8003d56:	681b      	ldr	r3, [r3, #0]
 8003d58:	681b      	ldr	r3, [r3, #0]
 8003d5a:	60bb      	str	r3, [r7, #8]

  /* Half Transfer Complete Interrupt management ******************************/
  if ((RESET != (flag_it & (DMA_FLAG_HT1 << hdma->ChannelIndex))) && (RESET != (source_it & DMA_IT_HT)))
 8003d5c:	687b      	ldr	r3, [r7, #4]
 8003d5e:	6c1b      	ldr	r3, [r3, #64]	@ 0x40
 8003d60:	2204      	movs	r2, #4
 8003d62:	409a      	lsls	r2, r3
 8003d64:	0013      	movs	r3, r2
 8003d66:	68fa      	ldr	r2, [r7, #12]
 8003d68:	4013      	ands	r3, r2
 8003d6a:	d024      	beq.n	8003db6 <HAL_DMA_IRQHandler+0x72>
 8003d6c:	68bb      	ldr	r3, [r7, #8]
 8003d6e:	2204      	movs	r2, #4
 8003d70:	4013      	ands	r3, r2
 8003d72:	d020      	beq.n	8003db6 <HAL_DMA_IRQHandler+0x72>
  {
    /* Disable the half transfer interrupt if the DMA mode is not CIRCULAR */
    if ((hdma->Instance->CCR & DMA_CCR_CIRC) == 0U)
 8003d74:	687b      	ldr	r3, [r7, #4]
 8003d76:	681b      	ldr	r3, [r3, #0]
 8003d78:	681b      	ldr	r3, [r3, #0]
 8003d7a:	2220      	movs	r2, #32
 8003d7c:	4013      	ands	r3, r2
 8003d7e:	d107      	bne.n	8003d90 <HAL_DMA_IRQHandler+0x4c>
    {
      /* Disable the half transfer interrupt */
      hdma->Instance->CCR &= ~DMA_IT_HT;
 8003d80:	687b      	ldr	r3, [r7, #4]
 8003d82:	681b      	ldr	r3, [r3, #0]
 8003d84:	681a      	ldr	r2, [r3, #0]
 8003d86:	687b      	ldr	r3, [r7, #4]
 8003d88:	681b      	ldr	r3, [r3, #0]
 8003d8a:	2104      	movs	r1, #4
 8003d8c:	438a      	bics	r2, r1
 8003d8e:	601a      	str	r2, [r3, #0]
    }

    /* Clear the half transfer complete flag */
    hdma->DmaBaseAddress->IFCR = DMA_FLAG_HT1 << hdma->ChannelIndex;
 8003d90:	687b      	ldr	r3, [r7, #4]
 8003d92:	6c1a      	ldr	r2, [r3, #64]	@ 0x40
 8003d94:	687b      	ldr	r3, [r7, #4]
 8003d96:	6bdb      	ldr	r3, [r3, #60]	@ 0x3c
 8003d98:	2104      	movs	r1, #4
 8003d9a:	4091      	lsls	r1, r2
 8003d9c:	000a      	movs	r2, r1
 8003d9e:	605a      	str	r2, [r3, #4]

    /* DMA peripheral state is not updated in Half Transfer */
    /* State is updated only in Transfer Complete case */

    if (hdma->XferHalfCpltCallback != NULL)
 8003da0:	687b      	ldr	r3, [r7, #4]
 8003da2:	6adb      	ldr	r3, [r3, #44]	@ 0x2c
 8003da4:	2b00      	cmp	r3, #0
 8003da6:	d100      	bne.n	8003daa <HAL_DMA_IRQHandler+0x66>
 8003da8:	e06a      	b.n	8003e80 <HAL_DMA_IRQHandler+0x13c>
    {
      /* Half transfer callback */
      hdma->XferHalfCpltCallback(hdma);
 8003daa:	687b      	ldr	r3, [r7, #4]
 8003dac:	6adb      	ldr	r3, [r3, #44]	@ 0x2c
 8003dae:	687a      	ldr	r2, [r7, #4]
 8003db0:	0010      	movs	r0, r2
 8003db2:	4798      	blx	r3
    if (hdma->XferHalfCpltCallback != NULL)
 8003db4:	e064      	b.n	8003e80 <HAL_DMA_IRQHandler+0x13c>
    }
  }

  /* Transfer Complete Interrupt management ***********************************/
  else if ((RESET != (flag_it & (DMA_FLAG_TC1 << hdma->ChannelIndex))) && (RESET != (source_it & DMA_IT_TC)))
 8003db6:	687b      	ldr	r3, [r7, #4]
 8003db8:	6c1b      	ldr	r3, [r3, #64]	@ 0x40
 8003dba:	2202      	movs	r2, #2
 8003dbc:	409a      	lsls	r2, r3
 8003dbe:	0013      	movs	r3, r2
 8003dc0:	68fa      	ldr	r2, [r7, #12]
 8003dc2:	4013      	ands	r3, r2
 8003dc4:	d02b      	beq.n	8003e1e <HAL_DMA_IRQHandler+0xda>
 8003dc6:	68bb      	ldr	r3, [r7, #8]
 8003dc8:	2202      	movs	r2, #2
 8003dca:	4013      	ands	r3, r2
 8003dcc:	d027      	beq.n	8003e1e <HAL_DMA_IRQHandler+0xda>
  {
    if ((hdma->Instance->CCR & DMA_CCR_CIRC) == 0U)
 8003dce:	687b      	ldr	r3, [r7, #4]
 8003dd0:	681b      	ldr	r3, [r3, #0]
 8003dd2:	681b      	ldr	r3, [r3, #0]
 8003dd4:	2220      	movs	r2, #32
 8003dd6:	4013      	ands	r3, r2
 8003dd8:	d10b      	bne.n	8003df2 <HAL_DMA_IRQHandler+0xae>
    {
      /* Disable the transfer complete  & transfer error interrupts */
      /* if the DMA mode is not CIRCULAR */
      hdma->Instance->CCR &= ~(DMA_IT_TC | DMA_IT_TE);
 8003dda:	687b      	ldr	r3, [r7, #4]
 8003ddc:	681b      	ldr	r3, [r3, #0]
 8003dde:	681a      	ldr	r2, [r3, #0]
 8003de0:	687b      	ldr	r3, [r7, #4]
 8003de2:	681b      	ldr	r3, [r3, #0]
 8003de4:	210a      	movs	r1, #10
 8003de6:	438a      	bics	r2, r1
 8003de8:	601a      	str	r2, [r3, #0]

      /* Change the DMA state */
      hdma->State = HAL_DMA_STATE_READY;
 8003dea:	687b      	ldr	r3, [r7, #4]
 8003dec:	2221      	movs	r2, #33	@ 0x21
 8003dee:	2101      	movs	r1, #1
 8003df0:	5499      	strb	r1, [r3, r2]
    }

    /* Clear the transfer complete flag */
    hdma->DmaBaseAddress->IFCR = DMA_FLAG_TC1 << hdma->ChannelIndex;
 8003df2:	687b      	ldr	r3, [r7, #4]
 8003df4:	6c1a      	ldr	r2, [r3, #64]	@ 0x40
 8003df6:	687b      	ldr	r3, [r7, #4]
 8003df8:	6bdb      	ldr	r3, [r3, #60]	@ 0x3c
 8003dfa:	2102      	movs	r1, #2
 8003dfc:	4091      	lsls	r1, r2
 8003dfe:	000a      	movs	r2, r1
 8003e00:	605a      	str	r2, [r3, #4]

    /* Process Unlocked */
    __HAL_UNLOCK(hdma);
 8003e02:	687b      	ldr	r3, [r7, #4]
 8003e04:	2220      	movs	r2, #32
 8003e06:	2100      	movs	r1, #0
 8003e08:	5499      	strb	r1, [r3, r2]

    if (hdma->XferCpltCallback != NULL)
 8003e0a:	687b      	ldr	r3, [r7, #4]
 8003e0c:	6a9b      	ldr	r3, [r3, #40]	@ 0x28
 8003e0e:	2b00      	cmp	r3, #0
 8003e10:	d036      	beq.n	8003e80 <HAL_DMA_IRQHandler+0x13c>
    {
      /* Transfer complete callback */
      hdma->XferCpltCallback(hdma);
 8003e12:	687b      	ldr	r3, [r7, #4]
 8003e14:	6a9b      	ldr	r3, [r3, #40]	@ 0x28
 8003e16:	687a      	ldr	r2, [r7, #4]
 8003e18:	0010      	movs	r0, r2
 8003e1a:	4798      	blx	r3
    if (hdma->XferCpltCallback != NULL)
 8003e1c:	e030      	b.n	8003e80 <HAL_DMA_IRQHandler+0x13c>
    }
  }

  /* Transfer Error Interrupt management ***************************************/
  else if ((RESET != (flag_it & (DMA_FLAG_TE1 << hdma->ChannelIndex))) && (RESET != (source_it & DMA_IT_TE)))
 8003e1e:	687b      	ldr	r3, [r7, #4]
 8003e20:	6c1b      	ldr	r3, [r3, #64]	@ 0x40
 8003e22:	2208      	movs	r2, #8
 8003e24:	409a      	lsls	r2, r3
 8003e26:	0013      	movs	r3, r2
 8003e28:	68fa      	ldr	r2, [r7, #12]
 8003e2a:	4013      	ands	r3, r2
 8003e2c:	d028      	beq.n	8003e80 <HAL_DMA_IRQHandler+0x13c>
 8003e2e:	68bb      	ldr	r3, [r7, #8]
 8003e30:	2208      	movs	r2, #8
 8003e32:	4013      	ands	r3, r2
 8003e34:	d024      	beq.n	8003e80 <HAL_DMA_IRQHandler+0x13c>
  {
    /* When a DMA transfer error occurs */
    /* A hardware clear of its EN bits is performed */
    /* Then, disable all DMA interrupts */
    hdma->Instance->CCR &= ~(DMA_IT_TC | DMA_IT_HT | DMA_IT_TE);
 8003e36:	687b      	ldr	r3, [r7, #4]
 8003e38:	681b      	ldr	r3, [r3, #0]
 8003e3a:	681a      	ldr	r2, [r3, #0]
 8003e3c:	687b      	ldr	r3, [r7, #4]
 8003e3e:	681b      	ldr	r3, [r3, #0]
 8003e40:	210e      	movs	r1, #14
 8003e42:	438a      	bics	r2, r1
 8003e44:	601a      	str	r2, [r3, #0]

    /* Clear all flags */
    hdma->DmaBaseAddress->IFCR = DMA_FLAG_GL1 << hdma->ChannelIndex;
 8003e46:	687b      	ldr	r3, [r7, #4]
 8003e48:	6c1a      	ldr	r2, [r3, #64]	@ 0x40
 8003e4a:	687b      	ldr	r3, [r7, #4]
 8003e4c:	6bdb      	ldr	r3, [r3, #60]	@ 0x3c
 8003e4e:	2101      	movs	r1, #1
 8003e50:	4091      	lsls	r1, r2
 8003e52:	000a      	movs	r2, r1
 8003e54:	605a      	str	r2, [r3, #4]

    /* Update error code */
    hdma->ErrorCode = HAL_DMA_ERROR_TE;
 8003e56:	687b      	ldr	r3, [r7, #4]
 8003e58:	2201      	movs	r2, #1
 8003e5a:	639a      	str	r2, [r3, #56]	@ 0x38

    /* Change the DMA state */
    hdma->State = HAL_DMA_STATE_READY;
 8003e5c:	687b      	ldr	r3, [r7, #4]
 8003e5e:	2221      	movs	r2, #33	@ 0x21
 8003e60:	2101      	movs	r1, #1
 8003e62:	5499      	strb	r1, [r3, r2]

    /* Process Unlocked */
    __HAL_UNLOCK(hdma);
 8003e64:	687b      	ldr	r3, [r7, #4]
 8003e66:	2220      	movs	r2, #32
 8003e68:	2100      	movs	r1, #0
 8003e6a:	5499      	strb	r1, [r3, r2]

    if (hdma->XferErrorCallback != NULL)
 8003e6c:	687b      	ldr	r3, [r7, #4]
 8003e6e:	6b1b      	ldr	r3, [r3, #48]	@ 0x30
 8003e70:	2b00      	cmp	r3, #0
 8003e72:	d005      	beq.n	8003e80 <HAL_DMA_IRQHandler+0x13c>
    {
      /* Transfer error callback */
      hdma->XferErrorCallback(hdma);
 8003e74:	687b      	ldr	r3, [r7, #4]
 8003e76:	6b1b      	ldr	r3, [r3, #48]	@ 0x30
 8003e78:	687a      	ldr	r2, [r7, #4]
 8003e7a:	0010      	movs	r0, r2
 8003e7c:	4798      	blx	r3
    }
  }
}
 8003e7e:	e7ff      	b.n	8003e80 <HAL_DMA_IRQHandler+0x13c>
 8003e80:	46c0      	nop			@ (mov r8, r8)
 8003e82:	46bd      	mov	sp, r7
 8003e84:	b004      	add	sp, #16
 8003e86:	bd80      	pop	{r7, pc}

08003e88 <DMA_SetConfig>:
  * @param  DstAddress The destination memory Buffer address
  * @param  DataLength The length of data to be transferred from source to destination
  * @retval HAL status
  */
static void DMA_SetConfig(DMA_HandleTypeDef *hdma, uint32_t SrcAddress, uint32_t DstAddress, uint32_t DataLength)
{
 8003e88:	b580      	push	{r7, lr}
 8003e8a:	b084      	sub	sp, #16
 8003e8c:	af00      	add	r7, sp, #0
 8003e8e:	60f8      	str	r0, [r7, #12]
 8003e90:	60b9      	str	r1, [r7, #8]
 8003e92:	607a      	str	r2, [r7, #4]
 8003e94:	603b      	str	r3, [r7, #0]
  /* Clear all flags */
  hdma->DmaBaseAddress->IFCR  = (DMA_FLAG_GL1 << hdma->ChannelIndex);
 8003e96:	68fb      	ldr	r3, [r7, #12]
 8003e98:	6c1a      	ldr	r2, [r3, #64]	@ 0x40
 8003e9a:	68fb      	ldr	r3, [r7, #12]
 8003e9c:	6bdb      	ldr	r3, [r3, #60]	@ 0x3c
 8003e9e:	2101      	movs	r1, #1
 8003ea0:	4091      	lsls	r1, r2
 8003ea2:	000a      	movs	r2, r1
 8003ea4:	605a      	str	r2, [r3, #4]

  /* Configure DMA Channel data length */
  hdma->Instance->CNDTR = DataLength;
 8003ea6:	68fb      	ldr	r3, [r7, #12]
 8003ea8:	681b      	ldr	r3, [r3, #0]
 8003eaa:	683a      	ldr	r2, [r7, #0]
 8003eac:	605a      	str	r2, [r3, #4]

  /* Memory to Peripheral */
  if ((hdma->Init.Direction) == DMA_MEMORY_TO_PERIPH)
 8003eae:	68fb      	ldr	r3, [r7, #12]
 8003eb0:	685b      	ldr	r3, [r3, #4]
 8003eb2:	2b10      	cmp	r3, #16
 8003eb4:	d108      	bne.n	8003ec8 <DMA_SetConfig+0x40>
  {
    /* Configure DMA Channel destination address */
    hdma->Instance->CPAR = DstAddress;
 8003eb6:	68fb      	ldr	r3, [r7, #12]
 8003eb8:	681b      	ldr	r3, [r3, #0]
 8003eba:	687a      	ldr	r2, [r7, #4]
 8003ebc:	609a      	str	r2, [r3, #8]

    /* Configure DMA Channel source address */
    hdma->Instance->CMAR = SrcAddress;
 8003ebe:	68fb      	ldr	r3, [r7, #12]
 8003ec0:	681b      	ldr	r3, [r3, #0]
 8003ec2:	68ba      	ldr	r2, [r7, #8]
 8003ec4:	60da      	str	r2, [r3, #12]
    hdma->Instance->CPAR = SrcAddress;

    /* Configure DMA Channel destination address */
    hdma->Instance->CMAR = DstAddress;
  }
}
 8003ec6:	e007      	b.n	8003ed8 <DMA_SetConfig+0x50>
    hdma->Instance->CPAR = SrcAddress;
 8003ec8:	68fb      	ldr	r3, [r7, #12]
 8003eca:	681b      	ldr	r3, [r3, #0]
 8003ecc:	68ba      	ldr	r2, [r7, #8]
 8003ece:	609a      	str	r2, [r3, #8]
    hdma->Instance->CMAR = DstAddress;
 8003ed0:	68fb      	ldr	r3, [r7, #12]
 8003ed2:	681b      	ldr	r3, [r3, #0]
 8003ed4:	687a      	ldr	r2, [r7, #4]
 8003ed6:	60da      	str	r2, [r3, #12]
}
 8003ed8:	46c0      	nop			@ (mov r8, r8)
 8003eda:	46bd      	mov	sp, r7
 8003edc:	b004      	add	sp, #16
 8003ede:	bd80      	pop	{r7, pc}

08003ee0 <DMA_CalcBaseAndBitshift>:
  * @param  hdma       pointer to a DMA_HandleTypeDef structure that contains
  *                     the configuration information for the specified DMA Stream.
  * @retval None
  */
static void DMA_CalcBaseAndBitshift(DMA_HandleTypeDef *hdma)
{
 8003ee0:	b580      	push	{r7, lr}
 8003ee2:	b082      	sub	sp, #8
 8003ee4:	af00      	add	r7, sp, #0
 8003ee6:	6078      	str	r0, [r7, #4]
#if defined (DMA2)
  /* calculation of the channel index */
  if ((uint32_t)(hdma->Instance) < (uint32_t)(DMA2_Channel1))
 8003ee8:	687b      	ldr	r3, [r7, #4]
 8003eea:	681b      	ldr	r3, [r3, #0]
 8003eec:	001a      	movs	r2, r3
 8003eee:	4b14      	ldr	r3, [pc, #80]	@ (8003f40 <DMA_CalcBaseAndBitshift+0x60>)
 8003ef0:	429a      	cmp	r2, r3
 8003ef2:	d810      	bhi.n	8003f16 <DMA_CalcBaseAndBitshift+0x36>
  {
    /* DMA1 */
    hdma->ChannelIndex = (((uint32_t)hdma->Instance - (uint32_t)DMA1_Channel1) / ((uint32_t)DMA1_Channel2 - (uint32_t)DMA1_Channel1)) << 2U;
 8003ef4:	687b      	ldr	r3, [r7, #4]
 8003ef6:	681b      	ldr	r3, [r3, #0]
 8003ef8:	4a12      	ldr	r2, [pc, #72]	@ (8003f44 <DMA_CalcBaseAndBitshift+0x64>)
 8003efa:	4694      	mov	ip, r2
 8003efc:	4463      	add	r3, ip
 8003efe:	2114      	movs	r1, #20
 8003f00:	0018      	movs	r0, r3
 8003f02:	f7fc f8ff 	bl	8000104 <__udivsi3>
 8003f06:	0003      	movs	r3, r0
 8003f08:	009a      	lsls	r2, r3, #2
 8003f0a:	687b      	ldr	r3, [r7, #4]
 8003f0c:	641a      	str	r2, [r3, #64]	@ 0x40
    hdma->DmaBaseAddress = DMA1;
 8003f0e:	687b      	ldr	r3, [r7, #4]
 8003f10:	4a0d      	ldr	r2, [pc, #52]	@ (8003f48 <DMA_CalcBaseAndBitshift+0x68>)
 8003f12:	63da      	str	r2, [r3, #60]	@ 0x3c
  /* calculation of the channel index */
  /* DMA1 */
  hdma->ChannelIndex = (((uint32_t)hdma->Instance - (uint32_t)DMA1_Channel1) / ((uint32_t)DMA1_Channel2 - (uint32_t)DMA1_Channel1)) << 2U;
  hdma->DmaBaseAddress = DMA1;
#endif
}
 8003f14:	e00f      	b.n	8003f36 <DMA_CalcBaseAndBitshift+0x56>
    hdma->ChannelIndex = (((uint32_t)hdma->Instance - (uint32_t)DMA2_Channel1) / ((uint32_t)DMA2_Channel2 - (uint32_t)DMA2_Channel1)) << 2U;
 8003f16:	687b      	ldr	r3, [r7, #4]
 8003f18:	681b      	ldr	r3, [r3, #0]
 8003f1a:	4a0c      	ldr	r2, [pc, #48]	@ (8003f4c <DMA_CalcBaseAndBitshift+0x6c>)
 8003f1c:	4694      	mov	ip, r2
 8003f1e:	4463      	add	r3, ip
 8003f20:	2114      	movs	r1, #20
 8003f22:	0018      	movs	r0, r3
 8003f24:	f7fc f8ee 	bl	8000104 <__udivsi3>
 8003f28:	0003      	movs	r3, r0
 8003f2a:	009a      	lsls	r2, r3, #2
 8003f2c:	687b      	ldr	r3, [r7, #4]
 8003f2e:	641a      	str	r2, [r3, #64]	@ 0x40
    hdma->DmaBaseAddress = DMA2;
 8003f30:	687b      	ldr	r3, [r7, #4]
 8003f32:	4a07      	ldr	r2, [pc, #28]	@ (8003f50 <DMA_CalcBaseAndBitshift+0x70>)
 8003f34:	63da      	str	r2, [r3, #60]	@ 0x3c
}
 8003f36:	46c0      	nop			@ (mov r8, r8)
 8003f38:	46bd      	mov	sp, r7
 8003f3a:	b002      	add	sp, #8
 8003f3c:	bd80      	pop	{r7, pc}
 8003f3e:	46c0      	nop			@ (mov r8, r8)
 8003f40:	40020407 	.word	0x40020407
 8003f44:	bffdfff8 	.word	0xbffdfff8
 8003f48:	40020000 	.word	0x40020000
 8003f4c:	bffdfbf8 	.word	0xbffdfbf8
 8003f50:	40020400 	.word	0x40020400

08003f54 <HAL_GPIO_Init>:
  * @param  GPIO_Init pointer to a GPIO_InitTypeDef structure that contains
  *         the configuration information for the specified GPIO peripheral.
  * @retval None
  */
void HAL_GPIO_Init(GPIO_TypeDef  *GPIOx, GPIO_InitTypeDef *GPIO_Init)
{
 8003f54:	b580      	push	{r7, lr}
 8003f56:	b086      	sub	sp, #24
 8003f58:	af00      	add	r7, sp, #0
 8003f5a:	6078      	str	r0, [r7, #4]
 8003f5c:	6039      	str	r1, [r7, #0]
  uint32_t position = 0x00u;
 8003f5e:	2300      	movs	r3, #0
 8003f60:	617b      	str	r3, [r7, #20]
  assert_param(IS_GPIO_ALL_INSTANCE(GPIOx));
  assert_param(IS_GPIO_PIN(GPIO_Init->Pin));
  assert_param(IS_GPIO_MODE(GPIO_Init->Mode));

  /* Configure the port pins */
  while (((GPIO_Init->Pin) >> position) != 0x00u)
 8003f62:	e155      	b.n	8004210 <HAL_GPIO_Init+0x2bc>
  {
    /* Get current io position */
    iocurrent = (GPIO_Init->Pin) & (1uL << position);
 8003f64:	683b      	ldr	r3, [r7, #0]
 8003f66:	681b      	ldr	r3, [r3, #0]
 8003f68:	2101      	movs	r1, #1
 8003f6a:	697a      	ldr	r2, [r7, #20]
 8003f6c:	4091      	lsls	r1, r2
 8003f6e:	000a      	movs	r2, r1
 8003f70:	4013      	ands	r3, r2
 8003f72:	60fb      	str	r3, [r7, #12]

    if (iocurrent != 0x00u)
 8003f74:	68fb      	ldr	r3, [r7, #12]
 8003f76:	2b00      	cmp	r3, #0
 8003f78:	d100      	bne.n	8003f7c <HAL_GPIO_Init+0x28>
 8003f7a:	e146      	b.n	800420a <HAL_GPIO_Init+0x2b6>
    {
      /*--------------------- GPIO Mode Configuration ------------------------*/
      /* In case of Output or Alternate function mode selection */
      if(((GPIO_Init->Mode & GPIO_MODE) == MODE_OUTPUT) ||
 8003f7c:	683b      	ldr	r3, [r7, #0]
 8003f7e:	685b      	ldr	r3, [r3, #4]
 8003f80:	2203      	movs	r2, #3
 8003f82:	4013      	ands	r3, r2
 8003f84:	2b01      	cmp	r3, #1
 8003f86:	d005      	beq.n	8003f94 <HAL_GPIO_Init+0x40>
         ((GPIO_Init->Mode & GPIO_MODE) == MODE_AF))
 8003f88:	683b      	ldr	r3, [r7, #0]
 8003f8a:	685b      	ldr	r3, [r3, #4]
 8003f8c:	2203      	movs	r2, #3
 8003f8e:	4013      	ands	r3, r2
      if(((GPIO_Init->Mode & GPIO_MODE) == MODE_OUTPUT) ||
 8003f90:	2b02      	cmp	r3, #2
 8003f92:	d130      	bne.n	8003ff6 <HAL_GPIO_Init+0xa2>
      {
        /* Check the Speed parameter */
        assert_param(IS_GPIO_SPEED(GPIO_Init->Speed));
        /* Configure the IO Speed */
        temp = GPIOx->OSPEEDR;
 8003f94:	687b      	ldr	r3, [r7, #4]
 8003f96:	689b      	ldr	r3, [r3, #8]
 8003f98:	613b      	str	r3, [r7, #16]
        temp &= ~(GPIO_OSPEEDER_OSPEEDR0 << (position * 2u));
 8003f9a:	697b      	ldr	r3, [r7, #20]
 8003f9c:	005b      	lsls	r3, r3, #1
 8003f9e:	2203      	movs	r2, #3
 8003fa0:	409a      	lsls	r2, r3
 8003fa2:	0013      	movs	r3, r2
 8003fa4:	43da      	mvns	r2, r3
 8003fa6:	693b      	ldr	r3, [r7, #16]
 8003fa8:	4013      	ands	r3, r2
 8003faa:	613b      	str	r3, [r7, #16]
        temp |= (GPIO_Init->Speed << (position * 2u));
 8003fac:	683b      	ldr	r3, [r7, #0]
 8003fae:	68da      	ldr	r2, [r3, #12]
 8003fb0:	697b      	ldr	r3, [r7, #20]
 8003fb2:	005b      	lsls	r3, r3, #1
 8003fb4:	409a      	lsls	r2, r3
 8003fb6:	0013      	movs	r3, r2
 8003fb8:	693a      	ldr	r2, [r7, #16]
 8003fba:	4313      	orrs	r3, r2
 8003fbc:	613b      	str	r3, [r7, #16]
        GPIOx->OSPEEDR = temp;
 8003fbe:	687b      	ldr	r3, [r7, #4]
 8003fc0:	693a      	ldr	r2, [r7, #16]
 8003fc2:	609a      	str	r2, [r3, #8]

        /* Configure the IO Output Type */
        temp = GPIOx->OTYPER;
 8003fc4:	687b      	ldr	r3, [r7, #4]
 8003fc6:	685b      	ldr	r3, [r3, #4]
 8003fc8:	613b      	str	r3, [r7, #16]
        temp &= ~(GPIO_OTYPER_OT_0 << position) ;
 8003fca:	2201      	movs	r2, #1
 8003fcc:	697b      	ldr	r3, [r7, #20]
 8003fce:	409a      	lsls	r2, r3
 8003fd0:	0013      	movs	r3, r2
 8003fd2:	43da      	mvns	r2, r3
 8003fd4:	693b      	ldr	r3, [r7, #16]
 8003fd6:	4013      	ands	r3, r2
 8003fd8:	613b      	str	r3, [r7, #16]
        temp |= (((GPIO_Init->Mode & OUTPUT_TYPE) >> OUTPUT_TYPE_Pos) << position);
 8003fda:	683b      	ldr	r3, [r7, #0]
 8003fdc:	685b      	ldr	r3, [r3, #4]
 8003fde:	091b      	lsrs	r3, r3, #4
 8003fe0:	2201      	movs	r2, #1
 8003fe2:	401a      	ands	r2, r3
 8003fe4:	697b      	ldr	r3, [r7, #20]
 8003fe6:	409a      	lsls	r2, r3
 8003fe8:	0013      	movs	r3, r2
 8003fea:	693a      	ldr	r2, [r7, #16]
 8003fec:	4313      	orrs	r3, r2
 8003fee:	613b      	str	r3, [r7, #16]
        GPIOx->OTYPER = temp;
 8003ff0:	687b      	ldr	r3, [r7, #4]
 8003ff2:	693a      	ldr	r2, [r7, #16]
 8003ff4:	605a      	str	r2, [r3, #4]
      }
      
      if((GPIO_Init->Mode & GPIO_MODE) != MODE_ANALOG)
 8003ff6:	683b      	ldr	r3, [r7, #0]
 8003ff8:	685b      	ldr	r3, [r3, #4]
 8003ffa:	2203      	movs	r2, #3
 8003ffc:	4013      	ands	r3, r2
 8003ffe:	2b03      	cmp	r3, #3
 8004000:	d017      	beq.n	8004032 <HAL_GPIO_Init+0xde>
      {
        /* Check the Pull parameter */
        assert_param(IS_GPIO_PULL(GPIO_Init->Pull));

        /* Activate the Pull-up or Pull down resistor for the current IO */
        temp = GPIOx->PUPDR;
 8004002:	687b      	ldr	r3, [r7, #4]
 8004004:	68db      	ldr	r3, [r3, #12]
 8004006:	613b      	str	r3, [r7, #16]
        temp &= ~(GPIO_PUPDR_PUPDR0 << (position * 2u));
 8004008:	697b      	ldr	r3, [r7, #20]
 800400a:	005b      	lsls	r3, r3, #1
 800400c:	2203      	movs	r2, #3
 800400e:	409a      	lsls	r2, r3
 8004010:	0013      	movs	r3, r2
 8004012:	43da      	mvns	r2, r3
 8004014:	693b      	ldr	r3, [r7, #16]
 8004016:	4013      	ands	r3, r2
 8004018:	613b      	str	r3, [r7, #16]
        temp |= ((GPIO_Init->Pull) << (position * 2u));
 800401a:	683b      	ldr	r3, [r7, #0]
 800401c:	689a      	ldr	r2, [r3, #8]
 800401e:	697b      	ldr	r3, [r7, #20]
 8004020:	005b      	lsls	r3, r3, #1
 8004022:	409a      	lsls	r2, r3
 8004024:	0013      	movs	r3, r2
 8004026:	693a      	ldr	r2, [r7, #16]
 8004028:	4313      	orrs	r3, r2
 800402a:	613b      	str	r3, [r7, #16]
        GPIOx->PUPDR = temp;
 800402c:	687b      	ldr	r3, [r7, #4]
 800402e:	693a      	ldr	r2, [r7, #16]
 8004030:	60da      	str	r2, [r3, #12]
      }

      /* In case of Alternate function mode selection */
      if((GPIO_Init->Mode & GPIO_MODE) == MODE_AF)
 8004032:	683b      	ldr	r3, [r7, #0]
 8004034:	685b      	ldr	r3, [r3, #4]
 8004036:	2203      	movs	r2, #3
 8004038:	4013      	ands	r3, r2
 800403a:	2b02      	cmp	r3, #2
 800403c:	d123      	bne.n	8004086 <HAL_GPIO_Init+0x132>
        /* Check the Alternate function parameters */
        assert_param(IS_GPIO_AF_INSTANCE(GPIOx));
        assert_param(IS_GPIO_AF(GPIO_Init->Alternate));

        /* Configure Alternate function mapped with the current IO */
        temp = GPIOx->AFR[position >> 3u];
 800403e:	697b      	ldr	r3, [r7, #20]
 8004040:	08da      	lsrs	r2, r3, #3
 8004042:	687b      	ldr	r3, [r7, #4]
 8004044:	3208      	adds	r2, #8
 8004046:	0092      	lsls	r2, r2, #2
 8004048:	58d3      	ldr	r3, [r2, r3]
 800404a:	613b      	str	r3, [r7, #16]
        temp &= ~(0xFu << ((position & 0x07u) * 4u));
 800404c:	697b      	ldr	r3, [r7, #20]
 800404e:	2207      	movs	r2, #7
 8004050:	4013      	ands	r3, r2
 8004052:	009b      	lsls	r3, r3, #2
 8004054:	220f      	movs	r2, #15
 8004056:	409a      	lsls	r2, r3
 8004058:	0013      	movs	r3, r2
 800405a:	43da      	mvns	r2, r3
 800405c:	693b      	ldr	r3, [r7, #16]
 800405e:	4013      	ands	r3, r2
 8004060:	613b      	str	r3, [r7, #16]
        temp |= ((GPIO_Init->Alternate) << ((position & 0x07u) * 4u));
 8004062:	683b      	ldr	r3, [r7, #0]
 8004064:	691a      	ldr	r2, [r3, #16]
 8004066:	697b      	ldr	r3, [r7, #20]
 8004068:	2107      	movs	r1, #7
 800406a:	400b      	ands	r3, r1
 800406c:	009b      	lsls	r3, r3, #2
 800406e:	409a      	lsls	r2, r3
 8004070:	0013      	movs	r3, r2
 8004072:	693a      	ldr	r2, [r7, #16]
 8004074:	4313      	orrs	r3, r2
 8004076:	613b      	str	r3, [r7, #16]
        GPIOx->AFR[position >> 3u] = temp;
 8004078:	697b      	ldr	r3, [r7, #20]
 800407a:	08da      	lsrs	r2, r3, #3
 800407c:	687b      	ldr	r3, [r7, #4]
 800407e:	3208      	adds	r2, #8
 8004080:	0092      	lsls	r2, r2, #2
 8004082:	6939      	ldr	r1, [r7, #16]
 8004084:	50d1      	str	r1, [r2, r3]
      }

      /* Configure IO Direction mode (Input, Output, Alternate or Analog) */
      temp = GPIOx->MODER;
 8004086:	687b      	ldr	r3, [r7, #4]
 8004088:	681b      	ldr	r3, [r3, #0]
 800408a:	613b      	str	r3, [r7, #16]
      temp &= ~(GPIO_MODER_MODER0 << (position * 2u));
 800408c:	697b      	ldr	r3, [r7, #20]
 800408e:	005b      	lsls	r3, r3, #1
 8004090:	2203      	movs	r2, #3
 8004092:	409a      	lsls	r2, r3
 8004094:	0013      	movs	r3, r2
 8004096:	43da      	mvns	r2, r3
 8004098:	693b      	ldr	r3, [r7, #16]
 800409a:	4013      	ands	r3, r2
 800409c:	613b      	str	r3, [r7, #16]
      temp |= ((GPIO_Init->Mode & GPIO_MODE) << (position * 2u));
 800409e:	683b      	ldr	r3, [r7, #0]
 80040a0:	685b      	ldr	r3, [r3, #4]
 80040a2:	2203      	movs	r2, #3
 80040a4:	401a      	ands	r2, r3
 80040a6:	697b      	ldr	r3, [r7, #20]
 80040a8:	005b      	lsls	r3, r3, #1
 80040aa:	409a      	lsls	r2, r3
 80040ac:	0013      	movs	r3, r2
 80040ae:	693a      	ldr	r2, [r7, #16]
 80040b0:	4313      	orrs	r3, r2
 80040b2:	613b      	str	r3, [r7, #16]
      GPIOx->MODER = temp;
 80040b4:	687b      	ldr	r3, [r7, #4]
 80040b6:	693a      	ldr	r2, [r7, #16]
 80040b8:	601a      	str	r2, [r3, #0]

      /*--------------------- EXTI Mode Configuration ------------------------*/
      /* Configure the External Interrupt or event for the current IO */
      if((GPIO_Init->Mode & EXTI_MODE) != 0x00u)
 80040ba:	683b      	ldr	r3, [r7, #0]
 80040bc:	685a      	ldr	r2, [r3, #4]
 80040be:	23c0      	movs	r3, #192	@ 0xc0
 80040c0:	029b      	lsls	r3, r3, #10
 80040c2:	4013      	ands	r3, r2
 80040c4:	d100      	bne.n	80040c8 <HAL_GPIO_Init+0x174>
 80040c6:	e0a0      	b.n	800420a <HAL_GPIO_Init+0x2b6>
      {
        /* Enable SYSCFG Clock */
        __HAL_RCC_SYSCFG_CLK_ENABLE();
 80040c8:	4b57      	ldr	r3, [pc, #348]	@ (8004228 <HAL_GPIO_Init+0x2d4>)
 80040ca:	699a      	ldr	r2, [r3, #24]
 80040cc:	4b56      	ldr	r3, [pc, #344]	@ (8004228 <HAL_GPIO_Init+0x2d4>)
 80040ce:	2101      	movs	r1, #1
 80040d0:	430a      	orrs	r2, r1
 80040d2:	619a      	str	r2, [r3, #24]
 80040d4:	4b54      	ldr	r3, [pc, #336]	@ (8004228 <HAL_GPIO_Init+0x2d4>)
 80040d6:	699b      	ldr	r3, [r3, #24]
 80040d8:	2201      	movs	r2, #1
 80040da:	4013      	ands	r3, r2
 80040dc:	60bb      	str	r3, [r7, #8]
 80040de:	68bb      	ldr	r3, [r7, #8]

        temp = SYSCFG->EXTICR[position >> 2u];
 80040e0:	4a52      	ldr	r2, [pc, #328]	@ (800422c <HAL_GPIO_Init+0x2d8>)
 80040e2:	697b      	ldr	r3, [r7, #20]
 80040e4:	089b      	lsrs	r3, r3, #2
 80040e6:	3302      	adds	r3, #2
 80040e8:	009b      	lsls	r3, r3, #2
 80040ea:	589b      	ldr	r3, [r3, r2]
 80040ec:	613b      	str	r3, [r7, #16]
        temp &= ~(0x0FuL << (4u * (position & 0x03u)));
 80040ee:	697b      	ldr	r3, [r7, #20]
 80040f0:	2203      	movs	r2, #3
 80040f2:	4013      	ands	r3, r2
 80040f4:	009b      	lsls	r3, r3, #2
 80040f6:	220f      	movs	r2, #15
 80040f8:	409a      	lsls	r2, r3
 80040fa:	0013      	movs	r3, r2
 80040fc:	43da      	mvns	r2, r3
 80040fe:	693b      	ldr	r3, [r7, #16]
 8004100:	4013      	ands	r3, r2
 8004102:	613b      	str	r3, [r7, #16]
        temp |= (GPIO_GET_INDEX(GPIOx) << (4u * (position & 0x03u)));
 8004104:	687a      	ldr	r2, [r7, #4]
 8004106:	2390      	movs	r3, #144	@ 0x90
 8004108:	05db      	lsls	r3, r3, #23
 800410a:	429a      	cmp	r2, r3
 800410c:	d019      	beq.n	8004142 <HAL_GPIO_Init+0x1ee>
 800410e:	687b      	ldr	r3, [r7, #4]
 8004110:	4a47      	ldr	r2, [pc, #284]	@ (8004230 <HAL_GPIO_Init+0x2dc>)
 8004112:	4293      	cmp	r3, r2
 8004114:	d013      	beq.n	800413e <HAL_GPIO_Init+0x1ea>
 8004116:	687b      	ldr	r3, [r7, #4]
 8004118:	4a46      	ldr	r2, [pc, #280]	@ (8004234 <HAL_GPIO_Init+0x2e0>)
 800411a:	4293      	cmp	r3, r2
 800411c:	d00d      	beq.n	800413a <HAL_GPIO_Init+0x1e6>
 800411e:	687b      	ldr	r3, [r7, #4]
 8004120:	4a45      	ldr	r2, [pc, #276]	@ (8004238 <HAL_GPIO_Init+0x2e4>)
 8004122:	4293      	cmp	r3, r2
 8004124:	d007      	beq.n	8004136 <HAL_GPIO_Init+0x1e2>
 8004126:	687b      	ldr	r3, [r7, #4]
 8004128:	4a44      	ldr	r2, [pc, #272]	@ (800423c <HAL_GPIO_Init+0x2e8>)
 800412a:	4293      	cmp	r3, r2
 800412c:	d101      	bne.n	8004132 <HAL_GPIO_Init+0x1de>
 800412e:	2304      	movs	r3, #4
 8004130:	e008      	b.n	8004144 <HAL_GPIO_Init+0x1f0>
 8004132:	2305      	movs	r3, #5
 8004134:	e006      	b.n	8004144 <HAL_GPIO_Init+0x1f0>
 8004136:	2303      	movs	r3, #3
 8004138:	e004      	b.n	8004144 <HAL_GPIO_Init+0x1f0>
 800413a:	2302      	movs	r3, #2
 800413c:	e002      	b.n	8004144 <HAL_GPIO_Init+0x1f0>
 800413e:	2301      	movs	r3, #1
 8004140:	e000      	b.n	8004144 <HAL_GPIO_Init+0x1f0>
 8004142:	2300      	movs	r3, #0
 8004144:	697a      	ldr	r2, [r7, #20]
 8004146:	2103      	movs	r1, #3
 8004148:	400a      	ands	r2, r1
 800414a:	0092      	lsls	r2, r2, #2
 800414c:	4093      	lsls	r3, r2
 800414e:	693a      	ldr	r2, [r7, #16]
 8004150:	4313      	orrs	r3, r2
 8004152:	613b      	str	r3, [r7, #16]
        SYSCFG->EXTICR[position >> 2u] = temp;
 8004154:	4935      	ldr	r1, [pc, #212]	@ (800422c <HAL_GPIO_Init+0x2d8>)
 8004156:	697b      	ldr	r3, [r7, #20]
 8004158:	089b      	lsrs	r3, r3, #2
 800415a:	3302      	adds	r3, #2
 800415c:	009b      	lsls	r3, r3, #2
 800415e:	693a      	ldr	r2, [r7, #16]
 8004160:	505a      	str	r2, [r3, r1]

        /* Clear Rising Falling edge configuration */
        temp = EXTI->RTSR;
 8004162:	4b37      	ldr	r3, [pc, #220]	@ (8004240 <HAL_GPIO_Init+0x2ec>)
 8004164:	689b      	ldr	r3, [r3, #8]
 8004166:	613b      	str	r3, [r7, #16]
        temp &= ~(iocurrent);
 8004168:	68fb      	ldr	r3, [r7, #12]
 800416a:	43da      	mvns	r2, r3
 800416c:	693b      	ldr	r3, [r7, #16]
 800416e:	4013      	ands	r3, r2
 8004170:	613b      	str	r3, [r7, #16]
        if((GPIO_Init->Mode & TRIGGER_RISING) != 0x00u)
 8004172:	683b      	ldr	r3, [r7, #0]
 8004174:	685a      	ldr	r2, [r3, #4]
 8004176:	2380      	movs	r3, #128	@ 0x80
 8004178:	035b      	lsls	r3, r3, #13
 800417a:	4013      	ands	r3, r2
 800417c:	d003      	beq.n	8004186 <HAL_GPIO_Init+0x232>
        {
          temp |= iocurrent;
 800417e:	693a      	ldr	r2, [r7, #16]
 8004180:	68fb      	ldr	r3, [r7, #12]
 8004182:	4313      	orrs	r3, r2
 8004184:	613b      	str	r3, [r7, #16]
        }
        EXTI->RTSR = temp;
 8004186:	4b2e      	ldr	r3, [pc, #184]	@ (8004240 <HAL_GPIO_Init+0x2ec>)
 8004188:	693a      	ldr	r2, [r7, #16]
 800418a:	609a      	str	r2, [r3, #8]

        temp = EXTI->FTSR;
 800418c:	4b2c      	ldr	r3, [pc, #176]	@ (8004240 <HAL_GPIO_Init+0x2ec>)
 800418e:	68db      	ldr	r3, [r3, #12]
 8004190:	613b      	str	r3, [r7, #16]
        temp &= ~(iocurrent);
 8004192:	68fb      	ldr	r3, [r7, #12]
 8004194:	43da      	mvns	r2, r3
 8004196:	693b      	ldr	r3, [r7, #16]
 8004198:	4013      	ands	r3, r2
 800419a:	613b      	str	r3, [r7, #16]
        if((GPIO_Init->Mode & TRIGGER_FALLING) != 0x00u)
 800419c:	683b      	ldr	r3, [r7, #0]
 800419e:	685a      	ldr	r2, [r3, #4]
 80041a0:	2380      	movs	r3, #128	@ 0x80
 80041a2:	039b      	lsls	r3, r3, #14
 80041a4:	4013      	ands	r3, r2
 80041a6:	d003      	beq.n	80041b0 <HAL_GPIO_Init+0x25c>
        {
          temp |= iocurrent;
 80041a8:	693a      	ldr	r2, [r7, #16]
 80041aa:	68fb      	ldr	r3, [r7, #12]
 80041ac:	4313      	orrs	r3, r2
 80041ae:	613b      	str	r3, [r7, #16]
        }
        EXTI->FTSR = temp;
 80041b0:	4b23      	ldr	r3, [pc, #140]	@ (8004240 <HAL_GPIO_Init+0x2ec>)
 80041b2:	693a      	ldr	r2, [r7, #16]
 80041b4:	60da      	str	r2, [r3, #12]

        /* Clear EXTI line configuration */
        temp = EXTI->EMR;
 80041b6:	4b22      	ldr	r3, [pc, #136]	@ (8004240 <HAL_GPIO_Init+0x2ec>)
 80041b8:	685b      	ldr	r3, [r3, #4]
 80041ba:	613b      	str	r3, [r7, #16]
        temp &= ~(iocurrent);
 80041bc:	68fb      	ldr	r3, [r7, #12]
 80041be:	43da      	mvns	r2, r3
 80041c0:	693b      	ldr	r3, [r7, #16]
 80041c2:	4013      	ands	r3, r2
 80041c4:	613b      	str	r3, [r7, #16]
        if((GPIO_Init->Mode & EXTI_EVT) != 0x00u)
 80041c6:	683b      	ldr	r3, [r7, #0]
 80041c8:	685a      	ldr	r2, [r3, #4]
 80041ca:	2380      	movs	r3, #128	@ 0x80
 80041cc:	029b      	lsls	r3, r3, #10
 80041ce:	4013      	ands	r3, r2
 80041d0:	d003      	beq.n	80041da <HAL_GPIO_Init+0x286>
        {
          temp |= iocurrent;
 80041d2:	693a      	ldr	r2, [r7, #16]
 80041d4:	68fb      	ldr	r3, [r7, #12]
 80041d6:	4313      	orrs	r3, r2
 80041d8:	613b      	str	r3, [r7, #16]
        }
        EXTI->EMR = temp;
 80041da:	4b19      	ldr	r3, [pc, #100]	@ (8004240 <HAL_GPIO_Init+0x2ec>)
 80041dc:	693a      	ldr	r2, [r7, #16]
 80041de:	605a      	str	r2, [r3, #4]

        temp = EXTI->IMR;
 80041e0:	4b17      	ldr	r3, [pc, #92]	@ (8004240 <HAL_GPIO_Init+0x2ec>)
 80041e2:	681b      	ldr	r3, [r3, #0]
 80041e4:	613b      	str	r3, [r7, #16]
        temp &= ~(iocurrent);
 80041e6:	68fb      	ldr	r3, [r7, #12]
 80041e8:	43da      	mvns	r2, r3
 80041ea:	693b      	ldr	r3, [r7, #16]
 80041ec:	4013      	ands	r3, r2
 80041ee:	613b      	str	r3, [r7, #16]
        if((GPIO_Init->Mode & EXTI_IT) != 0x00u)
 80041f0:	683b      	ldr	r3, [r7, #0]
 80041f2:	685a      	ldr	r2, [r3, #4]
 80041f4:	2380      	movs	r3, #128	@ 0x80
 80041f6:	025b      	lsls	r3, r3, #9
 80041f8:	4013      	ands	r3, r2
 80041fa:	d003      	beq.n	8004204 <HAL_GPIO_Init+0x2b0>
        {
          temp |= iocurrent;
 80041fc:	693a      	ldr	r2, [r7, #16]
 80041fe:	68fb      	ldr	r3, [r7, #12]
 8004200:	4313      	orrs	r3, r2
 8004202:	613b      	str	r3, [r7, #16]
        }
        EXTI->IMR = temp;
 8004204:	4b0e      	ldr	r3, [pc, #56]	@ (8004240 <HAL_GPIO_Init+0x2ec>)
 8004206:	693a      	ldr	r2, [r7, #16]
 8004208:	601a      	str	r2, [r3, #0]
      }
    }

    position++;
 800420a:	697b      	ldr	r3, [r7, #20]
 800420c:	3301      	adds	r3, #1
 800420e:	617b      	str	r3, [r7, #20]
  while (((GPIO_Init->Pin) >> position) != 0x00u)
 8004210:	683b      	ldr	r3, [r7, #0]
 8004212:	681a      	ldr	r2, [r3, #0]
 8004214:	697b      	ldr	r3, [r7, #20]
 8004216:	40da      	lsrs	r2, r3
 8004218:	1e13      	subs	r3, r2, #0
 800421a:	d000      	beq.n	800421e <HAL_GPIO_Init+0x2ca>
 800421c:	e6a2      	b.n	8003f64 <HAL_GPIO_Init+0x10>
  } 
}
 800421e:	46c0      	nop			@ (mov r8, r8)
 8004220:	46c0      	nop			@ (mov r8, r8)
 8004222:	46bd      	mov	sp, r7
 8004224:	b006      	add	sp, #24
 8004226:	bd80      	pop	{r7, pc}
 8004228:	40021000 	.word	0x40021000
 800422c:	40010000 	.word	0x40010000
 8004230:	48000400 	.word	0x48000400
 8004234:	48000800 	.word	0x48000800
 8004238:	48000c00 	.word	0x48000c00
 800423c:	48001000 	.word	0x48001000
 8004240:	40010400 	.word	0x40010400

08004244 <HAL_GPIO_WritePin>:
  *            @arg GPIO_PIN_RESET: to clear the port pin
  *            @arg GPIO_PIN_SET: to set the port pin
  * @retval None
  */
void HAL_GPIO_WritePin(GPIO_TypeDef* GPIOx, uint16_t GPIO_Pin, GPIO_PinState PinState)
{
 8004244:	b580      	push	{r7, lr}
 8004246:	b082      	sub	sp, #8
 8004248:	af00      	add	r7, sp, #0
 800424a:	6078      	str	r0, [r7, #4]
 800424c:	0008      	movs	r0, r1
 800424e:	0011      	movs	r1, r2
 8004250:	1cbb      	adds	r3, r7, #2
 8004252:	1c02      	adds	r2, r0, #0
 8004254:	801a      	strh	r2, [r3, #0]
 8004256:	1c7b      	adds	r3, r7, #1
 8004258:	1c0a      	adds	r2, r1, #0
 800425a:	701a      	strb	r2, [r3, #0]
  /* Check the parameters */
  assert_param(IS_GPIO_PIN(GPIO_Pin));
  assert_param(IS_GPIO_PIN_ACTION(PinState));

  if (PinState != GPIO_PIN_RESET)
 800425c:	1c7b      	adds	r3, r7, #1
 800425e:	781b      	ldrb	r3, [r3, #0]
 8004260:	2b00      	cmp	r3, #0
 8004262:	d004      	beq.n	800426e <HAL_GPIO_WritePin+0x2a>
  {
    GPIOx->BSRR = (uint32_t)GPIO_Pin;
 8004264:	1cbb      	adds	r3, r7, #2
 8004266:	881a      	ldrh	r2, [r3, #0]
 8004268:	687b      	ldr	r3, [r7, #4]
 800426a:	619a      	str	r2, [r3, #24]
  }
  else
  {
    GPIOx->BRR = (uint32_t)GPIO_Pin;
  }
}
 800426c:	e003      	b.n	8004276 <HAL_GPIO_WritePin+0x32>
    GPIOx->BRR = (uint32_t)GPIO_Pin;
 800426e:	1cbb      	adds	r3, r7, #2
 8004270:	881a      	ldrh	r2, [r3, #0]
 8004272:	687b      	ldr	r3, [r7, #4]
 8004274:	629a      	str	r2, [r3, #40]	@ 0x28
}
 8004276:	46c0      	nop			@ (mov r8, r8)
 8004278:	46bd      	mov	sp, r7
 800427a:	b002      	add	sp, #8
 800427c:	bd80      	pop	{r7, pc}
	...

08004280 <HAL_RCC_OscConfig>:
  *         supported by this macro. User should request a transition to HSE Off
  *         first and then HSE On or HSE Bypass.
  * @retval HAL status
  */
HAL_StatusTypeDef HAL_RCC_OscConfig(RCC_OscInitTypeDef  *RCC_OscInitStruct)
{
 8004280:	b580      	push	{r7, lr}
 8004282:	b088      	sub	sp, #32
 8004284:	af00      	add	r7, sp, #0
 8004286:	6078      	str	r0, [r7, #4]
  uint32_t tickstart;
  uint32_t pll_config;
  uint32_t pll_config2;

  /* Check Null pointer */
  if(RCC_OscInitStruct == NULL)
 8004288:	687b      	ldr	r3, [r7, #4]
 800428a:	2b00      	cmp	r3, #0
 800428c:	d102      	bne.n	8004294 <HAL_RCC_OscConfig+0x14>
  {
    return HAL_ERROR;
 800428e:	2301      	movs	r3, #1
 8004290:	f000 fb76 	bl	8004980 <HAL_RCC_OscConfig+0x700>

  /* Check the parameters */
  assert_param(IS_RCC_OSCILLATORTYPE(RCC_OscInitStruct->OscillatorType));

  /*------------------------------- HSE Configuration ------------------------*/ 
  if(((RCC_OscInitStruct->OscillatorType) & RCC_OSCILLATORTYPE_HSE) == RCC_OSCILLATORTYPE_HSE)
 8004294:	687b      	ldr	r3, [r7, #4]
 8004296:	681b      	ldr	r3, [r3, #0]
 8004298:	2201      	movs	r2, #1
 800429a:	4013      	ands	r3, r2
 800429c:	d100      	bne.n	80042a0 <HAL_RCC_OscConfig+0x20>
 800429e:	e08e      	b.n	80043be <HAL_RCC_OscConfig+0x13e>
  {
    /* Check the parameters */
    assert_param(IS_RCC_HSE(RCC_OscInitStruct->HSEState));

    /* When the HSE is used as system clock or clock source for PLL in these cases it is not allowed to be disabled */
    if((__HAL_RCC_GET_SYSCLK_SOURCE() == RCC_SYSCLKSOURCE_STATUS_HSE) 
 80042a0:	4bc5      	ldr	r3, [pc, #788]	@ (80045b8 <HAL_RCC_OscConfig+0x338>)
 80042a2:	685b      	ldr	r3, [r3, #4]
 80042a4:	220c      	movs	r2, #12
 80042a6:	4013      	ands	r3, r2
 80042a8:	2b04      	cmp	r3, #4
 80042aa:	d00e      	beq.n	80042ca <HAL_RCC_OscConfig+0x4a>
       || ((__HAL_RCC_GET_SYSCLK_SOURCE() == RCC_SYSCLKSOURCE_STATUS_PLLCLK) && (__HAL_RCC_GET_PLL_OSCSOURCE() == RCC_PLLSOURCE_HSE)))
 80042ac:	4bc2      	ldr	r3, [pc, #776]	@ (80045b8 <HAL_RCC_OscConfig+0x338>)
 80042ae:	685b      	ldr	r3, [r3, #4]
 80042b0:	220c      	movs	r2, #12
 80042b2:	4013      	ands	r3, r2
 80042b4:	2b08      	cmp	r3, #8
 80042b6:	d117      	bne.n	80042e8 <HAL_RCC_OscConfig+0x68>
 80042b8:	4bbf      	ldr	r3, [pc, #764]	@ (80045b8 <HAL_RCC_OscConfig+0x338>)
 80042ba:	685a      	ldr	r2, [r3, #4]
 80042bc:	23c0      	movs	r3, #192	@ 0xc0
 80042be:	025b      	lsls	r3, r3, #9
 80042c0:	401a      	ands	r2, r3
 80042c2:	2380      	movs	r3, #128	@ 0x80
 80042c4:	025b      	lsls	r3, r3, #9
 80042c6:	429a      	cmp	r2, r3
 80042c8:	d10e      	bne.n	80042e8 <HAL_RCC_OscConfig+0x68>
    {
      if((__HAL_RCC_GET_FLAG(RCC_FLAG_HSERDY) != RESET) && (RCC_OscInitStruct->HSEState == RCC_HSE_OFF))
 80042ca:	4bbb      	ldr	r3, [pc, #748]	@ (80045b8 <HAL_RCC_OscConfig+0x338>)
 80042cc:	681a      	ldr	r2, [r3, #0]
 80042ce:	2380      	movs	r3, #128	@ 0x80
 80042d0:	029b      	lsls	r3, r3, #10
 80042d2:	4013      	ands	r3, r2
 80042d4:	d100      	bne.n	80042d8 <HAL_RCC_OscConfig+0x58>
 80042d6:	e071      	b.n	80043bc <HAL_RCC_OscConfig+0x13c>
 80042d8:	687b      	ldr	r3, [r7, #4]
 80042da:	685b      	ldr	r3, [r3, #4]
 80042dc:	2b00      	cmp	r3, #0
 80042de:	d000      	beq.n	80042e2 <HAL_RCC_OscConfig+0x62>
 80042e0:	e06c      	b.n	80043bc <HAL_RCC_OscConfig+0x13c>
      {
        return HAL_ERROR;
 80042e2:	2301      	movs	r3, #1
 80042e4:	f000 fb4c 	bl	8004980 <HAL_RCC_OscConfig+0x700>
      }
    }
    else
    {
      /* Set the new HSE configuration ---------------------------------------*/
      __HAL_RCC_HSE_CONFIG(RCC_OscInitStruct->HSEState);
 80042e8:	687b      	ldr	r3, [r7, #4]
 80042ea:	685b      	ldr	r3, [r3, #4]
 80042ec:	2b01      	cmp	r3, #1
 80042ee:	d107      	bne.n	8004300 <HAL_RCC_OscConfig+0x80>
 80042f0:	4bb1      	ldr	r3, [pc, #708]	@ (80045b8 <HAL_RCC_OscConfig+0x338>)
 80042f2:	681a      	ldr	r2, [r3, #0]
 80042f4:	4bb0      	ldr	r3, [pc, #704]	@ (80045b8 <HAL_RCC_OscConfig+0x338>)
 80042f6:	2180      	movs	r1, #128	@ 0x80
 80042f8:	0249      	lsls	r1, r1, #9
 80042fa:	430a      	orrs	r2, r1
 80042fc:	601a      	str	r2, [r3, #0]
 80042fe:	e02f      	b.n	8004360 <HAL_RCC_OscConfig+0xe0>
 8004300:	687b      	ldr	r3, [r7, #4]
 8004302:	685b      	ldr	r3, [r3, #4]
 8004304:	2b00      	cmp	r3, #0
 8004306:	d10c      	bne.n	8004322 <HAL_RCC_OscConfig+0xa2>
 8004308:	4bab      	ldr	r3, [pc, #684]	@ (80045b8 <HAL_RCC_OscConfig+0x338>)
 800430a:	681a      	ldr	r2, [r3, #0]
 800430c:	4baa      	ldr	r3, [pc, #680]	@ (80045b8 <HAL_RCC_OscConfig+0x338>)
 800430e:	49ab      	ldr	r1, [pc, #684]	@ (80045bc <HAL_RCC_OscConfig+0x33c>)
 8004310:	400a      	ands	r2, r1
 8004312:	601a      	str	r2, [r3, #0]
 8004314:	4ba8      	ldr	r3, [pc, #672]	@ (80045b8 <HAL_RCC_OscConfig+0x338>)
 8004316:	681a      	ldr	r2, [r3, #0]
 8004318:	4ba7      	ldr	r3, [pc, #668]	@ (80045b8 <HAL_RCC_OscConfig+0x338>)
 800431a:	49a9      	ldr	r1, [pc, #676]	@ (80045c0 <HAL_RCC_OscConfig+0x340>)
 800431c:	400a      	ands	r2, r1
 800431e:	601a      	str	r2, [r3, #0]
 8004320:	e01e      	b.n	8004360 <HAL_RCC_OscConfig+0xe0>
 8004322:	687b      	ldr	r3, [r7, #4]
 8004324:	685b      	ldr	r3, [r3, #4]
 8004326:	2b05      	cmp	r3, #5
 8004328:	d10e      	bne.n	8004348 <HAL_RCC_OscConfig+0xc8>
 800432a:	4ba3      	ldr	r3, [pc, #652]	@ (80045b8 <HAL_RCC_OscConfig+0x338>)
 800432c:	681a      	ldr	r2, [r3, #0]
 800432e:	4ba2      	ldr	r3, [pc, #648]	@ (80045b8 <HAL_RCC_OscConfig+0x338>)
 8004330:	2180      	movs	r1, #128	@ 0x80
 8004332:	02c9      	lsls	r1, r1, #11
 8004334:	430a      	orrs	r2, r1
 8004336:	601a      	str	r2, [r3, #0]
 8004338:	4b9f      	ldr	r3, [pc, #636]	@ (80045b8 <HAL_RCC_OscConfig+0x338>)
 800433a:	681a      	ldr	r2, [r3, #0]
 800433c:	4b9e      	ldr	r3, [pc, #632]	@ (80045b8 <HAL_RCC_OscConfig+0x338>)
 800433e:	2180      	movs	r1, #128	@ 0x80
 8004340:	0249      	lsls	r1, r1, #9
 8004342:	430a      	orrs	r2, r1
 8004344:	601a      	str	r2, [r3, #0]
 8004346:	e00b      	b.n	8004360 <HAL_RCC_OscConfig+0xe0>
 8004348:	4b9b      	ldr	r3, [pc, #620]	@ (80045b8 <HAL_RCC_OscConfig+0x338>)
 800434a:	681a      	ldr	r2, [r3, #0]
 800434c:	4b9a      	ldr	r3, [pc, #616]	@ (80045b8 <HAL_RCC_OscConfig+0x338>)
 800434e:	499b      	ldr	r1, [pc, #620]	@ (80045bc <HAL_RCC_OscConfig+0x33c>)
 8004350:	400a      	ands	r2, r1
 8004352:	601a      	str	r2, [r3, #0]
 8004354:	4b98      	ldr	r3, [pc, #608]	@ (80045b8 <HAL_RCC_OscConfig+0x338>)
 8004356:	681a      	ldr	r2, [r3, #0]
 8004358:	4b97      	ldr	r3, [pc, #604]	@ (80045b8 <HAL_RCC_OscConfig+0x338>)
 800435a:	4999      	ldr	r1, [pc, #612]	@ (80045c0 <HAL_RCC_OscConfig+0x340>)
 800435c:	400a      	ands	r2, r1
 800435e:	601a      	str	r2, [r3, #0]
      

       /* Check the HSE State */
      if(RCC_OscInitStruct->HSEState != RCC_HSE_OFF)
 8004360:	687b      	ldr	r3, [r7, #4]
 8004362:	685b      	ldr	r3, [r3, #4]
 8004364:	2b00      	cmp	r3, #0
 8004366:	d014      	beq.n	8004392 <HAL_RCC_OscConfig+0x112>
      {
        /* Get Start Tick */
        tickstart = HAL_GetTick();
 8004368:	f7fe ff42 	bl	80031f0 <HAL_GetTick>
 800436c:	0003      	movs	r3, r0
 800436e:	61bb      	str	r3, [r7, #24]
        
        /* Wait till HSE is ready */
        while(__HAL_RCC_GET_FLAG(RCC_FLAG_HSERDY) == RESET)
 8004370:	e008      	b.n	8004384 <HAL_RCC_OscConfig+0x104>
        {
          if((HAL_GetTick() - tickstart ) > HSE_TIMEOUT_VALUE)
 8004372:	f7fe ff3d 	bl	80031f0 <HAL_GetTick>
 8004376:	0002      	movs	r2, r0
 8004378:	69bb      	ldr	r3, [r7, #24]
 800437a:	1ad3      	subs	r3, r2, r3
 800437c:	2b64      	cmp	r3, #100	@ 0x64
 800437e:	d901      	bls.n	8004384 <HAL_RCC_OscConfig+0x104>
          {
            return HAL_TIMEOUT;
 8004380:	2303      	movs	r3, #3
 8004382:	e2fd      	b.n	8004980 <HAL_RCC_OscConfig+0x700>
        while(__HAL_RCC_GET_FLAG(RCC_FLAG_HSERDY) == RESET)
 8004384:	4b8c      	ldr	r3, [pc, #560]	@ (80045b8 <HAL_RCC_OscConfig+0x338>)
 8004386:	681a      	ldr	r2, [r3, #0]
 8004388:	2380      	movs	r3, #128	@ 0x80
 800438a:	029b      	lsls	r3, r3, #10
 800438c:	4013      	ands	r3, r2
 800438e:	d0f0      	beq.n	8004372 <HAL_RCC_OscConfig+0xf2>
 8004390:	e015      	b.n	80043be <HAL_RCC_OscConfig+0x13e>
        }
      }
      else
      {
        /* Get Start Tick */
        tickstart = HAL_GetTick();
 8004392:	f7fe ff2d 	bl	80031f0 <HAL_GetTick>
 8004396:	0003      	movs	r3, r0
 8004398:	61bb      	str	r3, [r7, #24]
        
        /* Wait till HSE is disabled */
        while(__HAL_RCC_GET_FLAG(RCC_FLAG_HSERDY) != RESET)
 800439a:	e008      	b.n	80043ae <HAL_RCC_OscConfig+0x12e>
        {
           if((HAL_GetTick() - tickstart ) > HSE_TIMEOUT_VALUE)
 800439c:	f7fe ff28 	bl	80031f0 <HAL_GetTick>
 80043a0:	0002      	movs	r2, r0
 80043a2:	69bb      	ldr	r3, [r7, #24]
 80043a4:	1ad3      	subs	r3, r2, r3
 80043a6:	2b64      	cmp	r3, #100	@ 0x64
 80043a8:	d901      	bls.n	80043ae <HAL_RCC_OscConfig+0x12e>
          {
            return HAL_TIMEOUT;
 80043aa:	2303      	movs	r3, #3
 80043ac:	e2e8      	b.n	8004980 <HAL_RCC_OscConfig+0x700>
        while(__HAL_RCC_GET_FLAG(RCC_FLAG_HSERDY) != RESET)
 80043ae:	4b82      	ldr	r3, [pc, #520]	@ (80045b8 <HAL_RCC_OscConfig+0x338>)
 80043b0:	681a      	ldr	r2, [r3, #0]
 80043b2:	2380      	movs	r3, #128	@ 0x80
 80043b4:	029b      	lsls	r3, r3, #10
 80043b6:	4013      	ands	r3, r2
 80043b8:	d1f0      	bne.n	800439c <HAL_RCC_OscConfig+0x11c>
 80043ba:	e000      	b.n	80043be <HAL_RCC_OscConfig+0x13e>
      if((__HAL_RCC_GET_FLAG(RCC_FLAG_HSERDY) != RESET) && (RCC_OscInitStruct->HSEState == RCC_HSE_OFF))
 80043bc:	46c0      	nop			@ (mov r8, r8)
        }
      }
    }
  }
  /*----------------------------- HSI Configuration --------------------------*/ 
  if(((RCC_OscInitStruct->OscillatorType) & RCC_OSCILLATORTYPE_HSI) == RCC_OSCILLATORTYPE_HSI)
 80043be:	687b      	ldr	r3, [r7, #4]
 80043c0:	681b      	ldr	r3, [r3, #0]
 80043c2:	2202      	movs	r2, #2
 80043c4:	4013      	ands	r3, r2
 80043c6:	d100      	bne.n	80043ca <HAL_RCC_OscConfig+0x14a>
 80043c8:	e06c      	b.n	80044a4 <HAL_RCC_OscConfig+0x224>
    /* Check the parameters */
    assert_param(IS_RCC_HSI(RCC_OscInitStruct->HSIState));
    assert_param(IS_RCC_CALIBRATION_VALUE(RCC_OscInitStruct->HSICalibrationValue));
    
    /* Check if HSI is used as system clock or as PLL source when PLL is selected as system clock */ 
    if((__HAL_RCC_GET_SYSCLK_SOURCE() == RCC_SYSCLKSOURCE_STATUS_HSI) 
 80043ca:	4b7b      	ldr	r3, [pc, #492]	@ (80045b8 <HAL_RCC_OscConfig+0x338>)
 80043cc:	685b      	ldr	r3, [r3, #4]
 80043ce:	220c      	movs	r2, #12
 80043d0:	4013      	ands	r3, r2
 80043d2:	d00e      	beq.n	80043f2 <HAL_RCC_OscConfig+0x172>
       || ((__HAL_RCC_GET_SYSCLK_SOURCE() == RCC_SYSCLKSOURCE_STATUS_PLLCLK) && (__HAL_RCC_GET_PLL_OSCSOURCE() == RCC_PLLSOURCE_HSI)))
 80043d4:	4b78      	ldr	r3, [pc, #480]	@ (80045b8 <HAL_RCC_OscConfig+0x338>)
 80043d6:	685b      	ldr	r3, [r3, #4]
 80043d8:	220c      	movs	r2, #12
 80043da:	4013      	ands	r3, r2
 80043dc:	2b08      	cmp	r3, #8
 80043de:	d11f      	bne.n	8004420 <HAL_RCC_OscConfig+0x1a0>
 80043e0:	4b75      	ldr	r3, [pc, #468]	@ (80045b8 <HAL_RCC_OscConfig+0x338>)
 80043e2:	685a      	ldr	r2, [r3, #4]
 80043e4:	23c0      	movs	r3, #192	@ 0xc0
 80043e6:	025b      	lsls	r3, r3, #9
 80043e8:	401a      	ands	r2, r3
 80043ea:	2380      	movs	r3, #128	@ 0x80
 80043ec:	021b      	lsls	r3, r3, #8
 80043ee:	429a      	cmp	r2, r3
 80043f0:	d116      	bne.n	8004420 <HAL_RCC_OscConfig+0x1a0>
    {
      /* When HSI is used as system clock it will not disabled */
      if((__HAL_RCC_GET_FLAG(RCC_FLAG_HSIRDY) != RESET) && (RCC_OscInitStruct->HSIState != RCC_HSI_ON))
 80043f2:	4b71      	ldr	r3, [pc, #452]	@ (80045b8 <HAL_RCC_OscConfig+0x338>)
 80043f4:	681b      	ldr	r3, [r3, #0]
 80043f6:	2202      	movs	r2, #2
 80043f8:	4013      	ands	r3, r2
 80043fa:	d005      	beq.n	8004408 <HAL_RCC_OscConfig+0x188>
 80043fc:	687b      	ldr	r3, [r7, #4]
 80043fe:	68db      	ldr	r3, [r3, #12]
 8004400:	2b01      	cmp	r3, #1
 8004402:	d001      	beq.n	8004408 <HAL_RCC_OscConfig+0x188>
      {
        return HAL_ERROR;
 8004404:	2301      	movs	r3, #1
 8004406:	e2bb      	b.n	8004980 <HAL_RCC_OscConfig+0x700>
      }
      /* Otherwise, just the calibration is allowed */
      else
      {
        /* Adjusts the Internal High Speed oscillator (HSI) calibration value.*/
        __HAL_RCC_HSI_CALIBRATIONVALUE_ADJUST(RCC_OscInitStruct->HSICalibrationValue);
 8004408:	4b6b      	ldr	r3, [pc, #428]	@ (80045b8 <HAL_RCC_OscConfig+0x338>)
 800440a:	681b      	ldr	r3, [r3, #0]
 800440c:	22f8      	movs	r2, #248	@ 0xf8
 800440e:	4393      	bics	r3, r2
 8004410:	0019      	movs	r1, r3
 8004412:	687b      	ldr	r3, [r7, #4]
 8004414:	691b      	ldr	r3, [r3, #16]
 8004416:	00da      	lsls	r2, r3, #3
 8004418:	4b67      	ldr	r3, [pc, #412]	@ (80045b8 <HAL_RCC_OscConfig+0x338>)
 800441a:	430a      	orrs	r2, r1
 800441c:	601a      	str	r2, [r3, #0]
      if((__HAL_RCC_GET_FLAG(RCC_FLAG_HSIRDY) != RESET) && (RCC_OscInitStruct->HSIState != RCC_HSI_ON))
 800441e:	e041      	b.n	80044a4 <HAL_RCC_OscConfig+0x224>
      }
    }
    else
    {
      /* Check the HSI State */
      if(RCC_OscInitStruct->HSIState != RCC_HSI_OFF)
 8004420:	687b      	ldr	r3, [r7, #4]
 8004422:	68db      	ldr	r3, [r3, #12]
 8004424:	2b00      	cmp	r3, #0
 8004426:	d024      	beq.n	8004472 <HAL_RCC_OscConfig+0x1f2>
      {
       /* Enable the Internal High Speed oscillator (HSI). */
        __HAL_RCC_HSI_ENABLE();
 8004428:	4b63      	ldr	r3, [pc, #396]	@ (80045b8 <HAL_RCC_OscConfig+0x338>)
 800442a:	681a      	ldr	r2, [r3, #0]
 800442c:	4b62      	ldr	r3, [pc, #392]	@ (80045b8 <HAL_RCC_OscConfig+0x338>)
 800442e:	2101      	movs	r1, #1
 8004430:	430a      	orrs	r2, r1
 8004432:	601a      	str	r2, [r3, #0]
        
        /* Get Start Tick */
        tickstart = HAL_GetTick();
 8004434:	f7fe fedc 	bl	80031f0 <HAL_GetTick>
 8004438:	0003      	movs	r3, r0
 800443a:	61bb      	str	r3, [r7, #24]
        
        /* Wait till HSI is ready */
        while(__HAL_RCC_GET_FLAG(RCC_FLAG_HSIRDY) == RESET)
 800443c:	e008      	b.n	8004450 <HAL_RCC_OscConfig+0x1d0>
        {
          if((HAL_GetTick() - tickstart ) > HSI_TIMEOUT_VALUE)
 800443e:	f7fe fed7 	bl	80031f0 <HAL_GetTick>
 8004442:	0002      	movs	r2, r0
 8004444:	69bb      	ldr	r3, [r7, #24]
 8004446:	1ad3      	subs	r3, r2, r3
 8004448:	2b02      	cmp	r3, #2
 800444a:	d901      	bls.n	8004450 <HAL_RCC_OscConfig+0x1d0>
          {
            return HAL_TIMEOUT;
 800444c:	2303      	movs	r3, #3
 800444e:	e297      	b.n	8004980 <HAL_RCC_OscConfig+0x700>
        while(__HAL_RCC_GET_FLAG(RCC_FLAG_HSIRDY) == RESET)
 8004450:	4b59      	ldr	r3, [pc, #356]	@ (80045b8 <HAL_RCC_OscConfig+0x338>)
 8004452:	681b      	ldr	r3, [r3, #0]
 8004454:	2202      	movs	r2, #2
 8004456:	4013      	ands	r3, r2
 8004458:	d0f1      	beq.n	800443e <HAL_RCC_OscConfig+0x1be>
          }
        }
                
        /* Adjusts the Internal High Speed oscillator (HSI) calibration value.*/
        __HAL_RCC_HSI_CALIBRATIONVALUE_ADJUST(RCC_OscInitStruct->HSICalibrationValue);
 800445a:	4b57      	ldr	r3, [pc, #348]	@ (80045b8 <HAL_RCC_OscConfig+0x338>)
 800445c:	681b      	ldr	r3, [r3, #0]
 800445e:	22f8      	movs	r2, #248	@ 0xf8
 8004460:	4393      	bics	r3, r2
 8004462:	0019      	movs	r1, r3
 8004464:	687b      	ldr	r3, [r7, #4]
 8004466:	691b      	ldr	r3, [r3, #16]
 8004468:	00da      	lsls	r2, r3, #3
 800446a:	4b53      	ldr	r3, [pc, #332]	@ (80045b8 <HAL_RCC_OscConfig+0x338>)
 800446c:	430a      	orrs	r2, r1
 800446e:	601a      	str	r2, [r3, #0]
 8004470:	e018      	b.n	80044a4 <HAL_RCC_OscConfig+0x224>
      }
      else
      {
        /* Disable the Internal High Speed oscillator (HSI). */
        __HAL_RCC_HSI_DISABLE();
 8004472:	4b51      	ldr	r3, [pc, #324]	@ (80045b8 <HAL_RCC_OscConfig+0x338>)
 8004474:	681a      	ldr	r2, [r3, #0]
 8004476:	4b50      	ldr	r3, [pc, #320]	@ (80045b8 <HAL_RCC_OscConfig+0x338>)
 8004478:	2101      	movs	r1, #1
 800447a:	438a      	bics	r2, r1
 800447c:	601a      	str	r2, [r3, #0]
        
        /* Get Start Tick */
        tickstart = HAL_GetTick();
 800447e:	f7fe feb7 	bl	80031f0 <HAL_GetTick>
 8004482:	0003      	movs	r3, r0
 8004484:	61bb      	str	r3, [r7, #24]
        
        /* Wait till HSI is disabled */
        while(__HAL_RCC_GET_FLAG(RCC_FLAG_HSIRDY) != RESET)
 8004486:	e008      	b.n	800449a <HAL_RCC_OscConfig+0x21a>
        {
          if((HAL_GetTick() - tickstart ) > HSI_TIMEOUT_VALUE)
 8004488:	f7fe feb2 	bl	80031f0 <HAL_GetTick>
 800448c:	0002      	movs	r2, r0
 800448e:	69bb      	ldr	r3, [r7, #24]
 8004490:	1ad3      	subs	r3, r2, r3
 8004492:	2b02      	cmp	r3, #2
 8004494:	d901      	bls.n	800449a <HAL_RCC_OscConfig+0x21a>
          {
            return HAL_TIMEOUT;
 8004496:	2303      	movs	r3, #3
 8004498:	e272      	b.n	8004980 <HAL_RCC_OscConfig+0x700>
        while(__HAL_RCC_GET_FLAG(RCC_FLAG_HSIRDY) != RESET)
 800449a:	4b47      	ldr	r3, [pc, #284]	@ (80045b8 <HAL_RCC_OscConfig+0x338>)
 800449c:	681b      	ldr	r3, [r3, #0]
 800449e:	2202      	movs	r2, #2
 80044a0:	4013      	ands	r3, r2
 80044a2:	d1f1      	bne.n	8004488 <HAL_RCC_OscConfig+0x208>
        }
      }
    }
  }
  /*------------------------------ LSI Configuration -------------------------*/ 
  if(((RCC_OscInitStruct->OscillatorType) & RCC_OSCILLATORTYPE_LSI) == RCC_OSCILLATORTYPE_LSI)
 80044a4:	687b      	ldr	r3, [r7, #4]
 80044a6:	681b      	ldr	r3, [r3, #0]
 80044a8:	2208      	movs	r2, #8
 80044aa:	4013      	ands	r3, r2
 80044ac:	d036      	beq.n	800451c <HAL_RCC_OscConfig+0x29c>
  {
    /* Check the parameters */
    assert_param(IS_RCC_LSI(RCC_OscInitStruct->LSIState));
    
    /* Check the LSI State */
    if(RCC_OscInitStruct->LSIState != RCC_LSI_OFF)
 80044ae:	687b      	ldr	r3, [r7, #4]
 80044b0:	69db      	ldr	r3, [r3, #28]
 80044b2:	2b00      	cmp	r3, #0
 80044b4:	d019      	beq.n	80044ea <HAL_RCC_OscConfig+0x26a>
    {
      /* Enable the Internal Low Speed oscillator (LSI). */
      __HAL_RCC_LSI_ENABLE();
 80044b6:	4b40      	ldr	r3, [pc, #256]	@ (80045b8 <HAL_RCC_OscConfig+0x338>)
 80044b8:	6a5a      	ldr	r2, [r3, #36]	@ 0x24
 80044ba:	4b3f      	ldr	r3, [pc, #252]	@ (80045b8 <HAL_RCC_OscConfig+0x338>)
 80044bc:	2101      	movs	r1, #1
 80044be:	430a      	orrs	r2, r1
 80044c0:	625a      	str	r2, [r3, #36]	@ 0x24
      
      /* Get Start Tick */
      tickstart = HAL_GetTick();
 80044c2:	f7fe fe95 	bl	80031f0 <HAL_GetTick>
 80044c6:	0003      	movs	r3, r0
 80044c8:	61bb      	str	r3, [r7, #24]
      
      /* Wait till LSI is ready */  
      while(__HAL_RCC_GET_FLAG(RCC_FLAG_LSIRDY) == RESET)
 80044ca:	e008      	b.n	80044de <HAL_RCC_OscConfig+0x25e>
      {
        if((HAL_GetTick() - tickstart ) > LSI_TIMEOUT_VALUE)
 80044cc:	f7fe fe90 	bl	80031f0 <HAL_GetTick>
 80044d0:	0002      	movs	r2, r0
 80044d2:	69bb      	ldr	r3, [r7, #24]
 80044d4:	1ad3      	subs	r3, r2, r3
 80044d6:	2b02      	cmp	r3, #2
 80044d8:	d901      	bls.n	80044de <HAL_RCC_OscConfig+0x25e>
        {
          return HAL_TIMEOUT;
 80044da:	2303      	movs	r3, #3
 80044dc:	e250      	b.n	8004980 <HAL_RCC_OscConfig+0x700>
      while(__HAL_RCC_GET_FLAG(RCC_FLAG_LSIRDY) == RESET)
 80044de:	4b36      	ldr	r3, [pc, #216]	@ (80045b8 <HAL_RCC_OscConfig+0x338>)
 80044e0:	6a5b      	ldr	r3, [r3, #36]	@ 0x24
 80044e2:	2202      	movs	r2, #2
 80044e4:	4013      	ands	r3, r2
 80044e6:	d0f1      	beq.n	80044cc <HAL_RCC_OscConfig+0x24c>
 80044e8:	e018      	b.n	800451c <HAL_RCC_OscConfig+0x29c>
      }
    }
    else
    {
      /* Disable the Internal Low Speed oscillator (LSI). */
      __HAL_RCC_LSI_DISABLE();
 80044ea:	4b33      	ldr	r3, [pc, #204]	@ (80045b8 <HAL_RCC_OscConfig+0x338>)
 80044ec:	6a5a      	ldr	r2, [r3, #36]	@ 0x24
 80044ee:	4b32      	ldr	r3, [pc, #200]	@ (80045b8 <HAL_RCC_OscConfig+0x338>)
 80044f0:	2101      	movs	r1, #1
 80044f2:	438a      	bics	r2, r1
 80044f4:	625a      	str	r2, [r3, #36]	@ 0x24
      
      /* Get Start Tick */
      tickstart = HAL_GetTick();
 80044f6:	f7fe fe7b 	bl	80031f0 <HAL_GetTick>
 80044fa:	0003      	movs	r3, r0
 80044fc:	61bb      	str	r3, [r7, #24]
      
      /* Wait till LSI is disabled */  
      while(__HAL_RCC_GET_FLAG(RCC_FLAG_LSIRDY) != RESET)
 80044fe:	e008      	b.n	8004512 <HAL_RCC_OscConfig+0x292>
      {
        if((HAL_GetTick() - tickstart ) > LSI_TIMEOUT_VALUE)
 8004500:	f7fe fe76 	bl	80031f0 <HAL_GetTick>
 8004504:	0002      	movs	r2, r0
 8004506:	69bb      	ldr	r3, [r7, #24]
 8004508:	1ad3      	subs	r3, r2, r3
 800450a:	2b02      	cmp	r3, #2
 800450c:	d901      	bls.n	8004512 <HAL_RCC_OscConfig+0x292>
        {
          return HAL_TIMEOUT;
 800450e:	2303      	movs	r3, #3
 8004510:	e236      	b.n	8004980 <HAL_RCC_OscConfig+0x700>
      while(__HAL_RCC_GET_FLAG(RCC_FLAG_LSIRDY) != RESET)
 8004512:	4b29      	ldr	r3, [pc, #164]	@ (80045b8 <HAL_RCC_OscConfig+0x338>)
 8004514:	6a5b      	ldr	r3, [r3, #36]	@ 0x24
 8004516:	2202      	movs	r2, #2
 8004518:	4013      	ands	r3, r2
 800451a:	d1f1      	bne.n	8004500 <HAL_RCC_OscConfig+0x280>
        }
      }
    }
  }
  /*------------------------------ LSE Configuration -------------------------*/ 
  if(((RCC_OscInitStruct->OscillatorType) & RCC_OSCILLATORTYPE_LSE) == RCC_OSCILLATORTYPE_LSE)
 800451c:	687b      	ldr	r3, [r7, #4]
 800451e:	681b      	ldr	r3, [r3, #0]
 8004520:	2204      	movs	r2, #4
 8004522:	4013      	ands	r3, r2
 8004524:	d100      	bne.n	8004528 <HAL_RCC_OscConfig+0x2a8>
 8004526:	e0b5      	b.n	8004694 <HAL_RCC_OscConfig+0x414>
  {
    FlagStatus       pwrclkchanged = RESET;
 8004528:	201f      	movs	r0, #31
 800452a:	183b      	adds	r3, r7, r0
 800452c:	2200      	movs	r2, #0
 800452e:	701a      	strb	r2, [r3, #0]
    /* Check the parameters */
    assert_param(IS_RCC_LSE(RCC_OscInitStruct->LSEState));

    /* Update LSE configuration in Backup Domain control register    */
    /* Requires to enable write access to Backup Domain of necessary */
    if(__HAL_RCC_PWR_IS_CLK_DISABLED())
 8004530:	4b21      	ldr	r3, [pc, #132]	@ (80045b8 <HAL_RCC_OscConfig+0x338>)
 8004532:	69da      	ldr	r2, [r3, #28]
 8004534:	2380      	movs	r3, #128	@ 0x80
 8004536:	055b      	lsls	r3, r3, #21
 8004538:	4013      	ands	r3, r2
 800453a:	d110      	bne.n	800455e <HAL_RCC_OscConfig+0x2de>
    {
      __HAL_RCC_PWR_CLK_ENABLE();
 800453c:	4b1e      	ldr	r3, [pc, #120]	@ (80045b8 <HAL_RCC_OscConfig+0x338>)
 800453e:	69da      	ldr	r2, [r3, #28]
 8004540:	4b1d      	ldr	r3, [pc, #116]	@ (80045b8 <HAL_RCC_OscConfig+0x338>)
 8004542:	2180      	movs	r1, #128	@ 0x80
 8004544:	0549      	lsls	r1, r1, #21
 8004546:	430a      	orrs	r2, r1
 8004548:	61da      	str	r2, [r3, #28]
 800454a:	4b1b      	ldr	r3, [pc, #108]	@ (80045b8 <HAL_RCC_OscConfig+0x338>)
 800454c:	69da      	ldr	r2, [r3, #28]
 800454e:	2380      	movs	r3, #128	@ 0x80
 8004550:	055b      	lsls	r3, r3, #21
 8004552:	4013      	ands	r3, r2
 8004554:	60fb      	str	r3, [r7, #12]
 8004556:	68fb      	ldr	r3, [r7, #12]
      pwrclkchanged = SET;
 8004558:	183b      	adds	r3, r7, r0
 800455a:	2201      	movs	r2, #1
 800455c:	701a      	strb	r2, [r3, #0]
    }
    
    if(HAL_IS_BIT_CLR(PWR->CR, PWR_CR_DBP))
 800455e:	4b19      	ldr	r3, [pc, #100]	@ (80045c4 <HAL_RCC_OscConfig+0x344>)
 8004560:	681a      	ldr	r2, [r3, #0]
 8004562:	2380      	movs	r3, #128	@ 0x80
 8004564:	005b      	lsls	r3, r3, #1
 8004566:	4013      	ands	r3, r2
 8004568:	d11a      	bne.n	80045a0 <HAL_RCC_OscConfig+0x320>
    {
      /* Enable write access to Backup domain */
      SET_BIT(PWR->CR, PWR_CR_DBP);
 800456a:	4b16      	ldr	r3, [pc, #88]	@ (80045c4 <HAL_RCC_OscConfig+0x344>)
 800456c:	681a      	ldr	r2, [r3, #0]
 800456e:	4b15      	ldr	r3, [pc, #84]	@ (80045c4 <HAL_RCC_OscConfig+0x344>)
 8004570:	2180      	movs	r1, #128	@ 0x80
 8004572:	0049      	lsls	r1, r1, #1
 8004574:	430a      	orrs	r2, r1
 8004576:	601a      	str	r2, [r3, #0]
      
      /* Wait for Backup domain Write protection disable */
      tickstart = HAL_GetTick();
 8004578:	f7fe fe3a 	bl	80031f0 <HAL_GetTick>
 800457c:	0003      	movs	r3, r0
 800457e:	61bb      	str	r3, [r7, #24]

      while(HAL_IS_BIT_CLR(PWR->CR, PWR_CR_DBP))
 8004580:	e008      	b.n	8004594 <HAL_RCC_OscConfig+0x314>
      {
        if((HAL_GetTick() - tickstart) > RCC_DBP_TIMEOUT_VALUE)
 8004582:	f7fe fe35 	bl	80031f0 <HAL_GetTick>
 8004586:	0002      	movs	r2, r0
 8004588:	69bb      	ldr	r3, [r7, #24]
 800458a:	1ad3      	subs	r3, r2, r3
 800458c:	2b64      	cmp	r3, #100	@ 0x64
 800458e:	d901      	bls.n	8004594 <HAL_RCC_OscConfig+0x314>
        {
          return HAL_TIMEOUT;
 8004590:	2303      	movs	r3, #3
 8004592:	e1f5      	b.n	8004980 <HAL_RCC_OscConfig+0x700>
      while(HAL_IS_BIT_CLR(PWR->CR, PWR_CR_DBP))
 8004594:	4b0b      	ldr	r3, [pc, #44]	@ (80045c4 <HAL_RCC_OscConfig+0x344>)
 8004596:	681a      	ldr	r2, [r3, #0]
 8004598:	2380      	movs	r3, #128	@ 0x80
 800459a:	005b      	lsls	r3, r3, #1
 800459c:	4013      	ands	r3, r2
 800459e:	d0f0      	beq.n	8004582 <HAL_RCC_OscConfig+0x302>
        }
      }
    }

    /* Set the new LSE configuration -----------------------------------------*/
    __HAL_RCC_LSE_CONFIG(RCC_OscInitStruct->LSEState);
 80045a0:	687b      	ldr	r3, [r7, #4]
 80045a2:	689b      	ldr	r3, [r3, #8]
 80045a4:	2b01      	cmp	r3, #1
 80045a6:	d10f      	bne.n	80045c8 <HAL_RCC_OscConfig+0x348>
 80045a8:	4b03      	ldr	r3, [pc, #12]	@ (80045b8 <HAL_RCC_OscConfig+0x338>)
 80045aa:	6a1a      	ldr	r2, [r3, #32]
 80045ac:	4b02      	ldr	r3, [pc, #8]	@ (80045b8 <HAL_RCC_OscConfig+0x338>)
 80045ae:	2101      	movs	r1, #1
 80045b0:	430a      	orrs	r2, r1
 80045b2:	621a      	str	r2, [r3, #32]
 80045b4:	e036      	b.n	8004624 <HAL_RCC_OscConfig+0x3a4>
 80045b6:	46c0      	nop			@ (mov r8, r8)
 80045b8:	40021000 	.word	0x40021000
 80045bc:	fffeffff 	.word	0xfffeffff
 80045c0:	fffbffff 	.word	0xfffbffff
 80045c4:	40007000 	.word	0x40007000
 80045c8:	687b      	ldr	r3, [r7, #4]
 80045ca:	689b      	ldr	r3, [r3, #8]
 80045cc:	2b00      	cmp	r3, #0
 80045ce:	d10c      	bne.n	80045ea <HAL_RCC_OscConfig+0x36a>
 80045d0:	4bca      	ldr	r3, [pc, #808]	@ (80048fc <HAL_RCC_OscConfig+0x67c>)
 80045d2:	6a1a      	ldr	r2, [r3, #32]
 80045d4:	4bc9      	ldr	r3, [pc, #804]	@ (80048fc <HAL_RCC_OscConfig+0x67c>)
 80045d6:	2101      	movs	r1, #1
 80045d8:	438a      	bics	r2, r1
 80045da:	621a      	str	r2, [r3, #32]
 80045dc:	4bc7      	ldr	r3, [pc, #796]	@ (80048fc <HAL_RCC_OscConfig+0x67c>)
 80045de:	6a1a      	ldr	r2, [r3, #32]
 80045e0:	4bc6      	ldr	r3, [pc, #792]	@ (80048fc <HAL_RCC_OscConfig+0x67c>)
 80045e2:	2104      	movs	r1, #4
 80045e4:	438a      	bics	r2, r1
 80045e6:	621a      	str	r2, [r3, #32]
 80045e8:	e01c      	b.n	8004624 <HAL_RCC_OscConfig+0x3a4>
 80045ea:	687b      	ldr	r3, [r7, #4]
 80045ec:	689b      	ldr	r3, [r3, #8]
 80045ee:	2b05      	cmp	r3, #5
 80045f0:	d10c      	bne.n	800460c <HAL_RCC_OscConfig+0x38c>
 80045f2:	4bc2      	ldr	r3, [pc, #776]	@ (80048fc <HAL_RCC_OscConfig+0x67c>)
 80045f4:	6a1a      	ldr	r2, [r3, #32]
 80045f6:	4bc1      	ldr	r3, [pc, #772]	@ (80048fc <HAL_RCC_OscConfig+0x67c>)
 80045f8:	2104      	movs	r1, #4
 80045fa:	430a      	orrs	r2, r1
 80045fc:	621a      	str	r2, [r3, #32]
 80045fe:	4bbf      	ldr	r3, [pc, #764]	@ (80048fc <HAL_RCC_OscConfig+0x67c>)
 8004600:	6a1a      	ldr	r2, [r3, #32]
 8004602:	4bbe      	ldr	r3, [pc, #760]	@ (80048fc <HAL_RCC_OscConfig+0x67c>)
 8004604:	2101      	movs	r1, #1
 8004606:	430a      	orrs	r2, r1
 8004608:	621a      	str	r2, [r3, #32]
 800460a:	e00b      	b.n	8004624 <HAL_RCC_OscConfig+0x3a4>
 800460c:	4bbb      	ldr	r3, [pc, #748]	@ (80048fc <HAL_RCC_OscConfig+0x67c>)
 800460e:	6a1a      	ldr	r2, [r3, #32]
 8004610:	4bba      	ldr	r3, [pc, #744]	@ (80048fc <HAL_RCC_OscConfig+0x67c>)
 8004612:	2101      	movs	r1, #1
 8004614:	438a      	bics	r2, r1
 8004616:	621a      	str	r2, [r3, #32]
 8004618:	4bb8      	ldr	r3, [pc, #736]	@ (80048fc <HAL_RCC_OscConfig+0x67c>)
 800461a:	6a1a      	ldr	r2, [r3, #32]
 800461c:	4bb7      	ldr	r3, [pc, #732]	@ (80048fc <HAL_RCC_OscConfig+0x67c>)
 800461e:	2104      	movs	r1, #4
 8004620:	438a      	bics	r2, r1
 8004622:	621a      	str	r2, [r3, #32]
    /* Check the LSE State */
    if(RCC_OscInitStruct->LSEState != RCC_LSE_OFF)
 8004624:	687b      	ldr	r3, [r7, #4]
 8004626:	689b      	ldr	r3, [r3, #8]
 8004628:	2b00      	cmp	r3, #0
 800462a:	d014      	beq.n	8004656 <HAL_RCC_OscConfig+0x3d6>
    {
      /* Get Start Tick */
      tickstart = HAL_GetTick();
 800462c:	f7fe fde0 	bl	80031f0 <HAL_GetTick>
 8004630:	0003      	movs	r3, r0
 8004632:	61bb      	str	r3, [r7, #24]
      
      /* Wait till LSE is ready */  
      while(__HAL_RCC_GET_FLAG(RCC_FLAG_LSERDY) == RESET)
 8004634:	e009      	b.n	800464a <HAL_RCC_OscConfig+0x3ca>
      {
        if((HAL_GetTick() - tickstart ) > RCC_LSE_TIMEOUT_VALUE)
 8004636:	f7fe fddb 	bl	80031f0 <HAL_GetTick>
 800463a:	0002      	movs	r2, r0
 800463c:	69bb      	ldr	r3, [r7, #24]
 800463e:	1ad3      	subs	r3, r2, r3
 8004640:	4aaf      	ldr	r2, [pc, #700]	@ (8004900 <HAL_RCC_OscConfig+0x680>)
 8004642:	4293      	cmp	r3, r2
 8004644:	d901      	bls.n	800464a <HAL_RCC_OscConfig+0x3ca>
        {
          return HAL_TIMEOUT;
 8004646:	2303      	movs	r3, #3
 8004648:	e19a      	b.n	8004980 <HAL_RCC_OscConfig+0x700>
      while(__HAL_RCC_GET_FLAG(RCC_FLAG_LSERDY) == RESET)
 800464a:	4bac      	ldr	r3, [pc, #688]	@ (80048fc <HAL_RCC_OscConfig+0x67c>)
 800464c:	6a1b      	ldr	r3, [r3, #32]
 800464e:	2202      	movs	r2, #2
 8004650:	4013      	ands	r3, r2
 8004652:	d0f0      	beq.n	8004636 <HAL_RCC_OscConfig+0x3b6>
 8004654:	e013      	b.n	800467e <HAL_RCC_OscConfig+0x3fe>
      }
    }
    else
    {
      /* Get Start Tick */
      tickstart = HAL_GetTick();
 8004656:	f7fe fdcb 	bl	80031f0 <HAL_GetTick>
 800465a:	0003      	movs	r3, r0
 800465c:	61bb      	str	r3, [r7, #24]
      
      /* Wait till LSE is disabled */  
      while(__HAL_RCC_GET_FLAG(RCC_FLAG_LSERDY) != RESET)
 800465e:	e009      	b.n	8004674 <HAL_RCC_OscConfig+0x3f4>
      {
        if((HAL_GetTick() - tickstart ) > RCC_LSE_TIMEOUT_VALUE)
 8004660:	f7fe fdc6 	bl	80031f0 <HAL_GetTick>
 8004664:	0002      	movs	r2, r0
 8004666:	69bb      	ldr	r3, [r7, #24]
 8004668:	1ad3      	subs	r3, r2, r3
 800466a:	4aa5      	ldr	r2, [pc, #660]	@ (8004900 <HAL_RCC_OscConfig+0x680>)
 800466c:	4293      	cmp	r3, r2
 800466e:	d901      	bls.n	8004674 <HAL_RCC_OscConfig+0x3f4>
        {
          return HAL_TIMEOUT;
 8004670:	2303      	movs	r3, #3
 8004672:	e185      	b.n	8004980 <HAL_RCC_OscConfig+0x700>
      while(__HAL_RCC_GET_FLAG(RCC_FLAG_LSERDY) != RESET)
 8004674:	4ba1      	ldr	r3, [pc, #644]	@ (80048fc <HAL_RCC_OscConfig+0x67c>)
 8004676:	6a1b      	ldr	r3, [r3, #32]
 8004678:	2202      	movs	r2, #2
 800467a:	4013      	ands	r3, r2
 800467c:	d1f0      	bne.n	8004660 <HAL_RCC_OscConfig+0x3e0>
        }
      }
    }

    /* Require to disable power clock if necessary */
    if(pwrclkchanged == SET)
 800467e:	231f      	movs	r3, #31
 8004680:	18fb      	adds	r3, r7, r3
 8004682:	781b      	ldrb	r3, [r3, #0]
 8004684:	2b01      	cmp	r3, #1
 8004686:	d105      	bne.n	8004694 <HAL_RCC_OscConfig+0x414>
    {
      __HAL_RCC_PWR_CLK_DISABLE();
 8004688:	4b9c      	ldr	r3, [pc, #624]	@ (80048fc <HAL_RCC_OscConfig+0x67c>)
 800468a:	69da      	ldr	r2, [r3, #28]
 800468c:	4b9b      	ldr	r3, [pc, #620]	@ (80048fc <HAL_RCC_OscConfig+0x67c>)
 800468e:	499d      	ldr	r1, [pc, #628]	@ (8004904 <HAL_RCC_OscConfig+0x684>)
 8004690:	400a      	ands	r2, r1
 8004692:	61da      	str	r2, [r3, #28]
    }
  }

  /*----------------------------- HSI14 Configuration --------------------------*/
  if(((RCC_OscInitStruct->OscillatorType) & RCC_OSCILLATORTYPE_HSI14) == RCC_OSCILLATORTYPE_HSI14)
 8004694:	687b      	ldr	r3, [r7, #4]
 8004696:	681b      	ldr	r3, [r3, #0]
 8004698:	2210      	movs	r2, #16
 800469a:	4013      	ands	r3, r2
 800469c:	d063      	beq.n	8004766 <HAL_RCC_OscConfig+0x4e6>
    /* Check the parameters */
    assert_param(IS_RCC_HSI14(RCC_OscInitStruct->HSI14State));
    assert_param(IS_RCC_CALIBRATION_VALUE(RCC_OscInitStruct->HSI14CalibrationValue));

    /* Check the HSI14 State */
    if(RCC_OscInitStruct->HSI14State == RCC_HSI14_ON)
 800469e:	687b      	ldr	r3, [r7, #4]
 80046a0:	695b      	ldr	r3, [r3, #20]
 80046a2:	2b01      	cmp	r3, #1
 80046a4:	d12a      	bne.n	80046fc <HAL_RCC_OscConfig+0x47c>
    {
      /* Disable ADC control of the Internal High Speed oscillator HSI14 */
      __HAL_RCC_HSI14ADC_DISABLE();
 80046a6:	4b95      	ldr	r3, [pc, #596]	@ (80048fc <HAL_RCC_OscConfig+0x67c>)
 80046a8:	6b5a      	ldr	r2, [r3, #52]	@ 0x34
 80046aa:	4b94      	ldr	r3, [pc, #592]	@ (80048fc <HAL_RCC_OscConfig+0x67c>)
 80046ac:	2104      	movs	r1, #4
 80046ae:	430a      	orrs	r2, r1
 80046b0:	635a      	str	r2, [r3, #52]	@ 0x34

      /* Enable the Internal High Speed oscillator (HSI). */
      __HAL_RCC_HSI14_ENABLE();
 80046b2:	4b92      	ldr	r3, [pc, #584]	@ (80048fc <HAL_RCC_OscConfig+0x67c>)
 80046b4:	6b5a      	ldr	r2, [r3, #52]	@ 0x34
 80046b6:	4b91      	ldr	r3, [pc, #580]	@ (80048fc <HAL_RCC_OscConfig+0x67c>)
 80046b8:	2101      	movs	r1, #1
 80046ba:	430a      	orrs	r2, r1
 80046bc:	635a      	str	r2, [r3, #52]	@ 0x34

      /* Get Start Tick */
      tickstart = HAL_GetTick();
 80046be:	f7fe fd97 	bl	80031f0 <HAL_GetTick>
 80046c2:	0003      	movs	r3, r0
 80046c4:	61bb      	str	r3, [r7, #24]
      
      /* Wait till HSI is ready */  
      while(__HAL_RCC_GET_FLAG(RCC_FLAG_HSI14RDY) == RESET)
 80046c6:	e008      	b.n	80046da <HAL_RCC_OscConfig+0x45a>
      {
        if((HAL_GetTick() - tickstart) > HSI14_TIMEOUT_VALUE)
 80046c8:	f7fe fd92 	bl	80031f0 <HAL_GetTick>
 80046cc:	0002      	movs	r2, r0
 80046ce:	69bb      	ldr	r3, [r7, #24]
 80046d0:	1ad3      	subs	r3, r2, r3
 80046d2:	2b02      	cmp	r3, #2
 80046d4:	d901      	bls.n	80046da <HAL_RCC_OscConfig+0x45a>
        {
          return HAL_TIMEOUT;
 80046d6:	2303      	movs	r3, #3
 80046d8:	e152      	b.n	8004980 <HAL_RCC_OscConfig+0x700>
      while(__HAL_RCC_GET_FLAG(RCC_FLAG_HSI14RDY) == RESET)
 80046da:	4b88      	ldr	r3, [pc, #544]	@ (80048fc <HAL_RCC_OscConfig+0x67c>)
 80046dc:	6b5b      	ldr	r3, [r3, #52]	@ 0x34
 80046de:	2202      	movs	r2, #2
 80046e0:	4013      	ands	r3, r2
 80046e2:	d0f1      	beq.n	80046c8 <HAL_RCC_OscConfig+0x448>
        }      
      } 

      /* Adjusts the Internal High Speed oscillator 14Mhz (HSI14) calibration value. */
      __HAL_RCC_HSI14_CALIBRATIONVALUE_ADJUST(RCC_OscInitStruct->HSI14CalibrationValue);
 80046e4:	4b85      	ldr	r3, [pc, #532]	@ (80048fc <HAL_RCC_OscConfig+0x67c>)
 80046e6:	6b5b      	ldr	r3, [r3, #52]	@ 0x34
 80046e8:	22f8      	movs	r2, #248	@ 0xf8
 80046ea:	4393      	bics	r3, r2
 80046ec:	0019      	movs	r1, r3
 80046ee:	687b      	ldr	r3, [r7, #4]
 80046f0:	699b      	ldr	r3, [r3, #24]
 80046f2:	00da      	lsls	r2, r3, #3
 80046f4:	4b81      	ldr	r3, [pc, #516]	@ (80048fc <HAL_RCC_OscConfig+0x67c>)
 80046f6:	430a      	orrs	r2, r1
 80046f8:	635a      	str	r2, [r3, #52]	@ 0x34
 80046fa:	e034      	b.n	8004766 <HAL_RCC_OscConfig+0x4e6>
    }
    else if(RCC_OscInitStruct->HSI14State == RCC_HSI14_ADC_CONTROL)
 80046fc:	687b      	ldr	r3, [r7, #4]
 80046fe:	695b      	ldr	r3, [r3, #20]
 8004700:	3305      	adds	r3, #5
 8004702:	d111      	bne.n	8004728 <HAL_RCC_OscConfig+0x4a8>
    {
      /* Enable ADC control of the Internal High Speed oscillator HSI14 */
      __HAL_RCC_HSI14ADC_ENABLE();
 8004704:	4b7d      	ldr	r3, [pc, #500]	@ (80048fc <HAL_RCC_OscConfig+0x67c>)
 8004706:	6b5a      	ldr	r2, [r3, #52]	@ 0x34
 8004708:	4b7c      	ldr	r3, [pc, #496]	@ (80048fc <HAL_RCC_OscConfig+0x67c>)
 800470a:	2104      	movs	r1, #4
 800470c:	438a      	bics	r2, r1
 800470e:	635a      	str	r2, [r3, #52]	@ 0x34

      /* Adjusts the Internal High Speed oscillator 14Mhz (HSI14) calibration value. */
      __HAL_RCC_HSI14_CALIBRATIONVALUE_ADJUST(RCC_OscInitStruct->HSI14CalibrationValue);
 8004710:	4b7a      	ldr	r3, [pc, #488]	@ (80048fc <HAL_RCC_OscConfig+0x67c>)
 8004712:	6b5b      	ldr	r3, [r3, #52]	@ 0x34
 8004714:	22f8      	movs	r2, #248	@ 0xf8
 8004716:	4393      	bics	r3, r2
 8004718:	0019      	movs	r1, r3
 800471a:	687b      	ldr	r3, [r7, #4]
 800471c:	699b      	ldr	r3, [r3, #24]
 800471e:	00da      	lsls	r2, r3, #3
 8004720:	4b76      	ldr	r3, [pc, #472]	@ (80048fc <HAL_RCC_OscConfig+0x67c>)
 8004722:	430a      	orrs	r2, r1
 8004724:	635a      	str	r2, [r3, #52]	@ 0x34
 8004726:	e01e      	b.n	8004766 <HAL_RCC_OscConfig+0x4e6>
    }
    else
    {
      /* Disable ADC control of the Internal High Speed oscillator HSI14 */
      __HAL_RCC_HSI14ADC_DISABLE();
 8004728:	4b74      	ldr	r3, [pc, #464]	@ (80048fc <HAL_RCC_OscConfig+0x67c>)
 800472a:	6b5a      	ldr	r2, [r3, #52]	@ 0x34
 800472c:	4b73      	ldr	r3, [pc, #460]	@ (80048fc <HAL_RCC_OscConfig+0x67c>)
 800472e:	2104      	movs	r1, #4
 8004730:	430a      	orrs	r2, r1
 8004732:	635a      	str	r2, [r3, #52]	@ 0x34

      /* Disable the Internal High Speed oscillator (HSI). */
      __HAL_RCC_HSI14_DISABLE();
 8004734:	4b71      	ldr	r3, [pc, #452]	@ (80048fc <HAL_RCC_OscConfig+0x67c>)
 8004736:	6b5a      	ldr	r2, [r3, #52]	@ 0x34
 8004738:	4b70      	ldr	r3, [pc, #448]	@ (80048fc <HAL_RCC_OscConfig+0x67c>)
 800473a:	2101      	movs	r1, #1
 800473c:	438a      	bics	r2, r1
 800473e:	635a      	str	r2, [r3, #52]	@ 0x34

      /* Get Start Tick */
      tickstart = HAL_GetTick();
 8004740:	f7fe fd56 	bl	80031f0 <HAL_GetTick>
 8004744:	0003      	movs	r3, r0
 8004746:	61bb      	str	r3, [r7, #24]
      
      /* Wait till HSI is ready */  
      while(__HAL_RCC_GET_FLAG(RCC_FLAG_HSI14RDY) != RESET)
 8004748:	e008      	b.n	800475c <HAL_RCC_OscConfig+0x4dc>
      {
        if((HAL_GetTick() - tickstart) > HSI14_TIMEOUT_VALUE)
 800474a:	f7fe fd51 	bl	80031f0 <HAL_GetTick>
 800474e:	0002      	movs	r2, r0
 8004750:	69bb      	ldr	r3, [r7, #24]
 8004752:	1ad3      	subs	r3, r2, r3
 8004754:	2b02      	cmp	r3, #2
 8004756:	d901      	bls.n	800475c <HAL_RCC_OscConfig+0x4dc>
        {
          return HAL_TIMEOUT;
 8004758:	2303      	movs	r3, #3
 800475a:	e111      	b.n	8004980 <HAL_RCC_OscConfig+0x700>
      while(__HAL_RCC_GET_FLAG(RCC_FLAG_HSI14RDY) != RESET)
 800475c:	4b67      	ldr	r3, [pc, #412]	@ (80048fc <HAL_RCC_OscConfig+0x67c>)
 800475e:	6b5b      	ldr	r3, [r3, #52]	@ 0x34
 8004760:	2202      	movs	r2, #2
 8004762:	4013      	ands	r3, r2
 8004764:	d1f1      	bne.n	800474a <HAL_RCC_OscConfig+0x4ca>
    }
  }

#if defined(RCC_HSI48_SUPPORT)
  /*----------------------------- HSI48 Configuration --------------------------*/
  if(((RCC_OscInitStruct->OscillatorType) & RCC_OSCILLATORTYPE_HSI48) == RCC_OSCILLATORTYPE_HSI48)
 8004766:	687b      	ldr	r3, [r7, #4]
 8004768:	681b      	ldr	r3, [r3, #0]
 800476a:	2220      	movs	r2, #32
 800476c:	4013      	ands	r3, r2
 800476e:	d05c      	beq.n	800482a <HAL_RCC_OscConfig+0x5aa>
  {
    /* Check the parameters */
    assert_param(IS_RCC_HSI48(RCC_OscInitStruct->HSI48State));

    /* When the HSI48 is used as system clock it is not allowed to be disabled */
    if((__HAL_RCC_GET_SYSCLK_SOURCE() == RCC_SYSCLKSOURCE_STATUS_HSI48) ||
 8004770:	4b62      	ldr	r3, [pc, #392]	@ (80048fc <HAL_RCC_OscConfig+0x67c>)
 8004772:	685b      	ldr	r3, [r3, #4]
 8004774:	220c      	movs	r2, #12
 8004776:	4013      	ands	r3, r2
 8004778:	2b0c      	cmp	r3, #12
 800477a:	d00e      	beq.n	800479a <HAL_RCC_OscConfig+0x51a>
       ((__HAL_RCC_GET_SYSCLK_SOURCE() == RCC_SYSCLKSOURCE_STATUS_PLLCLK) && (__HAL_RCC_GET_PLL_OSCSOURCE() == RCC_PLLSOURCE_HSI48)))
 800477c:	4b5f      	ldr	r3, [pc, #380]	@ (80048fc <HAL_RCC_OscConfig+0x67c>)
 800477e:	685b      	ldr	r3, [r3, #4]
 8004780:	220c      	movs	r2, #12
 8004782:	4013      	ands	r3, r2
    if((__HAL_RCC_GET_SYSCLK_SOURCE() == RCC_SYSCLKSOURCE_STATUS_HSI48) ||
 8004784:	2b08      	cmp	r3, #8
 8004786:	d114      	bne.n	80047b2 <HAL_RCC_OscConfig+0x532>
       ((__HAL_RCC_GET_SYSCLK_SOURCE() == RCC_SYSCLKSOURCE_STATUS_PLLCLK) && (__HAL_RCC_GET_PLL_OSCSOURCE() == RCC_PLLSOURCE_HSI48)))
 8004788:	4b5c      	ldr	r3, [pc, #368]	@ (80048fc <HAL_RCC_OscConfig+0x67c>)
 800478a:	685a      	ldr	r2, [r3, #4]
 800478c:	23c0      	movs	r3, #192	@ 0xc0
 800478e:	025b      	lsls	r3, r3, #9
 8004790:	401a      	ands	r2, r3
 8004792:	23c0      	movs	r3, #192	@ 0xc0
 8004794:	025b      	lsls	r3, r3, #9
 8004796:	429a      	cmp	r2, r3
 8004798:	d10b      	bne.n	80047b2 <HAL_RCC_OscConfig+0x532>
    {
      if((__HAL_RCC_GET_FLAG(RCC_FLAG_HSI48RDY) != RESET) && (RCC_OscInitStruct->HSI48State != RCC_HSI48_ON))
 800479a:	4b58      	ldr	r3, [pc, #352]	@ (80048fc <HAL_RCC_OscConfig+0x67c>)
 800479c:	6b5a      	ldr	r2, [r3, #52]	@ 0x34
 800479e:	2380      	movs	r3, #128	@ 0x80
 80047a0:	029b      	lsls	r3, r3, #10
 80047a2:	4013      	ands	r3, r2
 80047a4:	d040      	beq.n	8004828 <HAL_RCC_OscConfig+0x5a8>
 80047a6:	687b      	ldr	r3, [r7, #4]
 80047a8:	6a1b      	ldr	r3, [r3, #32]
 80047aa:	2b01      	cmp	r3, #1
 80047ac:	d03c      	beq.n	8004828 <HAL_RCC_OscConfig+0x5a8>
      {
        return HAL_ERROR;
 80047ae:	2301      	movs	r3, #1
 80047b0:	e0e6      	b.n	8004980 <HAL_RCC_OscConfig+0x700>
      }
    }
    else
    {
      /* Check the HSI48 State */
      if(RCC_OscInitStruct->HSI48State != RCC_HSI48_OFF)
 80047b2:	687b      	ldr	r3, [r7, #4]
 80047b4:	6a1b      	ldr	r3, [r3, #32]
 80047b6:	2b00      	cmp	r3, #0
 80047b8:	d01b      	beq.n	80047f2 <HAL_RCC_OscConfig+0x572>
      {
        /* Enable the Internal High Speed oscillator (HSI48). */
        __HAL_RCC_HSI48_ENABLE();
 80047ba:	4b50      	ldr	r3, [pc, #320]	@ (80048fc <HAL_RCC_OscConfig+0x67c>)
 80047bc:	6b5a      	ldr	r2, [r3, #52]	@ 0x34
 80047be:	4b4f      	ldr	r3, [pc, #316]	@ (80048fc <HAL_RCC_OscConfig+0x67c>)
 80047c0:	2180      	movs	r1, #128	@ 0x80
 80047c2:	0249      	lsls	r1, r1, #9
 80047c4:	430a      	orrs	r2, r1
 80047c6:	635a      	str	r2, [r3, #52]	@ 0x34

        /* Get Start Tick */
        tickstart = HAL_GetTick();
 80047c8:	f7fe fd12 	bl	80031f0 <HAL_GetTick>
 80047cc:	0003      	movs	r3, r0
 80047ce:	61bb      	str	r3, [r7, #24]
      
        /* Wait till HSI48 is ready */  
        while(__HAL_RCC_GET_FLAG(RCC_FLAG_HSI48RDY) == RESET)
 80047d0:	e008      	b.n	80047e4 <HAL_RCC_OscConfig+0x564>
        {
          if((HAL_GetTick() - tickstart) > HSI48_TIMEOUT_VALUE)
 80047d2:	f7fe fd0d 	bl	80031f0 <HAL_GetTick>
 80047d6:	0002      	movs	r2, r0
 80047d8:	69bb      	ldr	r3, [r7, #24]
 80047da:	1ad3      	subs	r3, r2, r3
 80047dc:	2b02      	cmp	r3, #2
 80047de:	d901      	bls.n	80047e4 <HAL_RCC_OscConfig+0x564>
          {
            return HAL_TIMEOUT;
 80047e0:	2303      	movs	r3, #3
 80047e2:	e0cd      	b.n	8004980 <HAL_RCC_OscConfig+0x700>
        while(__HAL_RCC_GET_FLAG(RCC_FLAG_HSI48RDY) == RESET)
 80047e4:	4b45      	ldr	r3, [pc, #276]	@ (80048fc <HAL_RCC_OscConfig+0x67c>)
 80047e6:	6b5a      	ldr	r2, [r3, #52]	@ 0x34
 80047e8:	2380      	movs	r3, #128	@ 0x80
 80047ea:	029b      	lsls	r3, r3, #10
 80047ec:	4013      	ands	r3, r2
 80047ee:	d0f0      	beq.n	80047d2 <HAL_RCC_OscConfig+0x552>
 80047f0:	e01b      	b.n	800482a <HAL_RCC_OscConfig+0x5aa>
        } 
      }
      else
      {
        /* Disable the Internal High Speed oscillator (HSI48). */
        __HAL_RCC_HSI48_DISABLE();
 80047f2:	4b42      	ldr	r3, [pc, #264]	@ (80048fc <HAL_RCC_OscConfig+0x67c>)
 80047f4:	6b5a      	ldr	r2, [r3, #52]	@ 0x34
 80047f6:	4b41      	ldr	r3, [pc, #260]	@ (80048fc <HAL_RCC_OscConfig+0x67c>)
 80047f8:	4943      	ldr	r1, [pc, #268]	@ (8004908 <HAL_RCC_OscConfig+0x688>)
 80047fa:	400a      	ands	r2, r1
 80047fc:	635a      	str	r2, [r3, #52]	@ 0x34

        /* Get Start Tick */
        tickstart = HAL_GetTick();
 80047fe:	f7fe fcf7 	bl	80031f0 <HAL_GetTick>
 8004802:	0003      	movs	r3, r0
 8004804:	61bb      	str	r3, [r7, #24]
      
        /* Wait till HSI48 is ready */  
        while(__HAL_RCC_GET_FLAG(RCC_FLAG_HSI48RDY) != RESET)
 8004806:	e008      	b.n	800481a <HAL_RCC_OscConfig+0x59a>
        {
          if((HAL_GetTick() - tickstart) > HSI48_TIMEOUT_VALUE)
 8004808:	f7fe fcf2 	bl	80031f0 <HAL_GetTick>
 800480c:	0002      	movs	r2, r0
 800480e:	69bb      	ldr	r3, [r7, #24]
 8004810:	1ad3      	subs	r3, r2, r3
 8004812:	2b02      	cmp	r3, #2
 8004814:	d901      	bls.n	800481a <HAL_RCC_OscConfig+0x59a>
          {
            return HAL_TIMEOUT;
 8004816:	2303      	movs	r3, #3
 8004818:	e0b2      	b.n	8004980 <HAL_RCC_OscConfig+0x700>
        while(__HAL_RCC_GET_FLAG(RCC_FLAG_HSI48RDY) != RESET)
 800481a:	4b38      	ldr	r3, [pc, #224]	@ (80048fc <HAL_RCC_OscConfig+0x67c>)
 800481c:	6b5a      	ldr	r2, [r3, #52]	@ 0x34
 800481e:	2380      	movs	r3, #128	@ 0x80
 8004820:	029b      	lsls	r3, r3, #10
 8004822:	4013      	ands	r3, r2
 8004824:	d1f0      	bne.n	8004808 <HAL_RCC_OscConfig+0x588>
 8004826:	e000      	b.n	800482a <HAL_RCC_OscConfig+0x5aa>
      if((__HAL_RCC_GET_FLAG(RCC_FLAG_HSI48RDY) != RESET) && (RCC_OscInitStruct->HSI48State != RCC_HSI48_ON))
 8004828:	46c0      	nop			@ (mov r8, r8)
#endif /* RCC_HSI48_SUPPORT */
       
  /*-------------------------------- PLL Configuration -----------------------*/
  /* Check the parameters */
  assert_param(IS_RCC_PLL(RCC_OscInitStruct->PLL.PLLState));
  if ((RCC_OscInitStruct->PLL.PLLState) != RCC_PLL_NONE)
 800482a:	687b      	ldr	r3, [r7, #4]
 800482c:	6a5b      	ldr	r3, [r3, #36]	@ 0x24
 800482e:	2b00      	cmp	r3, #0
 8004830:	d100      	bne.n	8004834 <HAL_RCC_OscConfig+0x5b4>
 8004832:	e0a4      	b.n	800497e <HAL_RCC_OscConfig+0x6fe>
  {
    /* Check if the PLL is used as system clock or not */
    if(__HAL_RCC_GET_SYSCLK_SOURCE() != RCC_SYSCLKSOURCE_STATUS_PLLCLK)
 8004834:	4b31      	ldr	r3, [pc, #196]	@ (80048fc <HAL_RCC_OscConfig+0x67c>)
 8004836:	685b      	ldr	r3, [r3, #4]
 8004838:	220c      	movs	r2, #12
 800483a:	4013      	ands	r3, r2
 800483c:	2b08      	cmp	r3, #8
 800483e:	d100      	bne.n	8004842 <HAL_RCC_OscConfig+0x5c2>
 8004840:	e078      	b.n	8004934 <HAL_RCC_OscConfig+0x6b4>
    { 
      if((RCC_OscInitStruct->PLL.PLLState) == RCC_PLL_ON)
 8004842:	687b      	ldr	r3, [r7, #4]
 8004844:	6a5b      	ldr	r3, [r3, #36]	@ 0x24
 8004846:	2b02      	cmp	r3, #2
 8004848:	d14c      	bne.n	80048e4 <HAL_RCC_OscConfig+0x664>
        assert_param(IS_RCC_PLLSOURCE(RCC_OscInitStruct->PLL.PLLSource));
        assert_param(IS_RCC_PLL_MUL(RCC_OscInitStruct->PLL.PLLMUL));
        assert_param(IS_RCC_PREDIV(RCC_OscInitStruct->PLL.PREDIV));
  
        /* Disable the main PLL. */
        __HAL_RCC_PLL_DISABLE();
 800484a:	4b2c      	ldr	r3, [pc, #176]	@ (80048fc <HAL_RCC_OscConfig+0x67c>)
 800484c:	681a      	ldr	r2, [r3, #0]
 800484e:	4b2b      	ldr	r3, [pc, #172]	@ (80048fc <HAL_RCC_OscConfig+0x67c>)
 8004850:	492e      	ldr	r1, [pc, #184]	@ (800490c <HAL_RCC_OscConfig+0x68c>)
 8004852:	400a      	ands	r2, r1
 8004854:	601a      	str	r2, [r3, #0]
        
        /* Get Start Tick */
        tickstart = HAL_GetTick();
 8004856:	f7fe fccb 	bl	80031f0 <HAL_GetTick>
 800485a:	0003      	movs	r3, r0
 800485c:	61bb      	str	r3, [r7, #24]
        
        /* Wait till PLL is disabled */
        while(__HAL_RCC_GET_FLAG(RCC_FLAG_PLLRDY)  != RESET)
 800485e:	e008      	b.n	8004872 <HAL_RCC_OscConfig+0x5f2>
        {
          if((HAL_GetTick() - tickstart ) > PLL_TIMEOUT_VALUE)
 8004860:	f7fe fcc6 	bl	80031f0 <HAL_GetTick>
 8004864:	0002      	movs	r2, r0
 8004866:	69bb      	ldr	r3, [r7, #24]
 8004868:	1ad3      	subs	r3, r2, r3
 800486a:	2b02      	cmp	r3, #2
 800486c:	d901      	bls.n	8004872 <HAL_RCC_OscConfig+0x5f2>
          {
            return HAL_TIMEOUT;
 800486e:	2303      	movs	r3, #3
 8004870:	e086      	b.n	8004980 <HAL_RCC_OscConfig+0x700>
        while(__HAL_RCC_GET_FLAG(RCC_FLAG_PLLRDY)  != RESET)
 8004872:	4b22      	ldr	r3, [pc, #136]	@ (80048fc <HAL_RCC_OscConfig+0x67c>)
 8004874:	681a      	ldr	r2, [r3, #0]
 8004876:	2380      	movs	r3, #128	@ 0x80
 8004878:	049b      	lsls	r3, r3, #18
 800487a:	4013      	ands	r3, r2
 800487c:	d1f0      	bne.n	8004860 <HAL_RCC_OscConfig+0x5e0>
          }
        }

        /* Configure the main PLL clock source, predivider and multiplication factor. */
        __HAL_RCC_PLL_CONFIG(RCC_OscInitStruct->PLL.PLLSource,
 800487e:	4b1f      	ldr	r3, [pc, #124]	@ (80048fc <HAL_RCC_OscConfig+0x67c>)
 8004880:	6adb      	ldr	r3, [r3, #44]	@ 0x2c
 8004882:	220f      	movs	r2, #15
 8004884:	4393      	bics	r3, r2
 8004886:	0019      	movs	r1, r3
 8004888:	687b      	ldr	r3, [r7, #4]
 800488a:	6b1a      	ldr	r2, [r3, #48]	@ 0x30
 800488c:	4b1b      	ldr	r3, [pc, #108]	@ (80048fc <HAL_RCC_OscConfig+0x67c>)
 800488e:	430a      	orrs	r2, r1
 8004890:	62da      	str	r2, [r3, #44]	@ 0x2c
 8004892:	4b1a      	ldr	r3, [pc, #104]	@ (80048fc <HAL_RCC_OscConfig+0x67c>)
 8004894:	685b      	ldr	r3, [r3, #4]
 8004896:	4a1e      	ldr	r2, [pc, #120]	@ (8004910 <HAL_RCC_OscConfig+0x690>)
 8004898:	4013      	ands	r3, r2
 800489a:	0019      	movs	r1, r3
 800489c:	687b      	ldr	r3, [r7, #4]
 800489e:	6ada      	ldr	r2, [r3, #44]	@ 0x2c
 80048a0:	687b      	ldr	r3, [r7, #4]
 80048a2:	6a9b      	ldr	r3, [r3, #40]	@ 0x28
 80048a4:	431a      	orrs	r2, r3
 80048a6:	4b15      	ldr	r3, [pc, #84]	@ (80048fc <HAL_RCC_OscConfig+0x67c>)
 80048a8:	430a      	orrs	r2, r1
 80048aa:	605a      	str	r2, [r3, #4]
                             RCC_OscInitStruct->PLL.PREDIV,
                             RCC_OscInitStruct->PLL.PLLMUL);
        /* Enable the main PLL. */
        __HAL_RCC_PLL_ENABLE();
 80048ac:	4b13      	ldr	r3, [pc, #76]	@ (80048fc <HAL_RCC_OscConfig+0x67c>)
 80048ae:	681a      	ldr	r2, [r3, #0]
 80048b0:	4b12      	ldr	r3, [pc, #72]	@ (80048fc <HAL_RCC_OscConfig+0x67c>)
 80048b2:	2180      	movs	r1, #128	@ 0x80
 80048b4:	0449      	lsls	r1, r1, #17
 80048b6:	430a      	orrs	r2, r1
 80048b8:	601a      	str	r2, [r3, #0]
        
        /* Get Start Tick */
        tickstart = HAL_GetTick();
 80048ba:	f7fe fc99 	bl	80031f0 <HAL_GetTick>
 80048be:	0003      	movs	r3, r0
 80048c0:	61bb      	str	r3, [r7, #24]
        
        /* Wait till PLL is ready */
        while(__HAL_RCC_GET_FLAG(RCC_FLAG_PLLRDY)  == RESET)
 80048c2:	e008      	b.n	80048d6 <HAL_RCC_OscConfig+0x656>
        {
          if((HAL_GetTick() - tickstart ) > PLL_TIMEOUT_VALUE)
 80048c4:	f7fe fc94 	bl	80031f0 <HAL_GetTick>
 80048c8:	0002      	movs	r2, r0
 80048ca:	69bb      	ldr	r3, [r7, #24]
 80048cc:	1ad3      	subs	r3, r2, r3
 80048ce:	2b02      	cmp	r3, #2
 80048d0:	d901      	bls.n	80048d6 <HAL_RCC_OscConfig+0x656>
          {
            return HAL_TIMEOUT;
 80048d2:	2303      	movs	r3, #3
 80048d4:	e054      	b.n	8004980 <HAL_RCC_OscConfig+0x700>
        while(__HAL_RCC_GET_FLAG(RCC_FLAG_PLLRDY)  == RESET)
 80048d6:	4b09      	ldr	r3, [pc, #36]	@ (80048fc <HAL_RCC_OscConfig+0x67c>)
 80048d8:	681a      	ldr	r2, [r3, #0]
 80048da:	2380      	movs	r3, #128	@ 0x80
 80048dc:	049b      	lsls	r3, r3, #18
 80048de:	4013      	ands	r3, r2
 80048e0:	d0f0      	beq.n	80048c4 <HAL_RCC_OscConfig+0x644>
 80048e2:	e04c      	b.n	800497e <HAL_RCC_OscConfig+0x6fe>
        }
      }
      else
      {
        /* Disable the main PLL. */
        __HAL_RCC_PLL_DISABLE();
 80048e4:	4b05      	ldr	r3, [pc, #20]	@ (80048fc <HAL_RCC_OscConfig+0x67c>)
 80048e6:	681a      	ldr	r2, [r3, #0]
 80048e8:	4b04      	ldr	r3, [pc, #16]	@ (80048fc <HAL_RCC_OscConfig+0x67c>)
 80048ea:	4908      	ldr	r1, [pc, #32]	@ (800490c <HAL_RCC_OscConfig+0x68c>)
 80048ec:	400a      	ands	r2, r1
 80048ee:	601a      	str	r2, [r3, #0]
 
        /* Get Start Tick */
        tickstart = HAL_GetTick();
 80048f0:	f7fe fc7e 	bl	80031f0 <HAL_GetTick>
 80048f4:	0003      	movs	r3, r0
 80048f6:	61bb      	str	r3, [r7, #24]
        
        /* Wait till PLL is disabled */  
        while(__HAL_RCC_GET_FLAG(RCC_FLAG_PLLRDY)  != RESET)
 80048f8:	e015      	b.n	8004926 <HAL_RCC_OscConfig+0x6a6>
 80048fa:	46c0      	nop			@ (mov r8, r8)
 80048fc:	40021000 	.word	0x40021000
 8004900:	00001388 	.word	0x00001388
 8004904:	efffffff 	.word	0xefffffff
 8004908:	fffeffff 	.word	0xfffeffff
 800490c:	feffffff 	.word	0xfeffffff
 8004910:	ffc27fff 	.word	0xffc27fff
        {
          if((HAL_GetTick() - tickstart ) > PLL_TIMEOUT_VALUE)
 8004914:	f7fe fc6c 	bl	80031f0 <HAL_GetTick>
 8004918:	0002      	movs	r2, r0
 800491a:	69bb      	ldr	r3, [r7, #24]
 800491c:	1ad3      	subs	r3, r2, r3
 800491e:	2b02      	cmp	r3, #2
 8004920:	d901      	bls.n	8004926 <HAL_RCC_OscConfig+0x6a6>
          {
            return HAL_TIMEOUT;
 8004922:	2303      	movs	r3, #3
 8004924:	e02c      	b.n	8004980 <HAL_RCC_OscConfig+0x700>
        while(__HAL_RCC_GET_FLAG(RCC_FLAG_PLLRDY)  != RESET)
 8004926:	4b18      	ldr	r3, [pc, #96]	@ (8004988 <HAL_RCC_OscConfig+0x708>)
 8004928:	681a      	ldr	r2, [r3, #0]
 800492a:	2380      	movs	r3, #128	@ 0x80
 800492c:	049b      	lsls	r3, r3, #18
 800492e:	4013      	ands	r3, r2
 8004930:	d1f0      	bne.n	8004914 <HAL_RCC_OscConfig+0x694>
 8004932:	e024      	b.n	800497e <HAL_RCC_OscConfig+0x6fe>
      }
    }
    else
    {
      /* Check if there is a request to disable the PLL used as System clock source */
      if((RCC_OscInitStruct->PLL.PLLState) == RCC_PLL_OFF)
 8004934:	687b      	ldr	r3, [r7, #4]
 8004936:	6a5b      	ldr	r3, [r3, #36]	@ 0x24
 8004938:	2b01      	cmp	r3, #1
 800493a:	d101      	bne.n	8004940 <HAL_RCC_OscConfig+0x6c0>
      {
        return HAL_ERROR;
 800493c:	2301      	movs	r3, #1
 800493e:	e01f      	b.n	8004980 <HAL_RCC_OscConfig+0x700>
      }
      else
      {
        /* Do not return HAL_ERROR if request repeats the current configuration */
        pll_config  = RCC->CFGR;
 8004940:	4b11      	ldr	r3, [pc, #68]	@ (8004988 <HAL_RCC_OscConfig+0x708>)
 8004942:	685b      	ldr	r3, [r3, #4]
 8004944:	617b      	str	r3, [r7, #20]
        pll_config2 = RCC->CFGR2;
 8004946:	4b10      	ldr	r3, [pc, #64]	@ (8004988 <HAL_RCC_OscConfig+0x708>)
 8004948:	6adb      	ldr	r3, [r3, #44]	@ 0x2c
 800494a:	613b      	str	r3, [r7, #16]
        if((READ_BIT(pll_config,  RCC_CFGR_PLLSRC)  != RCC_OscInitStruct->PLL.PLLSource) ||
 800494c:	697a      	ldr	r2, [r7, #20]
 800494e:	23c0      	movs	r3, #192	@ 0xc0
 8004950:	025b      	lsls	r3, r3, #9
 8004952:	401a      	ands	r2, r3
 8004954:	687b      	ldr	r3, [r7, #4]
 8004956:	6a9b      	ldr	r3, [r3, #40]	@ 0x28
 8004958:	429a      	cmp	r2, r3
 800495a:	d10e      	bne.n	800497a <HAL_RCC_OscConfig+0x6fa>
           (READ_BIT(pll_config2, RCC_CFGR2_PREDIV) != RCC_OscInitStruct->PLL.PREDIV)    ||
 800495c:	693b      	ldr	r3, [r7, #16]
 800495e:	220f      	movs	r2, #15
 8004960:	401a      	ands	r2, r3
 8004962:	687b      	ldr	r3, [r7, #4]
 8004964:	6b1b      	ldr	r3, [r3, #48]	@ 0x30
        if((READ_BIT(pll_config,  RCC_CFGR_PLLSRC)  != RCC_OscInitStruct->PLL.PLLSource) ||
 8004966:	429a      	cmp	r2, r3
 8004968:	d107      	bne.n	800497a <HAL_RCC_OscConfig+0x6fa>
           (READ_BIT(pll_config,  RCC_CFGR_PLLMUL)  != RCC_OscInitStruct->PLL.PLLMUL))
 800496a:	697a      	ldr	r2, [r7, #20]
 800496c:	23f0      	movs	r3, #240	@ 0xf0
 800496e:	039b      	lsls	r3, r3, #14
 8004970:	401a      	ands	r2, r3
 8004972:	687b      	ldr	r3, [r7, #4]
 8004974:	6adb      	ldr	r3, [r3, #44]	@ 0x2c
           (READ_BIT(pll_config2, RCC_CFGR2_PREDIV) != RCC_OscInitStruct->PLL.PREDIV)    ||
 8004976:	429a      	cmp	r2, r3
 8004978:	d001      	beq.n	800497e <HAL_RCC_OscConfig+0x6fe>
        {
          return HAL_ERROR;
 800497a:	2301      	movs	r3, #1
 800497c:	e000      	b.n	8004980 <HAL_RCC_OscConfig+0x700>
        }
      }
    }
  }

  return HAL_OK;
 800497e:	2300      	movs	r3, #0
}
 8004980:	0018      	movs	r0, r3
 8004982:	46bd      	mov	sp, r7
 8004984:	b008      	add	sp, #32
 8004986:	bd80      	pop	{r7, pc}
 8004988:	40021000 	.word	0x40021000

0800498c <HAL_RCC_ClockConfig>:
  *         You can use @ref HAL_RCC_GetClockConfig() function to know which clock is
  *         currently used as system clock source.
  * @retval HAL status
  */
HAL_StatusTypeDef HAL_RCC_ClockConfig(RCC_ClkInitTypeDef  *RCC_ClkInitStruct, uint32_t FLatency)
{
 800498c:	b580      	push	{r7, lr}
 800498e:	b084      	sub	sp, #16
 8004990:	af00      	add	r7, sp, #0
 8004992:	6078      	str	r0, [r7, #4]
 8004994:	6039      	str	r1, [r7, #0]
  uint32_t tickstart;

  /* Check Null pointer */
  if(RCC_ClkInitStruct == NULL)
 8004996:	687b      	ldr	r3, [r7, #4]
 8004998:	2b00      	cmp	r3, #0
 800499a:	d101      	bne.n	80049a0 <HAL_RCC_ClockConfig+0x14>
  {
    return HAL_ERROR;
 800499c:	2301      	movs	r3, #1
 800499e:	e0bf      	b.n	8004b20 <HAL_RCC_ClockConfig+0x194>
  /* To correctly read data from FLASH memory, the number of wait states (LATENCY) 
  must be correctly programmed according to the frequency of the CPU clock 
    (HCLK) of the device. */

  /* Increasing the number of wait states because of higher CPU frequency */
  if(FLatency > __HAL_FLASH_GET_LATENCY())
 80049a0:	4b61      	ldr	r3, [pc, #388]	@ (8004b28 <HAL_RCC_ClockConfig+0x19c>)
 80049a2:	681b      	ldr	r3, [r3, #0]
 80049a4:	2201      	movs	r2, #1
 80049a6:	4013      	ands	r3, r2
 80049a8:	683a      	ldr	r2, [r7, #0]
 80049aa:	429a      	cmp	r2, r3
 80049ac:	d911      	bls.n	80049d2 <HAL_RCC_ClockConfig+0x46>
  {    
    /* Program the new number of wait states to the LATENCY bits in the FLASH_ACR register */
    __HAL_FLASH_SET_LATENCY(FLatency);
 80049ae:	4b5e      	ldr	r3, [pc, #376]	@ (8004b28 <HAL_RCC_ClockConfig+0x19c>)
 80049b0:	681b      	ldr	r3, [r3, #0]
 80049b2:	2201      	movs	r2, #1
 80049b4:	4393      	bics	r3, r2
 80049b6:	0019      	movs	r1, r3
 80049b8:	4b5b      	ldr	r3, [pc, #364]	@ (8004b28 <HAL_RCC_ClockConfig+0x19c>)
 80049ba:	683a      	ldr	r2, [r7, #0]
 80049bc:	430a      	orrs	r2, r1
 80049be:	601a      	str	r2, [r3, #0]
    
    /* Check that the new number of wait states is taken into account to access the Flash
    memory by reading the FLASH_ACR register */
    if(__HAL_FLASH_GET_LATENCY() != FLatency)
 80049c0:	4b59      	ldr	r3, [pc, #356]	@ (8004b28 <HAL_RCC_ClockConfig+0x19c>)
 80049c2:	681b      	ldr	r3, [r3, #0]
 80049c4:	2201      	movs	r2, #1
 80049c6:	4013      	ands	r3, r2
 80049c8:	683a      	ldr	r2, [r7, #0]
 80049ca:	429a      	cmp	r2, r3
 80049cc:	d001      	beq.n	80049d2 <HAL_RCC_ClockConfig+0x46>
    {
      return HAL_ERROR;
 80049ce:	2301      	movs	r3, #1
 80049d0:	e0a6      	b.n	8004b20 <HAL_RCC_ClockConfig+0x194>
    }
  }

  /*-------------------------- HCLK Configuration --------------------------*/
  if(((RCC_ClkInitStruct->ClockType) & RCC_CLOCKTYPE_HCLK) == RCC_CLOCKTYPE_HCLK)
 80049d2:	687b      	ldr	r3, [r7, #4]
 80049d4:	681b      	ldr	r3, [r3, #0]
 80049d6:	2202      	movs	r2, #2
 80049d8:	4013      	ands	r3, r2
 80049da:	d015      	beq.n	8004a08 <HAL_RCC_ClockConfig+0x7c>
  {
    /* Set the highest APB divider in order to ensure that we do not go through
       a non-spec phase whatever we decrease or increase HCLK. */
    if(((RCC_ClkInitStruct->ClockType) & RCC_CLOCKTYPE_PCLK1) == RCC_CLOCKTYPE_PCLK1)
 80049dc:	687b      	ldr	r3, [r7, #4]
 80049de:	681b      	ldr	r3, [r3, #0]
 80049e0:	2204      	movs	r2, #4
 80049e2:	4013      	ands	r3, r2
 80049e4:	d006      	beq.n	80049f4 <HAL_RCC_ClockConfig+0x68>
    {
      MODIFY_REG(RCC->CFGR, RCC_CFGR_PPRE, RCC_HCLK_DIV16);
 80049e6:	4b51      	ldr	r3, [pc, #324]	@ (8004b2c <HAL_RCC_ClockConfig+0x1a0>)
 80049e8:	685a      	ldr	r2, [r3, #4]
 80049ea:	4b50      	ldr	r3, [pc, #320]	@ (8004b2c <HAL_RCC_ClockConfig+0x1a0>)
 80049ec:	21e0      	movs	r1, #224	@ 0xe0
 80049ee:	00c9      	lsls	r1, r1, #3
 80049f0:	430a      	orrs	r2, r1
 80049f2:	605a      	str	r2, [r3, #4]
    }

    /* Set the new HCLK clock divider */
    assert_param(IS_RCC_HCLK(RCC_ClkInitStruct->AHBCLKDivider));
    MODIFY_REG(RCC->CFGR, RCC_CFGR_HPRE, RCC_ClkInitStruct->AHBCLKDivider);
 80049f4:	4b4d      	ldr	r3, [pc, #308]	@ (8004b2c <HAL_RCC_ClockConfig+0x1a0>)
 80049f6:	685b      	ldr	r3, [r3, #4]
 80049f8:	22f0      	movs	r2, #240	@ 0xf0
 80049fa:	4393      	bics	r3, r2
 80049fc:	0019      	movs	r1, r3
 80049fe:	687b      	ldr	r3, [r7, #4]
 8004a00:	689a      	ldr	r2, [r3, #8]
 8004a02:	4b4a      	ldr	r3, [pc, #296]	@ (8004b2c <HAL_RCC_ClockConfig+0x1a0>)
 8004a04:	430a      	orrs	r2, r1
 8004a06:	605a      	str	r2, [r3, #4]
  }

  /*------------------------- SYSCLK Configuration ---------------------------*/ 
  if(((RCC_ClkInitStruct->ClockType) & RCC_CLOCKTYPE_SYSCLK) == RCC_CLOCKTYPE_SYSCLK)
 8004a08:	687b      	ldr	r3, [r7, #4]
 8004a0a:	681b      	ldr	r3, [r3, #0]
 8004a0c:	2201      	movs	r2, #1
 8004a0e:	4013      	ands	r3, r2
 8004a10:	d04c      	beq.n	8004aac <HAL_RCC_ClockConfig+0x120>
  {
    assert_param(IS_RCC_SYSCLKSOURCE(RCC_ClkInitStruct->SYSCLKSource));
    
    /* HSE is selected as System Clock Source */
    if(RCC_ClkInitStruct->SYSCLKSource == RCC_SYSCLKSOURCE_HSE)
 8004a12:	687b      	ldr	r3, [r7, #4]
 8004a14:	685b      	ldr	r3, [r3, #4]
 8004a16:	2b01      	cmp	r3, #1
 8004a18:	d107      	bne.n	8004a2a <HAL_RCC_ClockConfig+0x9e>
    {
      /* Check the HSE ready flag */  
      if(__HAL_RCC_GET_FLAG(RCC_FLAG_HSERDY) == RESET)
 8004a1a:	4b44      	ldr	r3, [pc, #272]	@ (8004b2c <HAL_RCC_ClockConfig+0x1a0>)
 8004a1c:	681a      	ldr	r2, [r3, #0]
 8004a1e:	2380      	movs	r3, #128	@ 0x80
 8004a20:	029b      	lsls	r3, r3, #10
 8004a22:	4013      	ands	r3, r2
 8004a24:	d120      	bne.n	8004a68 <HAL_RCC_ClockConfig+0xdc>
      {
        return HAL_ERROR;
 8004a26:	2301      	movs	r3, #1
 8004a28:	e07a      	b.n	8004b20 <HAL_RCC_ClockConfig+0x194>
      }
    }
    /* PLL is selected as System Clock Source */
    else if(RCC_ClkInitStruct->SYSCLKSource == RCC_SYSCLKSOURCE_PLLCLK)
 8004a2a:	687b      	ldr	r3, [r7, #4]
 8004a2c:	685b      	ldr	r3, [r3, #4]
 8004a2e:	2b02      	cmp	r3, #2
 8004a30:	d107      	bne.n	8004a42 <HAL_RCC_ClockConfig+0xb6>
    {
      /* Check the PLL ready flag */  
      if(__HAL_RCC_GET_FLAG(RCC_FLAG_PLLRDY) == RESET)
 8004a32:	4b3e      	ldr	r3, [pc, #248]	@ (8004b2c <HAL_RCC_ClockConfig+0x1a0>)
 8004a34:	681a      	ldr	r2, [r3, #0]
 8004a36:	2380      	movs	r3, #128	@ 0x80
 8004a38:	049b      	lsls	r3, r3, #18
 8004a3a:	4013      	ands	r3, r2
 8004a3c:	d114      	bne.n	8004a68 <HAL_RCC_ClockConfig+0xdc>
      {
        return HAL_ERROR;
 8004a3e:	2301      	movs	r3, #1
 8004a40:	e06e      	b.n	8004b20 <HAL_RCC_ClockConfig+0x194>
      }
    }
#if defined(RCC_CFGR_SWS_HSI48)
    /* HSI48 is selected as System Clock Source */
    else if(RCC_ClkInitStruct->SYSCLKSource == RCC_SYSCLKSOURCE_HSI48)
 8004a42:	687b      	ldr	r3, [r7, #4]
 8004a44:	685b      	ldr	r3, [r3, #4]
 8004a46:	2b03      	cmp	r3, #3
 8004a48:	d107      	bne.n	8004a5a <HAL_RCC_ClockConfig+0xce>
    {
      /* Check the HSI48 ready flag */
      if(__HAL_RCC_GET_FLAG(RCC_FLAG_HSI48RDY) == RESET)
 8004a4a:	4b38      	ldr	r3, [pc, #224]	@ (8004b2c <HAL_RCC_ClockConfig+0x1a0>)
 8004a4c:	6b5a      	ldr	r2, [r3, #52]	@ 0x34
 8004a4e:	2380      	movs	r3, #128	@ 0x80
 8004a50:	029b      	lsls	r3, r3, #10
 8004a52:	4013      	ands	r3, r2
 8004a54:	d108      	bne.n	8004a68 <HAL_RCC_ClockConfig+0xdc>
      {
        return HAL_ERROR;
 8004a56:	2301      	movs	r3, #1
 8004a58:	e062      	b.n	8004b20 <HAL_RCC_ClockConfig+0x194>
#endif /* RCC_CFGR_SWS_HSI48 */
    /* HSI is selected as System Clock Source */
    else
    {
      /* Check the HSI ready flag */  
      if(__HAL_RCC_GET_FLAG(RCC_FLAG_HSIRDY) == RESET)
 8004a5a:	4b34      	ldr	r3, [pc, #208]	@ (8004b2c <HAL_RCC_ClockConfig+0x1a0>)
 8004a5c:	681b      	ldr	r3, [r3, #0]
 8004a5e:	2202      	movs	r2, #2
 8004a60:	4013      	ands	r3, r2
 8004a62:	d101      	bne.n	8004a68 <HAL_RCC_ClockConfig+0xdc>
      {
        return HAL_ERROR;
 8004a64:	2301      	movs	r3, #1
 8004a66:	e05b      	b.n	8004b20 <HAL_RCC_ClockConfig+0x194>
      }
    }
    __HAL_RCC_SYSCLK_CONFIG(RCC_ClkInitStruct->SYSCLKSource);
 8004a68:	4b30      	ldr	r3, [pc, #192]	@ (8004b2c <HAL_RCC_ClockConfig+0x1a0>)
 8004a6a:	685b      	ldr	r3, [r3, #4]
 8004a6c:	2203      	movs	r2, #3
 8004a6e:	4393      	bics	r3, r2
 8004a70:	0019      	movs	r1, r3
 8004a72:	687b      	ldr	r3, [r7, #4]
 8004a74:	685a      	ldr	r2, [r3, #4]
 8004a76:	4b2d      	ldr	r3, [pc, #180]	@ (8004b2c <HAL_RCC_ClockConfig+0x1a0>)
 8004a78:	430a      	orrs	r2, r1
 8004a7a:	605a      	str	r2, [r3, #4]

    /* Get Start Tick */
    tickstart = HAL_GetTick();
 8004a7c:	f7fe fbb8 	bl	80031f0 <HAL_GetTick>
 8004a80:	0003      	movs	r3, r0
 8004a82:	60fb      	str	r3, [r7, #12]
    
    while (__HAL_RCC_GET_SYSCLK_SOURCE() != (RCC_ClkInitStruct->SYSCLKSource << RCC_CFGR_SWS_Pos))
 8004a84:	e009      	b.n	8004a9a <HAL_RCC_ClockConfig+0x10e>
    {
      if((HAL_GetTick() - tickstart ) > CLOCKSWITCH_TIMEOUT_VALUE)
 8004a86:	f7fe fbb3 	bl	80031f0 <HAL_GetTick>
 8004a8a:	0002      	movs	r2, r0
 8004a8c:	68fb      	ldr	r3, [r7, #12]
 8004a8e:	1ad3      	subs	r3, r2, r3
 8004a90:	4a27      	ldr	r2, [pc, #156]	@ (8004b30 <HAL_RCC_ClockConfig+0x1a4>)
 8004a92:	4293      	cmp	r3, r2
 8004a94:	d901      	bls.n	8004a9a <HAL_RCC_ClockConfig+0x10e>
      {
        return HAL_TIMEOUT;
 8004a96:	2303      	movs	r3, #3
 8004a98:	e042      	b.n	8004b20 <HAL_RCC_ClockConfig+0x194>
    while (__HAL_RCC_GET_SYSCLK_SOURCE() != (RCC_ClkInitStruct->SYSCLKSource << RCC_CFGR_SWS_Pos))
 8004a9a:	4b24      	ldr	r3, [pc, #144]	@ (8004b2c <HAL_RCC_ClockConfig+0x1a0>)
 8004a9c:	685b      	ldr	r3, [r3, #4]
 8004a9e:	220c      	movs	r2, #12
 8004aa0:	401a      	ands	r2, r3
 8004aa2:	687b      	ldr	r3, [r7, #4]
 8004aa4:	685b      	ldr	r3, [r3, #4]
 8004aa6:	009b      	lsls	r3, r3, #2
 8004aa8:	429a      	cmp	r2, r3
 8004aaa:	d1ec      	bne.n	8004a86 <HAL_RCC_ClockConfig+0xfa>
      }
    }
  }

  /* Decreasing the number of wait states because of lower CPU frequency */
  if(FLatency < __HAL_FLASH_GET_LATENCY())
 8004aac:	4b1e      	ldr	r3, [pc, #120]	@ (8004b28 <HAL_RCC_ClockConfig+0x19c>)
 8004aae:	681b      	ldr	r3, [r3, #0]
 8004ab0:	2201      	movs	r2, #1
 8004ab2:	4013      	ands	r3, r2
 8004ab4:	683a      	ldr	r2, [r7, #0]
 8004ab6:	429a      	cmp	r2, r3
 8004ab8:	d211      	bcs.n	8004ade <HAL_RCC_ClockConfig+0x152>
  {    
    /* Program the new number of wait states to the LATENCY bits in the FLASH_ACR register */
    __HAL_FLASH_SET_LATENCY(FLatency);
 8004aba:	4b1b      	ldr	r3, [pc, #108]	@ (8004b28 <HAL_RCC_ClockConfig+0x19c>)
 8004abc:	681b      	ldr	r3, [r3, #0]
 8004abe:	2201      	movs	r2, #1
 8004ac0:	4393      	bics	r3, r2
 8004ac2:	0019      	movs	r1, r3
 8004ac4:	4b18      	ldr	r3, [pc, #96]	@ (8004b28 <HAL_RCC_ClockConfig+0x19c>)
 8004ac6:	683a      	ldr	r2, [r7, #0]
 8004ac8:	430a      	orrs	r2, r1
 8004aca:	601a      	str	r2, [r3, #0]
    
    /* Check that the new number of wait states is taken into account to access the Flash
    memory by reading the FLASH_ACR register */
    if(__HAL_FLASH_GET_LATENCY() != FLatency)
 8004acc:	4b16      	ldr	r3, [pc, #88]	@ (8004b28 <HAL_RCC_ClockConfig+0x19c>)
 8004ace:	681b      	ldr	r3, [r3, #0]
 8004ad0:	2201      	movs	r2, #1
 8004ad2:	4013      	ands	r3, r2
 8004ad4:	683a      	ldr	r2, [r7, #0]
 8004ad6:	429a      	cmp	r2, r3
 8004ad8:	d001      	beq.n	8004ade <HAL_RCC_ClockConfig+0x152>
    {
      return HAL_ERROR;
 8004ada:	2301      	movs	r3, #1
 8004adc:	e020      	b.n	8004b20 <HAL_RCC_ClockConfig+0x194>
    }
  }    

  /*-------------------------- PCLK1 Configuration ---------------------------*/ 
  if(((RCC_ClkInitStruct->ClockType) & RCC_CLOCKTYPE_PCLK1) == RCC_CLOCKTYPE_PCLK1)
 8004ade:	687b      	ldr	r3, [r7, #4]
 8004ae0:	681b      	ldr	r3, [r3, #0]
 8004ae2:	2204      	movs	r2, #4
 8004ae4:	4013      	ands	r3, r2
 8004ae6:	d009      	beq.n	8004afc <HAL_RCC_ClockConfig+0x170>
  {
    assert_param(IS_RCC_PCLK(RCC_ClkInitStruct->APB1CLKDivider));
    MODIFY_REG(RCC->CFGR, RCC_CFGR_PPRE, RCC_ClkInitStruct->APB1CLKDivider);
 8004ae8:	4b10      	ldr	r3, [pc, #64]	@ (8004b2c <HAL_RCC_ClockConfig+0x1a0>)
 8004aea:	685b      	ldr	r3, [r3, #4]
 8004aec:	4a11      	ldr	r2, [pc, #68]	@ (8004b34 <HAL_RCC_ClockConfig+0x1a8>)
 8004aee:	4013      	ands	r3, r2
 8004af0:	0019      	movs	r1, r3
 8004af2:	687b      	ldr	r3, [r7, #4]
 8004af4:	68da      	ldr	r2, [r3, #12]
 8004af6:	4b0d      	ldr	r3, [pc, #52]	@ (8004b2c <HAL_RCC_ClockConfig+0x1a0>)
 8004af8:	430a      	orrs	r2, r1
 8004afa:	605a      	str	r2, [r3, #4]
  }
  
  /* Update the SystemCoreClock global variable */
  SystemCoreClock = HAL_RCC_GetSysClockFreq() >> AHBPrescTable[(RCC->CFGR & RCC_CFGR_HPRE)>> RCC_CFGR_HPRE_BITNUMBER];
 8004afc:	f000 f820 	bl	8004b40 <HAL_RCC_GetSysClockFreq>
 8004b00:	0001      	movs	r1, r0
 8004b02:	4b0a      	ldr	r3, [pc, #40]	@ (8004b2c <HAL_RCC_ClockConfig+0x1a0>)
 8004b04:	685b      	ldr	r3, [r3, #4]
 8004b06:	091b      	lsrs	r3, r3, #4
 8004b08:	220f      	movs	r2, #15
 8004b0a:	4013      	ands	r3, r2
 8004b0c:	4a0a      	ldr	r2, [pc, #40]	@ (8004b38 <HAL_RCC_ClockConfig+0x1ac>)
 8004b0e:	5cd3      	ldrb	r3, [r2, r3]
 8004b10:	000a      	movs	r2, r1
 8004b12:	40da      	lsrs	r2, r3
 8004b14:	4b09      	ldr	r3, [pc, #36]	@ (8004b3c <HAL_RCC_ClockConfig+0x1b0>)
 8004b16:	601a      	str	r2, [r3, #0]

  /* Configure the source of time base considering new system clocks settings*/
  HAL_InitTick (TICK_INT_PRIORITY);
 8004b18:	2003      	movs	r0, #3
 8004b1a:	f7fe fb23 	bl	8003164 <HAL_InitTick>
  
  return HAL_OK;
 8004b1e:	2300      	movs	r3, #0
}
 8004b20:	0018      	movs	r0, r3
 8004b22:	46bd      	mov	sp, r7
 8004b24:	b004      	add	sp, #16
 8004b26:	bd80      	pop	{r7, pc}
 8004b28:	40022000 	.word	0x40022000
 8004b2c:	40021000 	.word	0x40021000
 8004b30:	00001388 	.word	0x00001388
 8004b34:	fffff8ff 	.word	0xfffff8ff
 8004b38:	08005d90 	.word	0x08005d90
 8004b3c:	20000000 	.word	0x20000000

08004b40 <HAL_RCC_GetSysClockFreq>:
  *         right SYSCLK value. Otherwise, any configuration based on this function will be incorrect.
  *         
  * @retval SYSCLK frequency
  */
uint32_t HAL_RCC_GetSysClockFreq(void)
{
 8004b40:	b580      	push	{r7, lr}
 8004b42:	b086      	sub	sp, #24
 8004b44:	af00      	add	r7, sp, #0
  static const uint8_t aPLLMULFactorTable[16U] = { 2U,  3U,  4U,  5U,  6U,  7U,  8U,  9U,
                                                   10U, 11U, 12U, 13U, 14U, 15U, 16U, 16U};
  static const uint8_t aPredivFactorTable[16U] = { 1U, 2U,  3U,  4U,  5U,  6U,  7U,  8U,
                                                   9U,10U, 11U, 12U, 13U, 14U, 15U, 16U};

  uint32_t tmpreg = 0U, prediv = 0U, pllclk = 0U, pllmul = 0U;
 8004b46:	2300      	movs	r3, #0
 8004b48:	60fb      	str	r3, [r7, #12]
 8004b4a:	2300      	movs	r3, #0
 8004b4c:	60bb      	str	r3, [r7, #8]
 8004b4e:	2300      	movs	r3, #0
 8004b50:	617b      	str	r3, [r7, #20]
 8004b52:	2300      	movs	r3, #0
 8004b54:	607b      	str	r3, [r7, #4]
  uint32_t sysclockfreq = 0U;
 8004b56:	2300      	movs	r3, #0
 8004b58:	613b      	str	r3, [r7, #16]
  
  tmpreg = RCC->CFGR;
 8004b5a:	4b2d      	ldr	r3, [pc, #180]	@ (8004c10 <HAL_RCC_GetSysClockFreq+0xd0>)
 8004b5c:	685b      	ldr	r3, [r3, #4]
 8004b5e:	60fb      	str	r3, [r7, #12]
  
  /* Get SYSCLK source -------------------------------------------------------*/
  switch (tmpreg & RCC_CFGR_SWS)
 8004b60:	68fb      	ldr	r3, [r7, #12]
 8004b62:	220c      	movs	r2, #12
 8004b64:	4013      	ands	r3, r2
 8004b66:	2b0c      	cmp	r3, #12
 8004b68:	d046      	beq.n	8004bf8 <HAL_RCC_GetSysClockFreq+0xb8>
 8004b6a:	d848      	bhi.n	8004bfe <HAL_RCC_GetSysClockFreq+0xbe>
 8004b6c:	2b04      	cmp	r3, #4
 8004b6e:	d002      	beq.n	8004b76 <HAL_RCC_GetSysClockFreq+0x36>
 8004b70:	2b08      	cmp	r3, #8
 8004b72:	d003      	beq.n	8004b7c <HAL_RCC_GetSysClockFreq+0x3c>
 8004b74:	e043      	b.n	8004bfe <HAL_RCC_GetSysClockFreq+0xbe>
  {
    case RCC_SYSCLKSOURCE_STATUS_HSE:  /* HSE used as system clock */
    {
      sysclockfreq = HSE_VALUE;
 8004b76:	4b27      	ldr	r3, [pc, #156]	@ (8004c14 <HAL_RCC_GetSysClockFreq+0xd4>)
 8004b78:	613b      	str	r3, [r7, #16]
      break;
 8004b7a:	e043      	b.n	8004c04 <HAL_RCC_GetSysClockFreq+0xc4>
    }
    case RCC_SYSCLKSOURCE_STATUS_PLLCLK:  /* PLL used as system clock */
    {
      pllmul = aPLLMULFactorTable[(uint32_t)(tmpreg & RCC_CFGR_PLLMUL) >> RCC_CFGR_PLLMUL_BITNUMBER];
 8004b7c:	68fb      	ldr	r3, [r7, #12]
 8004b7e:	0c9b      	lsrs	r3, r3, #18
 8004b80:	220f      	movs	r2, #15
 8004b82:	4013      	ands	r3, r2
 8004b84:	4a24      	ldr	r2, [pc, #144]	@ (8004c18 <HAL_RCC_GetSysClockFreq+0xd8>)
 8004b86:	5cd3      	ldrb	r3, [r2, r3]
 8004b88:	607b      	str	r3, [r7, #4]
      prediv = aPredivFactorTable[(uint32_t)(RCC->CFGR2 & RCC_CFGR2_PREDIV) >> RCC_CFGR2_PREDIV_BITNUMBER];
 8004b8a:	4b21      	ldr	r3, [pc, #132]	@ (8004c10 <HAL_RCC_GetSysClockFreq+0xd0>)
 8004b8c:	6adb      	ldr	r3, [r3, #44]	@ 0x2c
 8004b8e:	220f      	movs	r2, #15
 8004b90:	4013      	ands	r3, r2
 8004b92:	4a22      	ldr	r2, [pc, #136]	@ (8004c1c <HAL_RCC_GetSysClockFreq+0xdc>)
 8004b94:	5cd3      	ldrb	r3, [r2, r3]
 8004b96:	60bb      	str	r3, [r7, #8]
      if ((tmpreg & RCC_CFGR_PLLSRC) == RCC_PLLSOURCE_HSE)
 8004b98:	68fa      	ldr	r2, [r7, #12]
 8004b9a:	23c0      	movs	r3, #192	@ 0xc0
 8004b9c:	025b      	lsls	r3, r3, #9
 8004b9e:	401a      	ands	r2, r3
 8004ba0:	2380      	movs	r3, #128	@ 0x80
 8004ba2:	025b      	lsls	r3, r3, #9
 8004ba4:	429a      	cmp	r2, r3
 8004ba6:	d109      	bne.n	8004bbc <HAL_RCC_GetSysClockFreq+0x7c>
      {
        /* HSE used as PLL clock source : PLLCLK = HSE/PREDIV * PLLMUL */
        pllclk = (uint32_t)((uint64_t) HSE_VALUE / (uint64_t) (prediv)) * ((uint64_t) pllmul);
 8004ba8:	68b9      	ldr	r1, [r7, #8]
 8004baa:	481a      	ldr	r0, [pc, #104]	@ (8004c14 <HAL_RCC_GetSysClockFreq+0xd4>)
 8004bac:	f7fb faaa 	bl	8000104 <__udivsi3>
 8004bb0:	0003      	movs	r3, r0
 8004bb2:	001a      	movs	r2, r3
 8004bb4:	687b      	ldr	r3, [r7, #4]
 8004bb6:	4353      	muls	r3, r2
 8004bb8:	617b      	str	r3, [r7, #20]
 8004bba:	e01a      	b.n	8004bf2 <HAL_RCC_GetSysClockFreq+0xb2>
      }
#if defined(RCC_CFGR_PLLSRC_HSI48_PREDIV)
      else if ((tmpreg & RCC_CFGR_PLLSRC) == RCC_PLLSOURCE_HSI48)
 8004bbc:	68fa      	ldr	r2, [r7, #12]
 8004bbe:	23c0      	movs	r3, #192	@ 0xc0
 8004bc0:	025b      	lsls	r3, r3, #9
 8004bc2:	401a      	ands	r2, r3
 8004bc4:	23c0      	movs	r3, #192	@ 0xc0
 8004bc6:	025b      	lsls	r3, r3, #9
 8004bc8:	429a      	cmp	r2, r3
 8004bca:	d109      	bne.n	8004be0 <HAL_RCC_GetSysClockFreq+0xa0>
      {
        /* HSI48 used as PLL clock source : PLLCLK = HSI48/PREDIV * PLLMUL */
        pllclk = (uint32_t)((uint64_t) HSI48_VALUE / (uint64_t) (prediv)) * ((uint64_t) pllmul);
 8004bcc:	68b9      	ldr	r1, [r7, #8]
 8004bce:	4814      	ldr	r0, [pc, #80]	@ (8004c20 <HAL_RCC_GetSysClockFreq+0xe0>)
 8004bd0:	f7fb fa98 	bl	8000104 <__udivsi3>
 8004bd4:	0003      	movs	r3, r0
 8004bd6:	001a      	movs	r2, r3
 8004bd8:	687b      	ldr	r3, [r7, #4]
 8004bda:	4353      	muls	r3, r2
 8004bdc:	617b      	str	r3, [r7, #20]
 8004bde:	e008      	b.n	8004bf2 <HAL_RCC_GetSysClockFreq+0xb2>
#endif /* RCC_CFGR_PLLSRC_HSI48_PREDIV */
      else
      {
#if  (defined(STM32F042x6) || defined(STM32F048xx) || defined(STM32F070x6) || defined(STM32F071xB) || defined(STM32F072xB) || defined(STM32F078xx) || defined(STM32F070xB) || defined(STM32F091xC) || defined(STM32F098xx) || defined(STM32F030xC))
        /* HSI used as PLL clock source : PLLCLK = HSI/PREDIV * PLLMUL */
        pllclk = (uint32_t)((uint64_t) HSI_VALUE / (uint64_t) (prediv)) * ((uint64_t) pllmul);
 8004be0:	68b9      	ldr	r1, [r7, #8]
 8004be2:	480c      	ldr	r0, [pc, #48]	@ (8004c14 <HAL_RCC_GetSysClockFreq+0xd4>)
 8004be4:	f7fb fa8e 	bl	8000104 <__udivsi3>
 8004be8:	0003      	movs	r3, r0
 8004bea:	001a      	movs	r2, r3
 8004bec:	687b      	ldr	r3, [r7, #4]
 8004bee:	4353      	muls	r3, r2
 8004bf0:	617b      	str	r3, [r7, #20]
#else
        /* HSI used as PLL clock source : PLLCLK = HSI/2 * PLLMUL */
        pllclk = (uint32_t)((uint64_t) (HSI_VALUE >> 1U) * ((uint64_t) pllmul));
#endif
      }
      sysclockfreq = pllclk;
 8004bf2:	697b      	ldr	r3, [r7, #20]
 8004bf4:	613b      	str	r3, [r7, #16]
      break;
 8004bf6:	e005      	b.n	8004c04 <HAL_RCC_GetSysClockFreq+0xc4>
    }
#if defined(RCC_CFGR_SWS_HSI48)
    case RCC_SYSCLKSOURCE_STATUS_HSI48:    /* HSI48 used as system clock source */
    {
      sysclockfreq = HSI48_VALUE;
 8004bf8:	4b09      	ldr	r3, [pc, #36]	@ (8004c20 <HAL_RCC_GetSysClockFreq+0xe0>)
 8004bfa:	613b      	str	r3, [r7, #16]
      break;
 8004bfc:	e002      	b.n	8004c04 <HAL_RCC_GetSysClockFreq+0xc4>
    }
#endif /* RCC_CFGR_SWS_HSI48 */
    case RCC_SYSCLKSOURCE_STATUS_HSI:  /* HSI used as system clock source */
    default: /* HSI used as system clock */
    {
      sysclockfreq = HSI_VALUE;
 8004bfe:	4b05      	ldr	r3, [pc, #20]	@ (8004c14 <HAL_RCC_GetSysClockFreq+0xd4>)
 8004c00:	613b      	str	r3, [r7, #16]
      break;
 8004c02:	46c0      	nop			@ (mov r8, r8)
    }
  }
  return sysclockfreq;
 8004c04:	693b      	ldr	r3, [r7, #16]
}
 8004c06:	0018      	movs	r0, r3
 8004c08:	46bd      	mov	sp, r7
 8004c0a:	b006      	add	sp, #24
 8004c0c:	bd80      	pop	{r7, pc}
 8004c0e:	46c0      	nop			@ (mov r8, r8)
 8004c10:	40021000 	.word	0x40021000
 8004c14:	007a1200 	.word	0x007a1200
 8004c18:	080067b0 	.word	0x080067b0
 8004c1c:	080067c0 	.word	0x080067c0
 8004c20:	02dc6c00 	.word	0x02dc6c00

08004c24 <HAL_RCCEx_PeriphCLKConfig>:
  *         the backup registers) and RCC_BDCR register are set to their reset values.
  *
  * @retval HAL status
  */
HAL_StatusTypeDef HAL_RCCEx_PeriphCLKConfig(RCC_PeriphCLKInitTypeDef  *PeriphClkInit)
{
 8004c24:	b580      	push	{r7, lr}
 8004c26:	b086      	sub	sp, #24
 8004c28:	af00      	add	r7, sp, #0
 8004c2a:	6078      	str	r0, [r7, #4]
  uint32_t tickstart = 0U;
 8004c2c:	2300      	movs	r3, #0
 8004c2e:	613b      	str	r3, [r7, #16]
  uint32_t temp_reg = 0U;
 8004c30:	2300      	movs	r3, #0
 8004c32:	60fb      	str	r3, [r7, #12]

  /* Check the parameters */
  assert_param(IS_RCC_PERIPHCLOCK(PeriphClkInit->PeriphClockSelection));
  
  /*---------------------------- RTC configuration -------------------------------*/
  if(((PeriphClkInit->PeriphClockSelection) & RCC_PERIPHCLK_RTC) == (RCC_PERIPHCLK_RTC))
 8004c34:	687b      	ldr	r3, [r7, #4]
 8004c36:	681a      	ldr	r2, [r3, #0]
 8004c38:	2380      	movs	r3, #128	@ 0x80
 8004c3a:	025b      	lsls	r3, r3, #9
 8004c3c:	4013      	ands	r3, r2
 8004c3e:	d100      	bne.n	8004c42 <HAL_RCCEx_PeriphCLKConfig+0x1e>
 8004c40:	e08e      	b.n	8004d60 <HAL_RCCEx_PeriphCLKConfig+0x13c>
  {
    /* check for RTC Parameters used to output RTCCLK */
    assert_param(IS_RCC_RTCCLKSOURCE(PeriphClkInit->RTCClockSelection));
    
    FlagStatus       pwrclkchanged = RESET;
 8004c42:	2017      	movs	r0, #23
 8004c44:	183b      	adds	r3, r7, r0
 8004c46:	2200      	movs	r2, #0
 8004c48:	701a      	strb	r2, [r3, #0]

    /* As soon as function is called to change RTC clock source, activation of the 
       power domain is done. */
    /* Requires to enable write access to Backup Domain of necessary */
    if(__HAL_RCC_PWR_IS_CLK_DISABLED())
 8004c4a:	4b6e      	ldr	r3, [pc, #440]	@ (8004e04 <HAL_RCCEx_PeriphCLKConfig+0x1e0>)
 8004c4c:	69da      	ldr	r2, [r3, #28]
 8004c4e:	2380      	movs	r3, #128	@ 0x80
 8004c50:	055b      	lsls	r3, r3, #21
 8004c52:	4013      	ands	r3, r2
 8004c54:	d110      	bne.n	8004c78 <HAL_RCCEx_PeriphCLKConfig+0x54>
    {
    __HAL_RCC_PWR_CLK_ENABLE();
 8004c56:	4b6b      	ldr	r3, [pc, #428]	@ (8004e04 <HAL_RCCEx_PeriphCLKConfig+0x1e0>)
 8004c58:	69da      	ldr	r2, [r3, #28]
 8004c5a:	4b6a      	ldr	r3, [pc, #424]	@ (8004e04 <HAL_RCCEx_PeriphCLKConfig+0x1e0>)
 8004c5c:	2180      	movs	r1, #128	@ 0x80
 8004c5e:	0549      	lsls	r1, r1, #21
 8004c60:	430a      	orrs	r2, r1
 8004c62:	61da      	str	r2, [r3, #28]
 8004c64:	4b67      	ldr	r3, [pc, #412]	@ (8004e04 <HAL_RCCEx_PeriphCLKConfig+0x1e0>)
 8004c66:	69da      	ldr	r2, [r3, #28]
 8004c68:	2380      	movs	r3, #128	@ 0x80
 8004c6a:	055b      	lsls	r3, r3, #21
 8004c6c:	4013      	ands	r3, r2
 8004c6e:	60bb      	str	r3, [r7, #8]
 8004c70:	68bb      	ldr	r3, [r7, #8]
      pwrclkchanged = SET;
 8004c72:	183b      	adds	r3, r7, r0
 8004c74:	2201      	movs	r2, #1
 8004c76:	701a      	strb	r2, [r3, #0]
    }
    
    if(HAL_IS_BIT_CLR(PWR->CR, PWR_CR_DBP))
 8004c78:	4b63      	ldr	r3, [pc, #396]	@ (8004e08 <HAL_RCCEx_PeriphCLKConfig+0x1e4>)
 8004c7a:	681a      	ldr	r2, [r3, #0]
 8004c7c:	2380      	movs	r3, #128	@ 0x80
 8004c7e:	005b      	lsls	r3, r3, #1
 8004c80:	4013      	ands	r3, r2
 8004c82:	d11a      	bne.n	8004cba <HAL_RCCEx_PeriphCLKConfig+0x96>
    {
      /* Enable write access to Backup domain */
      SET_BIT(PWR->CR, PWR_CR_DBP);
 8004c84:	4b60      	ldr	r3, [pc, #384]	@ (8004e08 <HAL_RCCEx_PeriphCLKConfig+0x1e4>)
 8004c86:	681a      	ldr	r2, [r3, #0]
 8004c88:	4b5f      	ldr	r3, [pc, #380]	@ (8004e08 <HAL_RCCEx_PeriphCLKConfig+0x1e4>)
 8004c8a:	2180      	movs	r1, #128	@ 0x80
 8004c8c:	0049      	lsls	r1, r1, #1
 8004c8e:	430a      	orrs	r2, r1
 8004c90:	601a      	str	r2, [r3, #0]
      
      /* Wait for Backup domain Write protection disable */
      tickstart = HAL_GetTick();
 8004c92:	f7fe faad 	bl	80031f0 <HAL_GetTick>
 8004c96:	0003      	movs	r3, r0
 8004c98:	613b      	str	r3, [r7, #16]
      
      while(HAL_IS_BIT_CLR(PWR->CR, PWR_CR_DBP))
 8004c9a:	e008      	b.n	8004cae <HAL_RCCEx_PeriphCLKConfig+0x8a>
      {
        if((HAL_GetTick() - tickstart) > RCC_DBP_TIMEOUT_VALUE)
 8004c9c:	f7fe faa8 	bl	80031f0 <HAL_GetTick>
 8004ca0:	0002      	movs	r2, r0
 8004ca2:	693b      	ldr	r3, [r7, #16]
 8004ca4:	1ad3      	subs	r3, r2, r3
 8004ca6:	2b64      	cmp	r3, #100	@ 0x64
 8004ca8:	d901      	bls.n	8004cae <HAL_RCCEx_PeriphCLKConfig+0x8a>
        {
          return HAL_TIMEOUT;
 8004caa:	2303      	movs	r3, #3
 8004cac:	e0a6      	b.n	8004dfc <HAL_RCCEx_PeriphCLKConfig+0x1d8>
      while(HAL_IS_BIT_CLR(PWR->CR, PWR_CR_DBP))
 8004cae:	4b56      	ldr	r3, [pc, #344]	@ (8004e08 <HAL_RCCEx_PeriphCLKConfig+0x1e4>)
 8004cb0:	681a      	ldr	r2, [r3, #0]
 8004cb2:	2380      	movs	r3, #128	@ 0x80
 8004cb4:	005b      	lsls	r3, r3, #1
 8004cb6:	4013      	ands	r3, r2
 8004cb8:	d0f0      	beq.n	8004c9c <HAL_RCCEx_PeriphCLKConfig+0x78>
        }
      }
    }
    
    /* Reset the Backup domain only if the RTC Clock source selection is modified from reset value */ 
    temp_reg = (RCC->BDCR & RCC_BDCR_RTCSEL);
 8004cba:	4b52      	ldr	r3, [pc, #328]	@ (8004e04 <HAL_RCCEx_PeriphCLKConfig+0x1e0>)
 8004cbc:	6a1a      	ldr	r2, [r3, #32]
 8004cbe:	23c0      	movs	r3, #192	@ 0xc0
 8004cc0:	009b      	lsls	r3, r3, #2
 8004cc2:	4013      	ands	r3, r2
 8004cc4:	60fb      	str	r3, [r7, #12]
    if((temp_reg != 0x00000000U) && (temp_reg != (PeriphClkInit->RTCClockSelection & RCC_BDCR_RTCSEL)))
 8004cc6:	68fb      	ldr	r3, [r7, #12]
 8004cc8:	2b00      	cmp	r3, #0
 8004cca:	d034      	beq.n	8004d36 <HAL_RCCEx_PeriphCLKConfig+0x112>
 8004ccc:	687b      	ldr	r3, [r7, #4]
 8004cce:	685a      	ldr	r2, [r3, #4]
 8004cd0:	23c0      	movs	r3, #192	@ 0xc0
 8004cd2:	009b      	lsls	r3, r3, #2
 8004cd4:	4013      	ands	r3, r2
 8004cd6:	68fa      	ldr	r2, [r7, #12]
 8004cd8:	429a      	cmp	r2, r3
 8004cda:	d02c      	beq.n	8004d36 <HAL_RCCEx_PeriphCLKConfig+0x112>
    {
      /* Store the content of BDCR register before the reset of Backup Domain */
      temp_reg = (RCC->BDCR & ~(RCC_BDCR_RTCSEL));
 8004cdc:	4b49      	ldr	r3, [pc, #292]	@ (8004e04 <HAL_RCCEx_PeriphCLKConfig+0x1e0>)
 8004cde:	6a1b      	ldr	r3, [r3, #32]
 8004ce0:	4a4a      	ldr	r2, [pc, #296]	@ (8004e0c <HAL_RCCEx_PeriphCLKConfig+0x1e8>)
 8004ce2:	4013      	ands	r3, r2
 8004ce4:	60fb      	str	r3, [r7, #12]
      /* RTC Clock selection can be changed only if the Backup Domain is reset */
      __HAL_RCC_BACKUPRESET_FORCE();
 8004ce6:	4b47      	ldr	r3, [pc, #284]	@ (8004e04 <HAL_RCCEx_PeriphCLKConfig+0x1e0>)
 8004ce8:	6a1a      	ldr	r2, [r3, #32]
 8004cea:	4b46      	ldr	r3, [pc, #280]	@ (8004e04 <HAL_RCCEx_PeriphCLKConfig+0x1e0>)
 8004cec:	2180      	movs	r1, #128	@ 0x80
 8004cee:	0249      	lsls	r1, r1, #9
 8004cf0:	430a      	orrs	r2, r1
 8004cf2:	621a      	str	r2, [r3, #32]
      __HAL_RCC_BACKUPRESET_RELEASE();
 8004cf4:	4b43      	ldr	r3, [pc, #268]	@ (8004e04 <HAL_RCCEx_PeriphCLKConfig+0x1e0>)
 8004cf6:	6a1a      	ldr	r2, [r3, #32]
 8004cf8:	4b42      	ldr	r3, [pc, #264]	@ (8004e04 <HAL_RCCEx_PeriphCLKConfig+0x1e0>)
 8004cfa:	4945      	ldr	r1, [pc, #276]	@ (8004e10 <HAL_RCCEx_PeriphCLKConfig+0x1ec>)
 8004cfc:	400a      	ands	r2, r1
 8004cfe:	621a      	str	r2, [r3, #32]
      /* Restore the Content of BDCR register */
      RCC->BDCR = temp_reg;
 8004d00:	4b40      	ldr	r3, [pc, #256]	@ (8004e04 <HAL_RCCEx_PeriphCLKConfig+0x1e0>)
 8004d02:	68fa      	ldr	r2, [r7, #12]
 8004d04:	621a      	str	r2, [r3, #32]
      
      /* Wait for LSERDY if LSE was enabled */
      if (HAL_IS_BIT_SET(temp_reg, RCC_BDCR_LSEON))
 8004d06:	68fb      	ldr	r3, [r7, #12]
 8004d08:	2201      	movs	r2, #1
 8004d0a:	4013      	ands	r3, r2
 8004d0c:	d013      	beq.n	8004d36 <HAL_RCCEx_PeriphCLKConfig+0x112>
      {
        /* Get Start Tick */
        tickstart = HAL_GetTick();
 8004d0e:	f7fe fa6f 	bl	80031f0 <HAL_GetTick>
 8004d12:	0003      	movs	r3, r0
 8004d14:	613b      	str	r3, [r7, #16]
        
        /* Wait till LSE is ready */  
        while(__HAL_RCC_GET_FLAG(RCC_FLAG_LSERDY) == RESET)
 8004d16:	e009      	b.n	8004d2c <HAL_RCCEx_PeriphCLKConfig+0x108>
        {
          if((HAL_GetTick() - tickstart) > RCC_LSE_TIMEOUT_VALUE)
 8004d18:	f7fe fa6a 	bl	80031f0 <HAL_GetTick>
 8004d1c:	0002      	movs	r2, r0
 8004d1e:	693b      	ldr	r3, [r7, #16]
 8004d20:	1ad3      	subs	r3, r2, r3
 8004d22:	4a3c      	ldr	r2, [pc, #240]	@ (8004e14 <HAL_RCCEx_PeriphCLKConfig+0x1f0>)
 8004d24:	4293      	cmp	r3, r2
 8004d26:	d901      	bls.n	8004d2c <HAL_RCCEx_PeriphCLKConfig+0x108>
          {
            return HAL_TIMEOUT;
 8004d28:	2303      	movs	r3, #3
 8004d2a:	e067      	b.n	8004dfc <HAL_RCCEx_PeriphCLKConfig+0x1d8>
        while(__HAL_RCC_GET_FLAG(RCC_FLAG_LSERDY) == RESET)
 8004d2c:	4b35      	ldr	r3, [pc, #212]	@ (8004e04 <HAL_RCCEx_PeriphCLKConfig+0x1e0>)
 8004d2e:	6a1b      	ldr	r3, [r3, #32]
 8004d30:	2202      	movs	r2, #2
 8004d32:	4013      	ands	r3, r2
 8004d34:	d0f0      	beq.n	8004d18 <HAL_RCCEx_PeriphCLKConfig+0xf4>
          }
        }
      }
    }
    __HAL_RCC_RTC_CONFIG(PeriphClkInit->RTCClockSelection);
 8004d36:	4b33      	ldr	r3, [pc, #204]	@ (8004e04 <HAL_RCCEx_PeriphCLKConfig+0x1e0>)
 8004d38:	6a1b      	ldr	r3, [r3, #32]
 8004d3a:	4a34      	ldr	r2, [pc, #208]	@ (8004e0c <HAL_RCCEx_PeriphCLKConfig+0x1e8>)
 8004d3c:	4013      	ands	r3, r2
 8004d3e:	0019      	movs	r1, r3
 8004d40:	687b      	ldr	r3, [r7, #4]
 8004d42:	685a      	ldr	r2, [r3, #4]
 8004d44:	4b2f      	ldr	r3, [pc, #188]	@ (8004e04 <HAL_RCCEx_PeriphCLKConfig+0x1e0>)
 8004d46:	430a      	orrs	r2, r1
 8004d48:	621a      	str	r2, [r3, #32]

    /* Require to disable power clock if necessary */
    if(pwrclkchanged == SET)
 8004d4a:	2317      	movs	r3, #23
 8004d4c:	18fb      	adds	r3, r7, r3
 8004d4e:	781b      	ldrb	r3, [r3, #0]
 8004d50:	2b01      	cmp	r3, #1
 8004d52:	d105      	bne.n	8004d60 <HAL_RCCEx_PeriphCLKConfig+0x13c>
    {
      __HAL_RCC_PWR_CLK_DISABLE();
 8004d54:	4b2b      	ldr	r3, [pc, #172]	@ (8004e04 <HAL_RCCEx_PeriphCLKConfig+0x1e0>)
 8004d56:	69da      	ldr	r2, [r3, #28]
 8004d58:	4b2a      	ldr	r3, [pc, #168]	@ (8004e04 <HAL_RCCEx_PeriphCLKConfig+0x1e0>)
 8004d5a:	492f      	ldr	r1, [pc, #188]	@ (8004e18 <HAL_RCCEx_PeriphCLKConfig+0x1f4>)
 8004d5c:	400a      	ands	r2, r1
 8004d5e:	61da      	str	r2, [r3, #28]
    }
  }

  /*------------------------------- USART1 Configuration ------------------------*/ 
  if(((PeriphClkInit->PeriphClockSelection) & RCC_PERIPHCLK_USART1) == RCC_PERIPHCLK_USART1)
 8004d60:	687b      	ldr	r3, [r7, #4]
 8004d62:	681b      	ldr	r3, [r3, #0]
 8004d64:	2201      	movs	r2, #1
 8004d66:	4013      	ands	r3, r2
 8004d68:	d009      	beq.n	8004d7e <HAL_RCCEx_PeriphCLKConfig+0x15a>
  {
    /* Check the parameters */
    assert_param(IS_RCC_USART1CLKSOURCE(PeriphClkInit->Usart1ClockSelection));
    
    /* Configure the USART1 clock source */
    __HAL_RCC_USART1_CONFIG(PeriphClkInit->Usart1ClockSelection);
 8004d6a:	4b26      	ldr	r3, [pc, #152]	@ (8004e04 <HAL_RCCEx_PeriphCLKConfig+0x1e0>)
 8004d6c:	6b1b      	ldr	r3, [r3, #48]	@ 0x30
 8004d6e:	2203      	movs	r2, #3
 8004d70:	4393      	bics	r3, r2
 8004d72:	0019      	movs	r1, r3
 8004d74:	687b      	ldr	r3, [r7, #4]
 8004d76:	689a      	ldr	r2, [r3, #8]
 8004d78:	4b22      	ldr	r3, [pc, #136]	@ (8004e04 <HAL_RCCEx_PeriphCLKConfig+0x1e0>)
 8004d7a:	430a      	orrs	r2, r1
 8004d7c:	631a      	str	r2, [r3, #48]	@ 0x30
  }
  
#if defined(STM32F071xB) || defined(STM32F072xB) || defined(STM32F078xx)\
 || defined(STM32F091xC) || defined(STM32F098xx)
  /*----------------------------- USART2 Configuration --------------------------*/ 
  if(((PeriphClkInit->PeriphClockSelection) & RCC_PERIPHCLK_USART2) == RCC_PERIPHCLK_USART2)
 8004d7e:	687b      	ldr	r3, [r7, #4]
 8004d80:	681b      	ldr	r3, [r3, #0]
 8004d82:	2202      	movs	r2, #2
 8004d84:	4013      	ands	r3, r2
 8004d86:	d009      	beq.n	8004d9c <HAL_RCCEx_PeriphCLKConfig+0x178>
  {
    /* Check the parameters */
    assert_param(IS_RCC_USART2CLKSOURCE(PeriphClkInit->Usart2ClockSelection));
    
    /* Configure the USART2 clock source */
    __HAL_RCC_USART2_CONFIG(PeriphClkInit->Usart2ClockSelection);
 8004d88:	4b1e      	ldr	r3, [pc, #120]	@ (8004e04 <HAL_RCCEx_PeriphCLKConfig+0x1e0>)
 8004d8a:	6b1b      	ldr	r3, [r3, #48]	@ 0x30
 8004d8c:	4a23      	ldr	r2, [pc, #140]	@ (8004e1c <HAL_RCCEx_PeriphCLKConfig+0x1f8>)
 8004d8e:	4013      	ands	r3, r2
 8004d90:	0019      	movs	r1, r3
 8004d92:	687b      	ldr	r3, [r7, #4]
 8004d94:	68da      	ldr	r2, [r3, #12]
 8004d96:	4b1b      	ldr	r3, [pc, #108]	@ (8004e04 <HAL_RCCEx_PeriphCLKConfig+0x1e0>)
 8004d98:	430a      	orrs	r2, r1
 8004d9a:	631a      	str	r2, [r3, #48]	@ 0x30
#endif /* STM32F071xB || STM32F072xB || STM32F078xx || */
       /* STM32F091xC || STM32F098xx */

#if defined(STM32F091xC) || defined(STM32F098xx)
  /*----------------------------- USART3 Configuration --------------------------*/ 
  if(((PeriphClkInit->PeriphClockSelection) & RCC_PERIPHCLK_USART3) == RCC_PERIPHCLK_USART3)
 8004d9c:	687b      	ldr	r3, [r7, #4]
 8004d9e:	681a      	ldr	r2, [r3, #0]
 8004da0:	2380      	movs	r3, #128	@ 0x80
 8004da2:	02db      	lsls	r3, r3, #11
 8004da4:	4013      	ands	r3, r2
 8004da6:	d009      	beq.n	8004dbc <HAL_RCCEx_PeriphCLKConfig+0x198>
  {
    /* Check the parameters */
    assert_param(IS_RCC_USART3CLKSOURCE(PeriphClkInit->Usart3ClockSelection));
    
    /* Configure the USART3 clock source */
    __HAL_RCC_USART3_CONFIG(PeriphClkInit->Usart3ClockSelection);
 8004da8:	4b16      	ldr	r3, [pc, #88]	@ (8004e04 <HAL_RCCEx_PeriphCLKConfig+0x1e0>)
 8004daa:	6b1b      	ldr	r3, [r3, #48]	@ 0x30
 8004dac:	4a1c      	ldr	r2, [pc, #112]	@ (8004e20 <HAL_RCCEx_PeriphCLKConfig+0x1fc>)
 8004dae:	4013      	ands	r3, r2
 8004db0:	0019      	movs	r1, r3
 8004db2:	687b      	ldr	r3, [r7, #4]
 8004db4:	691a      	ldr	r2, [r3, #16]
 8004db6:	4b13      	ldr	r3, [pc, #76]	@ (8004e04 <HAL_RCCEx_PeriphCLKConfig+0x1e0>)
 8004db8:	430a      	orrs	r2, r1
 8004dba:	631a      	str	r2, [r3, #48]	@ 0x30
  }
#endif /* STM32F091xC || STM32F098xx */  

  /*------------------------------ I2C1 Configuration ------------------------*/ 
  if(((PeriphClkInit->PeriphClockSelection) & RCC_PERIPHCLK_I2C1) == RCC_PERIPHCLK_I2C1)
 8004dbc:	687b      	ldr	r3, [r7, #4]
 8004dbe:	681b      	ldr	r3, [r3, #0]
 8004dc0:	2220      	movs	r2, #32
 8004dc2:	4013      	ands	r3, r2
 8004dc4:	d009      	beq.n	8004dda <HAL_RCCEx_PeriphCLKConfig+0x1b6>
  {
    /* Check the parameters */
    assert_param(IS_RCC_I2C1CLKSOURCE(PeriphClkInit->I2c1ClockSelection));
    
    /* Configure the I2C1 clock source */
    __HAL_RCC_I2C1_CONFIG(PeriphClkInit->I2c1ClockSelection);
 8004dc6:	4b0f      	ldr	r3, [pc, #60]	@ (8004e04 <HAL_RCCEx_PeriphCLKConfig+0x1e0>)
 8004dc8:	6b1b      	ldr	r3, [r3, #48]	@ 0x30
 8004dca:	2210      	movs	r2, #16
 8004dcc:	4393      	bics	r3, r2
 8004dce:	0019      	movs	r1, r3
 8004dd0:	687b      	ldr	r3, [r7, #4]
 8004dd2:	695a      	ldr	r2, [r3, #20]
 8004dd4:	4b0b      	ldr	r3, [pc, #44]	@ (8004e04 <HAL_RCCEx_PeriphCLKConfig+0x1e0>)
 8004dd6:	430a      	orrs	r2, r1
 8004dd8:	631a      	str	r2, [r3, #48]	@ 0x30
#if defined(STM32F042x6) || defined(STM32F048xx)\
 || defined(STM32F051x8) || defined(STM32F058xx)\
 || defined(STM32F071xB) || defined(STM32F072xB) || defined(STM32F078xx)\
 || defined(STM32F091xC) || defined(STM32F098xx)
  /*------------------------------ CEC clock Configuration -------------------*/ 
  if(((PeriphClkInit->PeriphClockSelection) & RCC_PERIPHCLK_CEC) == RCC_PERIPHCLK_CEC)
 8004dda:	687b      	ldr	r3, [r7, #4]
 8004ddc:	681a      	ldr	r2, [r3, #0]
 8004dde:	2380      	movs	r3, #128	@ 0x80
 8004de0:	00db      	lsls	r3, r3, #3
 8004de2:	4013      	ands	r3, r2
 8004de4:	d009      	beq.n	8004dfa <HAL_RCCEx_PeriphCLKConfig+0x1d6>
  {
    /* Check the parameters */
    assert_param(IS_RCC_CECCLKSOURCE(PeriphClkInit->CecClockSelection));
    
    /* Configure the CEC clock source */
    __HAL_RCC_CEC_CONFIG(PeriphClkInit->CecClockSelection);
 8004de6:	4b07      	ldr	r3, [pc, #28]	@ (8004e04 <HAL_RCCEx_PeriphCLKConfig+0x1e0>)
 8004de8:	6b1b      	ldr	r3, [r3, #48]	@ 0x30
 8004dea:	2240      	movs	r2, #64	@ 0x40
 8004dec:	4393      	bics	r3, r2
 8004dee:	0019      	movs	r1, r3
 8004df0:	687b      	ldr	r3, [r7, #4]
 8004df2:	699a      	ldr	r2, [r3, #24]
 8004df4:	4b03      	ldr	r3, [pc, #12]	@ (8004e04 <HAL_RCCEx_PeriphCLKConfig+0x1e0>)
 8004df6:	430a      	orrs	r2, r1
 8004df8:	631a      	str	r2, [r3, #48]	@ 0x30
#endif /* STM32F042x6 || STM32F048xx ||                */
       /* STM32F051x8 || STM32F058xx ||                */
       /* STM32F071xB || STM32F072xB || STM32F078xx || */
       /* STM32F091xC || STM32F098xx */
  
  return HAL_OK;
 8004dfa:	2300      	movs	r3, #0
}
 8004dfc:	0018      	movs	r0, r3
 8004dfe:	46bd      	mov	sp, r7
 8004e00:	b006      	add	sp, #24
 8004e02:	bd80      	pop	{r7, pc}
 8004e04:	40021000 	.word	0x40021000
 8004e08:	40007000 	.word	0x40007000
 8004e0c:	fffffcff 	.word	0xfffffcff
 8004e10:	fffeffff 	.word	0xfffeffff
 8004e14:	00001388 	.word	0x00001388
 8004e18:	efffffff 	.word	0xefffffff
 8004e1c:	fffcffff 	.word	0xfffcffff
 8004e20:	fff3ffff 	.word	0xfff3ffff

08004e24 <HAL_SPI_Init>:
  * @param  hspi pointer to a SPI_HandleTypeDef structure that contains
  *               the configuration information for SPI module.
  * @retval HAL status
  */
HAL_StatusTypeDef HAL_SPI_Init(SPI_HandleTypeDef *hspi)
{
 8004e24:	b580      	push	{r7, lr}
 8004e26:	b084      	sub	sp, #16
 8004e28:	af00      	add	r7, sp, #0
 8004e2a:	6078      	str	r0, [r7, #4]
  uint32_t frxth;

  /* Check the SPI handle allocation */
  if (hspi == NULL)
 8004e2c:	687b      	ldr	r3, [r7, #4]
 8004e2e:	2b00      	cmp	r3, #0
 8004e30:	d101      	bne.n	8004e36 <HAL_SPI_Init+0x12>
  {
    return HAL_ERROR;
 8004e32:	2301      	movs	r3, #1
 8004e34:	e0a8      	b.n	8004f88 <HAL_SPI_Init+0x164>
  assert_param(IS_SPI_NSS(hspi->Init.NSS));
  assert_param(IS_SPI_NSSP(hspi->Init.NSSPMode));
  assert_param(IS_SPI_BAUDRATE_PRESCALER(hspi->Init.BaudRatePrescaler));
  assert_param(IS_SPI_FIRST_BIT(hspi->Init.FirstBit));
  assert_param(IS_SPI_TIMODE(hspi->Init.TIMode));
  if (hspi->Init.TIMode == SPI_TIMODE_DISABLE)
 8004e36:	687b      	ldr	r3, [r7, #4]
 8004e38:	6a5b      	ldr	r3, [r3, #36]	@ 0x24
 8004e3a:	2b00      	cmp	r3, #0
 8004e3c:	d109      	bne.n	8004e52 <HAL_SPI_Init+0x2e>
  {
    assert_param(IS_SPI_CPOL(hspi->Init.CLKPolarity));
    assert_param(IS_SPI_CPHA(hspi->Init.CLKPhase));

    if (hspi->Init.Mode == SPI_MODE_MASTER)
 8004e3e:	687b      	ldr	r3, [r7, #4]
 8004e40:	685a      	ldr	r2, [r3, #4]
 8004e42:	2382      	movs	r3, #130	@ 0x82
 8004e44:	005b      	lsls	r3, r3, #1
 8004e46:	429a      	cmp	r2, r3
 8004e48:	d009      	beq.n	8004e5e <HAL_SPI_Init+0x3a>
      assert_param(IS_SPI_BAUDRATE_PRESCALER(hspi->Init.BaudRatePrescaler));
    }
    else
    {
      /* Baudrate prescaler not use in Motoraola Slave mode. force to default value */
      hspi->Init.BaudRatePrescaler = SPI_BAUDRATEPRESCALER_2;
 8004e4a:	687b      	ldr	r3, [r7, #4]
 8004e4c:	2200      	movs	r2, #0
 8004e4e:	61da      	str	r2, [r3, #28]
 8004e50:	e005      	b.n	8004e5e <HAL_SPI_Init+0x3a>
  else
  {
    assert_param(IS_SPI_BAUDRATE_PRESCALER(hspi->Init.BaudRatePrescaler));

    /* Force polarity and phase to TI protocaol requirements */
    hspi->Init.CLKPolarity = SPI_POLARITY_LOW;
 8004e52:	687b      	ldr	r3, [r7, #4]
 8004e54:	2200      	movs	r2, #0
 8004e56:	611a      	str	r2, [r3, #16]
    hspi->Init.CLKPhase    = SPI_PHASE_1EDGE;
 8004e58:	687b      	ldr	r3, [r7, #4]
 8004e5a:	2200      	movs	r2, #0
 8004e5c:	615a      	str	r2, [r3, #20]
  {
    assert_param(IS_SPI_CRC_POLYNOMIAL(hspi->Init.CRCPolynomial));
    assert_param(IS_SPI_CRC_LENGTH(hspi->Init.CRCLength));
  }
#else
  hspi->Init.CRCCalculation = SPI_CRCCALCULATION_DISABLE;
 8004e5e:	687b      	ldr	r3, [r7, #4]
 8004e60:	2200      	movs	r2, #0
 8004e62:	629a      	str	r2, [r3, #40]	@ 0x28
#endif /* USE_SPI_CRC */

  if (hspi->State == HAL_SPI_STATE_RESET)
 8004e64:	687b      	ldr	r3, [r7, #4]
 8004e66:	225d      	movs	r2, #93	@ 0x5d
 8004e68:	5c9b      	ldrb	r3, [r3, r2]
 8004e6a:	b2db      	uxtb	r3, r3
 8004e6c:	2b00      	cmp	r3, #0
 8004e6e:	d107      	bne.n	8004e80 <HAL_SPI_Init+0x5c>
  {
    /* Allocate lock resource and initialize it */
    hspi->Lock = HAL_UNLOCKED;
 8004e70:	687b      	ldr	r3, [r7, #4]
 8004e72:	225c      	movs	r2, #92	@ 0x5c
 8004e74:	2100      	movs	r1, #0
 8004e76:	5499      	strb	r1, [r3, r2]

    /* Init the low level hardware : GPIO, CLOCK, NVIC... */
    hspi->MspInitCallback(hspi);
#else
    /* Init the low level hardware : GPIO, CLOCK, NVIC... */
    HAL_SPI_MspInit(hspi);
 8004e78:	687b      	ldr	r3, [r7, #4]
 8004e7a:	0018      	movs	r0, r3
 8004e7c:	f7fb fcee 	bl	800085c <HAL_SPI_MspInit>
#endif /* USE_HAL_SPI_REGISTER_CALLBACKS */
  }

  hspi->State = HAL_SPI_STATE_BUSY;
 8004e80:	687b      	ldr	r3, [r7, #4]
 8004e82:	225d      	movs	r2, #93	@ 0x5d
 8004e84:	2102      	movs	r1, #2
 8004e86:	5499      	strb	r1, [r3, r2]

  /* Disable the selected SPI peripheral */
  __HAL_SPI_DISABLE(hspi);
 8004e88:	687b      	ldr	r3, [r7, #4]
 8004e8a:	681b      	ldr	r3, [r3, #0]
 8004e8c:	681a      	ldr	r2, [r3, #0]
 8004e8e:	687b      	ldr	r3, [r7, #4]
 8004e90:	681b      	ldr	r3, [r3, #0]
 8004e92:	2140      	movs	r1, #64	@ 0x40
 8004e94:	438a      	bics	r2, r1
 8004e96:	601a      	str	r2, [r3, #0]

  /* Align by default the rs fifo threshold on the data size */
  if (hspi->Init.DataSize > SPI_DATASIZE_8BIT)
 8004e98:	687b      	ldr	r3, [r7, #4]
 8004e9a:	68da      	ldr	r2, [r3, #12]
 8004e9c:	23e0      	movs	r3, #224	@ 0xe0
 8004e9e:	00db      	lsls	r3, r3, #3
 8004ea0:	429a      	cmp	r2, r3
 8004ea2:	d902      	bls.n	8004eaa <HAL_SPI_Init+0x86>
  {
    frxth = SPI_RXFIFO_THRESHOLD_HF;
 8004ea4:	2300      	movs	r3, #0
 8004ea6:	60fb      	str	r3, [r7, #12]
 8004ea8:	e002      	b.n	8004eb0 <HAL_SPI_Init+0x8c>
  }
  else
  {
    frxth = SPI_RXFIFO_THRESHOLD_QF;
 8004eaa:	2380      	movs	r3, #128	@ 0x80
 8004eac:	015b      	lsls	r3, r3, #5
 8004eae:	60fb      	str	r3, [r7, #12]
  }

  /* CRC calculation is valid only for 16Bit and 8 Bit */
  if ((hspi->Init.DataSize != SPI_DATASIZE_16BIT) && (hspi->Init.DataSize != SPI_DATASIZE_8BIT))
 8004eb0:	687b      	ldr	r3, [r7, #4]
 8004eb2:	68da      	ldr	r2, [r3, #12]
 8004eb4:	23f0      	movs	r3, #240	@ 0xf0
 8004eb6:	011b      	lsls	r3, r3, #4
 8004eb8:	429a      	cmp	r2, r3
 8004eba:	d008      	beq.n	8004ece <HAL_SPI_Init+0xaa>
 8004ebc:	687b      	ldr	r3, [r7, #4]
 8004ebe:	68da      	ldr	r2, [r3, #12]
 8004ec0:	23e0      	movs	r3, #224	@ 0xe0
 8004ec2:	00db      	lsls	r3, r3, #3
 8004ec4:	429a      	cmp	r2, r3
 8004ec6:	d002      	beq.n	8004ece <HAL_SPI_Init+0xaa>
  {
    /* CRC must be disabled */
    hspi->Init.CRCCalculation = SPI_CRCCALCULATION_DISABLE;
 8004ec8:	687b      	ldr	r3, [r7, #4]
 8004eca:	2200      	movs	r2, #0
 8004ecc:	629a      	str	r2, [r3, #40]	@ 0x28
  }

  /*----------------------- SPIx CR1 & CR2 Configuration ---------------------*/
  /* Configure : SPI Mode, Communication Mode, Clock polarity and phase, NSS management,
  Communication speed, First bit and CRC calculation state */
  WRITE_REG(hspi->Instance->CR1, ((hspi->Init.Mode & (SPI_CR1_MSTR | SPI_CR1_SSI)) |
 8004ece:	687b      	ldr	r3, [r7, #4]
 8004ed0:	685a      	ldr	r2, [r3, #4]
 8004ed2:	2382      	movs	r3, #130	@ 0x82
 8004ed4:	005b      	lsls	r3, r3, #1
 8004ed6:	401a      	ands	r2, r3
 8004ed8:	687b      	ldr	r3, [r7, #4]
 8004eda:	6899      	ldr	r1, [r3, #8]
 8004edc:	2384      	movs	r3, #132	@ 0x84
 8004ede:	021b      	lsls	r3, r3, #8
 8004ee0:	400b      	ands	r3, r1
 8004ee2:	431a      	orrs	r2, r3
 8004ee4:	687b      	ldr	r3, [r7, #4]
 8004ee6:	691b      	ldr	r3, [r3, #16]
 8004ee8:	2102      	movs	r1, #2
 8004eea:	400b      	ands	r3, r1
 8004eec:	431a      	orrs	r2, r3
 8004eee:	687b      	ldr	r3, [r7, #4]
 8004ef0:	695b      	ldr	r3, [r3, #20]
 8004ef2:	2101      	movs	r1, #1
 8004ef4:	400b      	ands	r3, r1
 8004ef6:	431a      	orrs	r2, r3
 8004ef8:	687b      	ldr	r3, [r7, #4]
 8004efa:	6999      	ldr	r1, [r3, #24]
 8004efc:	2380      	movs	r3, #128	@ 0x80
 8004efe:	009b      	lsls	r3, r3, #2
 8004f00:	400b      	ands	r3, r1
 8004f02:	431a      	orrs	r2, r3
 8004f04:	687b      	ldr	r3, [r7, #4]
 8004f06:	69db      	ldr	r3, [r3, #28]
 8004f08:	2138      	movs	r1, #56	@ 0x38
 8004f0a:	400b      	ands	r3, r1
 8004f0c:	431a      	orrs	r2, r3
 8004f0e:	687b      	ldr	r3, [r7, #4]
 8004f10:	6a1b      	ldr	r3, [r3, #32]
 8004f12:	2180      	movs	r1, #128	@ 0x80
 8004f14:	400b      	ands	r3, r1
 8004f16:	431a      	orrs	r2, r3
 8004f18:	0011      	movs	r1, r2
 8004f1a:	687b      	ldr	r3, [r7, #4]
 8004f1c:	6a9a      	ldr	r2, [r3, #40]	@ 0x28
 8004f1e:	2380      	movs	r3, #128	@ 0x80
 8004f20:	019b      	lsls	r3, r3, #6
 8004f22:	401a      	ands	r2, r3
 8004f24:	687b      	ldr	r3, [r7, #4]
 8004f26:	681b      	ldr	r3, [r3, #0]
 8004f28:	430a      	orrs	r2, r1
 8004f2a:	601a      	str	r2, [r3, #0]
    }
  }
#endif /* USE_SPI_CRC */

  /* Configure : NSS management, TI Mode, NSS Pulse, Data size and Rx Fifo threshold */
  WRITE_REG(hspi->Instance->CR2, (((hspi->Init.NSS >> 16U) & SPI_CR2_SSOE) |
 8004f2c:	687b      	ldr	r3, [r7, #4]
 8004f2e:	699b      	ldr	r3, [r3, #24]
 8004f30:	0c1b      	lsrs	r3, r3, #16
 8004f32:	2204      	movs	r2, #4
 8004f34:	401a      	ands	r2, r3
 8004f36:	687b      	ldr	r3, [r7, #4]
 8004f38:	6a5b      	ldr	r3, [r3, #36]	@ 0x24
 8004f3a:	2110      	movs	r1, #16
 8004f3c:	400b      	ands	r3, r1
 8004f3e:	431a      	orrs	r2, r3
 8004f40:	687b      	ldr	r3, [r7, #4]
 8004f42:	6b5b      	ldr	r3, [r3, #52]	@ 0x34
 8004f44:	2108      	movs	r1, #8
 8004f46:	400b      	ands	r3, r1
 8004f48:	431a      	orrs	r2, r3
 8004f4a:	687b      	ldr	r3, [r7, #4]
 8004f4c:	68d9      	ldr	r1, [r3, #12]
 8004f4e:	23f0      	movs	r3, #240	@ 0xf0
 8004f50:	011b      	lsls	r3, r3, #4
 8004f52:	400b      	ands	r3, r1
 8004f54:	431a      	orrs	r2, r3
 8004f56:	0011      	movs	r1, r2
 8004f58:	68fa      	ldr	r2, [r7, #12]
 8004f5a:	2380      	movs	r3, #128	@ 0x80
 8004f5c:	015b      	lsls	r3, r3, #5
 8004f5e:	401a      	ands	r2, r3
 8004f60:	687b      	ldr	r3, [r7, #4]
 8004f62:	681b      	ldr	r3, [r3, #0]
 8004f64:	430a      	orrs	r2, r1
 8004f66:	605a      	str	r2, [r3, #4]
  }
#endif /* USE_SPI_CRC */

#if defined(SPI_I2SCFGR_I2SMOD)
  /* Activate the SPI mode (Make sure that I2SMOD bit in I2SCFGR register is reset) */
  CLEAR_BIT(hspi->Instance->I2SCFGR, SPI_I2SCFGR_I2SMOD);
 8004f68:	687b      	ldr	r3, [r7, #4]
 8004f6a:	681b      	ldr	r3, [r3, #0]
 8004f6c:	69da      	ldr	r2, [r3, #28]
 8004f6e:	687b      	ldr	r3, [r7, #4]
 8004f70:	681b      	ldr	r3, [r3, #0]
 8004f72:	4907      	ldr	r1, [pc, #28]	@ (8004f90 <HAL_SPI_Init+0x16c>)
 8004f74:	400a      	ands	r2, r1
 8004f76:	61da      	str	r2, [r3, #28]
#endif /* SPI_I2SCFGR_I2SMOD */

  hspi->ErrorCode = HAL_SPI_ERROR_NONE;
 8004f78:	687b      	ldr	r3, [r7, #4]
 8004f7a:	2200      	movs	r2, #0
 8004f7c:	661a      	str	r2, [r3, #96]	@ 0x60
  hspi->State     = HAL_SPI_STATE_READY;
 8004f7e:	687b      	ldr	r3, [r7, #4]
 8004f80:	225d      	movs	r2, #93	@ 0x5d
 8004f82:	2101      	movs	r1, #1
 8004f84:	5499      	strb	r1, [r3, r2]

  return HAL_OK;
 8004f86:	2300      	movs	r3, #0
}
 8004f88:	0018      	movs	r0, r3
 8004f8a:	46bd      	mov	sp, r7
 8004f8c:	b004      	add	sp, #16
 8004f8e:	bd80      	pop	{r7, pc}
 8004f90:	fffff7ff 	.word	0xfffff7ff

08004f94 <HAL_SPI_Transmit>:
  * @param  Size amount of data to be sent
  * @param  Timeout Timeout duration
  * @retval HAL status
  */
HAL_StatusTypeDef HAL_SPI_Transmit(SPI_HandleTypeDef *hspi, uint8_t *pData, uint16_t Size, uint32_t Timeout)
{
 8004f94:	b580      	push	{r7, lr}
 8004f96:	b088      	sub	sp, #32
 8004f98:	af00      	add	r7, sp, #0
 8004f9a:	60f8      	str	r0, [r7, #12]
 8004f9c:	60b9      	str	r1, [r7, #8]
 8004f9e:	603b      	str	r3, [r7, #0]
 8004fa0:	1dbb      	adds	r3, r7, #6
 8004fa2:	801a      	strh	r2, [r3, #0]
  uint32_t tickstart;
  HAL_StatusTypeDef errorcode = HAL_OK;
 8004fa4:	231f      	movs	r3, #31
 8004fa6:	18fb      	adds	r3, r7, r3
 8004fa8:	2200      	movs	r2, #0
 8004faa:	701a      	strb	r2, [r3, #0]

  /* Check Direction parameter */
  assert_param(IS_SPI_DIRECTION_2LINES_OR_1LINE(hspi->Init.Direction));

  /* Process Locked */
  __HAL_LOCK(hspi);
 8004fac:	68fb      	ldr	r3, [r7, #12]
 8004fae:	225c      	movs	r2, #92	@ 0x5c
 8004fb0:	5c9b      	ldrb	r3, [r3, r2]
 8004fb2:	2b01      	cmp	r3, #1
 8004fb4:	d101      	bne.n	8004fba <HAL_SPI_Transmit+0x26>
 8004fb6:	2302      	movs	r3, #2
 8004fb8:	e147      	b.n	800524a <HAL_SPI_Transmit+0x2b6>
 8004fba:	68fb      	ldr	r3, [r7, #12]
 8004fbc:	225c      	movs	r2, #92	@ 0x5c
 8004fbe:	2101      	movs	r1, #1
 8004fc0:	5499      	strb	r1, [r3, r2]

  /* Init tickstart for timeout management*/
  tickstart = HAL_GetTick();
 8004fc2:	f7fe f915 	bl	80031f0 <HAL_GetTick>
 8004fc6:	0003      	movs	r3, r0
 8004fc8:	61bb      	str	r3, [r7, #24]
  initial_TxXferCount = Size;
 8004fca:	2316      	movs	r3, #22
 8004fcc:	18fb      	adds	r3, r7, r3
 8004fce:	1dba      	adds	r2, r7, #6
 8004fd0:	8812      	ldrh	r2, [r2, #0]
 8004fd2:	801a      	strh	r2, [r3, #0]

  if (hspi->State != HAL_SPI_STATE_READY)
 8004fd4:	68fb      	ldr	r3, [r7, #12]
 8004fd6:	225d      	movs	r2, #93	@ 0x5d
 8004fd8:	5c9b      	ldrb	r3, [r3, r2]
 8004fda:	b2db      	uxtb	r3, r3
 8004fdc:	2b01      	cmp	r3, #1
 8004fde:	d004      	beq.n	8004fea <HAL_SPI_Transmit+0x56>
  {
    errorcode = HAL_BUSY;
 8004fe0:	231f      	movs	r3, #31
 8004fe2:	18fb      	adds	r3, r7, r3
 8004fe4:	2202      	movs	r2, #2
 8004fe6:	701a      	strb	r2, [r3, #0]
    goto error;
 8004fe8:	e128      	b.n	800523c <HAL_SPI_Transmit+0x2a8>
  }

  if ((pData == NULL) || (Size == 0U))
 8004fea:	68bb      	ldr	r3, [r7, #8]
 8004fec:	2b00      	cmp	r3, #0
 8004fee:	d003      	beq.n	8004ff8 <HAL_SPI_Transmit+0x64>
 8004ff0:	1dbb      	adds	r3, r7, #6
 8004ff2:	881b      	ldrh	r3, [r3, #0]
 8004ff4:	2b00      	cmp	r3, #0
 8004ff6:	d104      	bne.n	8005002 <HAL_SPI_Transmit+0x6e>
  {
    errorcode = HAL_ERROR;
 8004ff8:	231f      	movs	r3, #31
 8004ffa:	18fb      	adds	r3, r7, r3
 8004ffc:	2201      	movs	r2, #1
 8004ffe:	701a      	strb	r2, [r3, #0]
    goto error;
 8005000:	e11c      	b.n	800523c <HAL_SPI_Transmit+0x2a8>
  }

  /* Set the transaction information */
  hspi->State       = HAL_SPI_STATE_BUSY_TX;
 8005002:	68fb      	ldr	r3, [r7, #12]
 8005004:	225d      	movs	r2, #93	@ 0x5d
 8005006:	2103      	movs	r1, #3
 8005008:	5499      	strb	r1, [r3, r2]
  hspi->ErrorCode   = HAL_SPI_ERROR_NONE;
 800500a:	68fb      	ldr	r3, [r7, #12]
 800500c:	2200      	movs	r2, #0
 800500e:	661a      	str	r2, [r3, #96]	@ 0x60
  hspi->pTxBuffPtr  = (uint8_t *)pData;
 8005010:	68fb      	ldr	r3, [r7, #12]
 8005012:	68ba      	ldr	r2, [r7, #8]
 8005014:	639a      	str	r2, [r3, #56]	@ 0x38
  hspi->TxXferSize  = Size;
 8005016:	68fb      	ldr	r3, [r7, #12]
 8005018:	1dba      	adds	r2, r7, #6
 800501a:	8812      	ldrh	r2, [r2, #0]
 800501c:	879a      	strh	r2, [r3, #60]	@ 0x3c
  hspi->TxXferCount = Size;
 800501e:	68fb      	ldr	r3, [r7, #12]
 8005020:	1dba      	adds	r2, r7, #6
 8005022:	8812      	ldrh	r2, [r2, #0]
 8005024:	87da      	strh	r2, [r3, #62]	@ 0x3e

  /*Init field not used in handle to zero */
  hspi->pRxBuffPtr  = (uint8_t *)NULL;
 8005026:	68fb      	ldr	r3, [r7, #12]
 8005028:	2200      	movs	r2, #0
 800502a:	641a      	str	r2, [r3, #64]	@ 0x40
  hspi->RxXferSize  = 0U;
 800502c:	68fb      	ldr	r3, [r7, #12]
 800502e:	2244      	movs	r2, #68	@ 0x44
 8005030:	2100      	movs	r1, #0
 8005032:	5299      	strh	r1, [r3, r2]
  hspi->RxXferCount = 0U;
 8005034:	68fb      	ldr	r3, [r7, #12]
 8005036:	2246      	movs	r2, #70	@ 0x46
 8005038:	2100      	movs	r1, #0
 800503a:	5299      	strh	r1, [r3, r2]
  hspi->TxISR       = NULL;
 800503c:	68fb      	ldr	r3, [r7, #12]
 800503e:	2200      	movs	r2, #0
 8005040:	651a      	str	r2, [r3, #80]	@ 0x50
  hspi->RxISR       = NULL;
 8005042:	68fb      	ldr	r3, [r7, #12]
 8005044:	2200      	movs	r2, #0
 8005046:	64da      	str	r2, [r3, #76]	@ 0x4c

  /* Configure communication direction : 1Line */
  if (hspi->Init.Direction == SPI_DIRECTION_1LINE)
 8005048:	68fb      	ldr	r3, [r7, #12]
 800504a:	689a      	ldr	r2, [r3, #8]
 800504c:	2380      	movs	r3, #128	@ 0x80
 800504e:	021b      	lsls	r3, r3, #8
 8005050:	429a      	cmp	r2, r3
 8005052:	d110      	bne.n	8005076 <HAL_SPI_Transmit+0xe2>
  {
    /* Disable SPI Peripheral before set 1Line direction (BIDIOE bit) */
    __HAL_SPI_DISABLE(hspi);
 8005054:	68fb      	ldr	r3, [r7, #12]
 8005056:	681b      	ldr	r3, [r3, #0]
 8005058:	681a      	ldr	r2, [r3, #0]
 800505a:	68fb      	ldr	r3, [r7, #12]
 800505c:	681b      	ldr	r3, [r3, #0]
 800505e:	2140      	movs	r1, #64	@ 0x40
 8005060:	438a      	bics	r2, r1
 8005062:	601a      	str	r2, [r3, #0]
    SPI_1LINE_TX(hspi);
 8005064:	68fb      	ldr	r3, [r7, #12]
 8005066:	681b      	ldr	r3, [r3, #0]
 8005068:	681a      	ldr	r2, [r3, #0]
 800506a:	68fb      	ldr	r3, [r7, #12]
 800506c:	681b      	ldr	r3, [r3, #0]
 800506e:	2180      	movs	r1, #128	@ 0x80
 8005070:	01c9      	lsls	r1, r1, #7
 8005072:	430a      	orrs	r2, r1
 8005074:	601a      	str	r2, [r3, #0]
    SPI_RESET_CRC(hspi);
  }
#endif /* USE_SPI_CRC */

  /* Check if the SPI is already enabled */
  if ((hspi->Instance->CR1 & SPI_CR1_SPE) != SPI_CR1_SPE)
 8005076:	68fb      	ldr	r3, [r7, #12]
 8005078:	681b      	ldr	r3, [r3, #0]
 800507a:	681b      	ldr	r3, [r3, #0]
 800507c:	2240      	movs	r2, #64	@ 0x40
 800507e:	4013      	ands	r3, r2
 8005080:	2b40      	cmp	r3, #64	@ 0x40
 8005082:	d007      	beq.n	8005094 <HAL_SPI_Transmit+0x100>
  {
    /* Enable SPI peripheral */
    __HAL_SPI_ENABLE(hspi);
 8005084:	68fb      	ldr	r3, [r7, #12]
 8005086:	681b      	ldr	r3, [r3, #0]
 8005088:	681a      	ldr	r2, [r3, #0]
 800508a:	68fb      	ldr	r3, [r7, #12]
 800508c:	681b      	ldr	r3, [r3, #0]
 800508e:	2140      	movs	r1, #64	@ 0x40
 8005090:	430a      	orrs	r2, r1
 8005092:	601a      	str	r2, [r3, #0]
  }

  /* Transmit data in 16 Bit mode */
  if (hspi->Init.DataSize > SPI_DATASIZE_8BIT)
 8005094:	68fb      	ldr	r3, [r7, #12]
 8005096:	68da      	ldr	r2, [r3, #12]
 8005098:	23e0      	movs	r3, #224	@ 0xe0
 800509a:	00db      	lsls	r3, r3, #3
 800509c:	429a      	cmp	r2, r3
 800509e:	d952      	bls.n	8005146 <HAL_SPI_Transmit+0x1b2>
  {
    if ((hspi->Init.Mode == SPI_MODE_SLAVE) || (initial_TxXferCount == 0x01U))
 80050a0:	68fb      	ldr	r3, [r7, #12]
 80050a2:	685b      	ldr	r3, [r3, #4]
 80050a4:	2b00      	cmp	r3, #0
 80050a6:	d004      	beq.n	80050b2 <HAL_SPI_Transmit+0x11e>
 80050a8:	2316      	movs	r3, #22
 80050aa:	18fb      	adds	r3, r7, r3
 80050ac:	881b      	ldrh	r3, [r3, #0]
 80050ae:	2b01      	cmp	r3, #1
 80050b0:	d143      	bne.n	800513a <HAL_SPI_Transmit+0x1a6>
    {
      hspi->Instance->DR = *((uint16_t *)hspi->pTxBuffPtr);
 80050b2:	68fb      	ldr	r3, [r7, #12]
 80050b4:	6b9b      	ldr	r3, [r3, #56]	@ 0x38
 80050b6:	881a      	ldrh	r2, [r3, #0]
 80050b8:	68fb      	ldr	r3, [r7, #12]
 80050ba:	681b      	ldr	r3, [r3, #0]
 80050bc:	60da      	str	r2, [r3, #12]
      hspi->pTxBuffPtr += sizeof(uint16_t);
 80050be:	68fb      	ldr	r3, [r7, #12]
 80050c0:	6b9b      	ldr	r3, [r3, #56]	@ 0x38
 80050c2:	1c9a      	adds	r2, r3, #2
 80050c4:	68fb      	ldr	r3, [r7, #12]
 80050c6:	639a      	str	r2, [r3, #56]	@ 0x38
      hspi->TxXferCount--;
 80050c8:	68fb      	ldr	r3, [r7, #12]
 80050ca:	8fdb      	ldrh	r3, [r3, #62]	@ 0x3e
 80050cc:	b29b      	uxth	r3, r3
 80050ce:	3b01      	subs	r3, #1
 80050d0:	b29a      	uxth	r2, r3
 80050d2:	68fb      	ldr	r3, [r7, #12]
 80050d4:	87da      	strh	r2, [r3, #62]	@ 0x3e
    }
    /* Transmit data in 16 Bit mode */
    while (hspi->TxXferCount > 0U)
 80050d6:	e030      	b.n	800513a <HAL_SPI_Transmit+0x1a6>
    {
      /* Wait until TXE flag is set to send data */
      if (__HAL_SPI_GET_FLAG(hspi, SPI_FLAG_TXE))
 80050d8:	68fb      	ldr	r3, [r7, #12]
 80050da:	681b      	ldr	r3, [r3, #0]
 80050dc:	689b      	ldr	r3, [r3, #8]
 80050de:	2202      	movs	r2, #2
 80050e0:	4013      	ands	r3, r2
 80050e2:	2b02      	cmp	r3, #2
 80050e4:	d112      	bne.n	800510c <HAL_SPI_Transmit+0x178>
      {
        hspi->Instance->DR = *((uint16_t *)hspi->pTxBuffPtr);
 80050e6:	68fb      	ldr	r3, [r7, #12]
 80050e8:	6b9b      	ldr	r3, [r3, #56]	@ 0x38
 80050ea:	881a      	ldrh	r2, [r3, #0]
 80050ec:	68fb      	ldr	r3, [r7, #12]
 80050ee:	681b      	ldr	r3, [r3, #0]
 80050f0:	60da      	str	r2, [r3, #12]
        hspi->pTxBuffPtr += sizeof(uint16_t);
 80050f2:	68fb      	ldr	r3, [r7, #12]
 80050f4:	6b9b      	ldr	r3, [r3, #56]	@ 0x38
 80050f6:	1c9a      	adds	r2, r3, #2
 80050f8:	68fb      	ldr	r3, [r7, #12]
 80050fa:	639a      	str	r2, [r3, #56]	@ 0x38
        hspi->TxXferCount--;
 80050fc:	68fb      	ldr	r3, [r7, #12]
 80050fe:	8fdb      	ldrh	r3, [r3, #62]	@ 0x3e
 8005100:	b29b      	uxth	r3, r3
 8005102:	3b01      	subs	r3, #1
 8005104:	b29a      	uxth	r2, r3
 8005106:	68fb      	ldr	r3, [r7, #12]
 8005108:	87da      	strh	r2, [r3, #62]	@ 0x3e
 800510a:	e016      	b.n	800513a <HAL_SPI_Transmit+0x1a6>
      }
      else
      {
        /* Timeout management */
        if ((((HAL_GetTick() - tickstart) >=  Timeout) && (Timeout != HAL_MAX_DELAY)) || (Timeout == 0U))
 800510c:	f7fe f870 	bl	80031f0 <HAL_GetTick>
 8005110:	0002      	movs	r2, r0
 8005112:	69bb      	ldr	r3, [r7, #24]
 8005114:	1ad3      	subs	r3, r2, r3
 8005116:	683a      	ldr	r2, [r7, #0]
 8005118:	429a      	cmp	r2, r3
 800511a:	d802      	bhi.n	8005122 <HAL_SPI_Transmit+0x18e>
 800511c:	683b      	ldr	r3, [r7, #0]
 800511e:	3301      	adds	r3, #1
 8005120:	d102      	bne.n	8005128 <HAL_SPI_Transmit+0x194>
 8005122:	683b      	ldr	r3, [r7, #0]
 8005124:	2b00      	cmp	r3, #0
 8005126:	d108      	bne.n	800513a <HAL_SPI_Transmit+0x1a6>
        {
          errorcode = HAL_TIMEOUT;
 8005128:	231f      	movs	r3, #31
 800512a:	18fb      	adds	r3, r7, r3
 800512c:	2203      	movs	r2, #3
 800512e:	701a      	strb	r2, [r3, #0]
          hspi->State = HAL_SPI_STATE_READY;
 8005130:	68fb      	ldr	r3, [r7, #12]
 8005132:	225d      	movs	r2, #93	@ 0x5d
 8005134:	2101      	movs	r1, #1
 8005136:	5499      	strb	r1, [r3, r2]
          goto error;
 8005138:	e080      	b.n	800523c <HAL_SPI_Transmit+0x2a8>
    while (hspi->TxXferCount > 0U)
 800513a:	68fb      	ldr	r3, [r7, #12]
 800513c:	8fdb      	ldrh	r3, [r3, #62]	@ 0x3e
 800513e:	b29b      	uxth	r3, r3
 8005140:	2b00      	cmp	r3, #0
 8005142:	d1c9      	bne.n	80050d8 <HAL_SPI_Transmit+0x144>
 8005144:	e053      	b.n	80051ee <HAL_SPI_Transmit+0x25a>
    }
  }
  /* Transmit data in 8 Bit mode */
  else
  {
    if ((hspi->Init.Mode == SPI_MODE_SLAVE) || (initial_TxXferCount == 0x01U))
 8005146:	68fb      	ldr	r3, [r7, #12]
 8005148:	685b      	ldr	r3, [r3, #4]
 800514a:	2b00      	cmp	r3, #0
 800514c:	d004      	beq.n	8005158 <HAL_SPI_Transmit+0x1c4>
 800514e:	2316      	movs	r3, #22
 8005150:	18fb      	adds	r3, r7, r3
 8005152:	881b      	ldrh	r3, [r3, #0]
 8005154:	2b01      	cmp	r3, #1
 8005156:	d145      	bne.n	80051e4 <HAL_SPI_Transmit+0x250>
    {
      *((__IO uint8_t *)&hspi->Instance->DR) = (*hspi->pTxBuffPtr);
 8005158:	68fb      	ldr	r3, [r7, #12]
 800515a:	6b9a      	ldr	r2, [r3, #56]	@ 0x38
 800515c:	68fb      	ldr	r3, [r7, #12]
 800515e:	681b      	ldr	r3, [r3, #0]
 8005160:	330c      	adds	r3, #12
 8005162:	7812      	ldrb	r2, [r2, #0]
 8005164:	701a      	strb	r2, [r3, #0]
      hspi->pTxBuffPtr += sizeof(uint8_t);
 8005166:	68fb      	ldr	r3, [r7, #12]
 8005168:	6b9b      	ldr	r3, [r3, #56]	@ 0x38
 800516a:	1c5a      	adds	r2, r3, #1
 800516c:	68fb      	ldr	r3, [r7, #12]
 800516e:	639a      	str	r2, [r3, #56]	@ 0x38
      hspi->TxXferCount--;
 8005170:	68fb      	ldr	r3, [r7, #12]
 8005172:	8fdb      	ldrh	r3, [r3, #62]	@ 0x3e
 8005174:	b29b      	uxth	r3, r3
 8005176:	3b01      	subs	r3, #1
 8005178:	b29a      	uxth	r2, r3
 800517a:	68fb      	ldr	r3, [r7, #12]
 800517c:	87da      	strh	r2, [r3, #62]	@ 0x3e
    }
    while (hspi->TxXferCount > 0U)
 800517e:	e031      	b.n	80051e4 <HAL_SPI_Transmit+0x250>
    {
      /* Wait until TXE flag is set to send data */
      if (__HAL_SPI_GET_FLAG(hspi, SPI_FLAG_TXE))
 8005180:	68fb      	ldr	r3, [r7, #12]
 8005182:	681b      	ldr	r3, [r3, #0]
 8005184:	689b      	ldr	r3, [r3, #8]
 8005186:	2202      	movs	r2, #2
 8005188:	4013      	ands	r3, r2
 800518a:	2b02      	cmp	r3, #2
 800518c:	d113      	bne.n	80051b6 <HAL_SPI_Transmit+0x222>
      {
        *((__IO uint8_t *)&hspi->Instance->DR) = (*hspi->pTxBuffPtr);
 800518e:	68fb      	ldr	r3, [r7, #12]
 8005190:	6b9a      	ldr	r2, [r3, #56]	@ 0x38
 8005192:	68fb      	ldr	r3, [r7, #12]
 8005194:	681b      	ldr	r3, [r3, #0]
 8005196:	330c      	adds	r3, #12
 8005198:	7812      	ldrb	r2, [r2, #0]
 800519a:	701a      	strb	r2, [r3, #0]
        hspi->pTxBuffPtr += sizeof(uint8_t);
 800519c:	68fb      	ldr	r3, [r7, #12]
 800519e:	6b9b      	ldr	r3, [r3, #56]	@ 0x38
 80051a0:	1c5a      	adds	r2, r3, #1
 80051a2:	68fb      	ldr	r3, [r7, #12]
 80051a4:	639a      	str	r2, [r3, #56]	@ 0x38
        hspi->TxXferCount--;
 80051a6:	68fb      	ldr	r3, [r7, #12]
 80051a8:	8fdb      	ldrh	r3, [r3, #62]	@ 0x3e
 80051aa:	b29b      	uxth	r3, r3
 80051ac:	3b01      	subs	r3, #1
 80051ae:	b29a      	uxth	r2, r3
 80051b0:	68fb      	ldr	r3, [r7, #12]
 80051b2:	87da      	strh	r2, [r3, #62]	@ 0x3e
 80051b4:	e016      	b.n	80051e4 <HAL_SPI_Transmit+0x250>
      }
      else
      {
        /* Timeout management */
        if ((((HAL_GetTick() - tickstart) >=  Timeout) && (Timeout != HAL_MAX_DELAY)) || (Timeout == 0U))
 80051b6:	f7fe f81b 	bl	80031f0 <HAL_GetTick>
 80051ba:	0002      	movs	r2, r0
 80051bc:	69bb      	ldr	r3, [r7, #24]
 80051be:	1ad3      	subs	r3, r2, r3
 80051c0:	683a      	ldr	r2, [r7, #0]
 80051c2:	429a      	cmp	r2, r3
 80051c4:	d802      	bhi.n	80051cc <HAL_SPI_Transmit+0x238>
 80051c6:	683b      	ldr	r3, [r7, #0]
 80051c8:	3301      	adds	r3, #1
 80051ca:	d102      	bne.n	80051d2 <HAL_SPI_Transmit+0x23e>
 80051cc:	683b      	ldr	r3, [r7, #0]
 80051ce:	2b00      	cmp	r3, #0
 80051d0:	d108      	bne.n	80051e4 <HAL_SPI_Transmit+0x250>
        {
          errorcode = HAL_TIMEOUT;
 80051d2:	231f      	movs	r3, #31
 80051d4:	18fb      	adds	r3, r7, r3
 80051d6:	2203      	movs	r2, #3
 80051d8:	701a      	strb	r2, [r3, #0]
          hspi->State = HAL_SPI_STATE_READY;
 80051da:	68fb      	ldr	r3, [r7, #12]
 80051dc:	225d      	movs	r2, #93	@ 0x5d
 80051de:	2101      	movs	r1, #1
 80051e0:	5499      	strb	r1, [r3, r2]
          goto error;
 80051e2:	e02b      	b.n	800523c <HAL_SPI_Transmit+0x2a8>
    while (hspi->TxXferCount > 0U)
 80051e4:	68fb      	ldr	r3, [r7, #12]
 80051e6:	8fdb      	ldrh	r3, [r3, #62]	@ 0x3e
 80051e8:	b29b      	uxth	r3, r3
 80051ea:	2b00      	cmp	r3, #0
 80051ec:	d1c8      	bne.n	8005180 <HAL_SPI_Transmit+0x1ec>
    SET_BIT(hspi->Instance->CR1, SPI_CR1_CRCNEXT);
  }
#endif /* USE_SPI_CRC */

  /* Check the end of the transaction */
  if (SPI_EndRxTxTransaction(hspi, Timeout, tickstart) != HAL_OK)
 80051ee:	69ba      	ldr	r2, [r7, #24]
 80051f0:	6839      	ldr	r1, [r7, #0]
 80051f2:	68fb      	ldr	r3, [r7, #12]
 80051f4:	0018      	movs	r0, r3
 80051f6:	f000 f95d 	bl	80054b4 <SPI_EndRxTxTransaction>
 80051fa:	1e03      	subs	r3, r0, #0
 80051fc:	d002      	beq.n	8005204 <HAL_SPI_Transmit+0x270>
  {
    hspi->ErrorCode = HAL_SPI_ERROR_FLAG;
 80051fe:	68fb      	ldr	r3, [r7, #12]
 8005200:	2220      	movs	r2, #32
 8005202:	661a      	str	r2, [r3, #96]	@ 0x60
  }

  /* Clear overrun flag in 2 Lines communication mode because received is not read */
  if (hspi->Init.Direction == SPI_DIRECTION_2LINES)
 8005204:	68fb      	ldr	r3, [r7, #12]
 8005206:	689b      	ldr	r3, [r3, #8]
 8005208:	2b00      	cmp	r3, #0
 800520a:	d10a      	bne.n	8005222 <HAL_SPI_Transmit+0x28e>
  {
    __HAL_SPI_CLEAR_OVRFLAG(hspi);
 800520c:	2300      	movs	r3, #0
 800520e:	613b      	str	r3, [r7, #16]
 8005210:	68fb      	ldr	r3, [r7, #12]
 8005212:	681b      	ldr	r3, [r3, #0]
 8005214:	68db      	ldr	r3, [r3, #12]
 8005216:	613b      	str	r3, [r7, #16]
 8005218:	68fb      	ldr	r3, [r7, #12]
 800521a:	681b      	ldr	r3, [r3, #0]
 800521c:	689b      	ldr	r3, [r3, #8]
 800521e:	613b      	str	r3, [r7, #16]
 8005220:	693b      	ldr	r3, [r7, #16]
  }

  if (hspi->ErrorCode != HAL_SPI_ERROR_NONE)
 8005222:	68fb      	ldr	r3, [r7, #12]
 8005224:	6e1b      	ldr	r3, [r3, #96]	@ 0x60
 8005226:	2b00      	cmp	r3, #0
 8005228:	d004      	beq.n	8005234 <HAL_SPI_Transmit+0x2a0>
  {
    errorcode = HAL_ERROR;
 800522a:	231f      	movs	r3, #31
 800522c:	18fb      	adds	r3, r7, r3
 800522e:	2201      	movs	r2, #1
 8005230:	701a      	strb	r2, [r3, #0]
 8005232:	e003      	b.n	800523c <HAL_SPI_Transmit+0x2a8>
  }
  else
  {
    hspi->State = HAL_SPI_STATE_READY;
 8005234:	68fb      	ldr	r3, [r7, #12]
 8005236:	225d      	movs	r2, #93	@ 0x5d
 8005238:	2101      	movs	r1, #1
 800523a:	5499      	strb	r1, [r3, r2]
  }

error:
  /* Process Unlocked */
  __HAL_UNLOCK(hspi);
 800523c:	68fb      	ldr	r3, [r7, #12]
 800523e:	225c      	movs	r2, #92	@ 0x5c
 8005240:	2100      	movs	r1, #0
 8005242:	5499      	strb	r1, [r3, r2]
  return errorcode;
 8005244:	231f      	movs	r3, #31
 8005246:	18fb      	adds	r3, r7, r3
 8005248:	781b      	ldrb	r3, [r3, #0]
}
 800524a:	0018      	movs	r0, r3
 800524c:	46bd      	mov	sp, r7
 800524e:	b008      	add	sp, #32
 8005250:	bd80      	pop	{r7, pc}
	...

08005254 <SPI_WaitFlagStateUntilTimeout>:
  * @param  Tickstart tick start value
  * @retval HAL status
  */
static HAL_StatusTypeDef SPI_WaitFlagStateUntilTimeout(SPI_HandleTypeDef *hspi, uint32_t Flag, FlagStatus State,
                                                       uint32_t Timeout, uint32_t Tickstart)
{
 8005254:	b580      	push	{r7, lr}
 8005256:	b088      	sub	sp, #32
 8005258:	af00      	add	r7, sp, #0
 800525a:	60f8      	str	r0, [r7, #12]
 800525c:	60b9      	str	r1, [r7, #8]
 800525e:	603b      	str	r3, [r7, #0]
 8005260:	1dfb      	adds	r3, r7, #7
 8005262:	701a      	strb	r2, [r3, #0]
  __IO uint32_t count;
  uint32_t tmp_timeout;
  uint32_t tmp_tickstart;

  /* Adjust Timeout value  in case of end of transfer */
  tmp_timeout   = Timeout - (HAL_GetTick() - Tickstart);
 8005264:	f7fd ffc4 	bl	80031f0 <HAL_GetTick>
 8005268:	0002      	movs	r2, r0
 800526a:	6abb      	ldr	r3, [r7, #40]	@ 0x28
 800526c:	1a9b      	subs	r3, r3, r2
 800526e:	683a      	ldr	r2, [r7, #0]
 8005270:	18d3      	adds	r3, r2, r3
 8005272:	61fb      	str	r3, [r7, #28]
  tmp_tickstart = HAL_GetTick();
 8005274:	f7fd ffbc 	bl	80031f0 <HAL_GetTick>
 8005278:	0003      	movs	r3, r0
 800527a:	61bb      	str	r3, [r7, #24]

  /* Calculate Timeout based on a software loop to avoid blocking issue if Systick is disabled */
  count = tmp_timeout * ((SystemCoreClock * 32U) >> 20U);
 800527c:	4b3a      	ldr	r3, [pc, #232]	@ (8005368 <SPI_WaitFlagStateUntilTimeout+0x114>)
 800527e:	681b      	ldr	r3, [r3, #0]
 8005280:	015b      	lsls	r3, r3, #5
 8005282:	0d1b      	lsrs	r3, r3, #20
 8005284:	69fa      	ldr	r2, [r7, #28]
 8005286:	4353      	muls	r3, r2
 8005288:	617b      	str	r3, [r7, #20]

  while ((__HAL_SPI_GET_FLAG(hspi, Flag) ? SET : RESET) != State)
 800528a:	e058      	b.n	800533e <SPI_WaitFlagStateUntilTimeout+0xea>
  {
    if (Timeout != HAL_MAX_DELAY)
 800528c:	683b      	ldr	r3, [r7, #0]
 800528e:	3301      	adds	r3, #1
 8005290:	d055      	beq.n	800533e <SPI_WaitFlagStateUntilTimeout+0xea>
    {
      if (((HAL_GetTick() - tmp_tickstart) >= tmp_timeout) || (tmp_timeout == 0U))
 8005292:	f7fd ffad 	bl	80031f0 <HAL_GetTick>
 8005296:	0002      	movs	r2, r0
 8005298:	69bb      	ldr	r3, [r7, #24]
 800529a:	1ad3      	subs	r3, r2, r3
 800529c:	69fa      	ldr	r2, [r7, #28]
 800529e:	429a      	cmp	r2, r3
 80052a0:	d902      	bls.n	80052a8 <SPI_WaitFlagStateUntilTimeout+0x54>
 80052a2:	69fb      	ldr	r3, [r7, #28]
 80052a4:	2b00      	cmp	r3, #0
 80052a6:	d142      	bne.n	800532e <SPI_WaitFlagStateUntilTimeout+0xda>
        /* Disable the SPI and reset the CRC: the CRC value should be cleared
           on both master and slave sides in order to resynchronize the master
           and slave for their respective CRC calculation */

        /* Disable TXE, RXNE and ERR interrupts for the interrupt process */
        __HAL_SPI_DISABLE_IT(hspi, (SPI_IT_TXE | SPI_IT_RXNE | SPI_IT_ERR));
 80052a8:	68fb      	ldr	r3, [r7, #12]
 80052aa:	681b      	ldr	r3, [r3, #0]
 80052ac:	685a      	ldr	r2, [r3, #4]
 80052ae:	68fb      	ldr	r3, [r7, #12]
 80052b0:	681b      	ldr	r3, [r3, #0]
 80052b2:	21e0      	movs	r1, #224	@ 0xe0
 80052b4:	438a      	bics	r2, r1
 80052b6:	605a      	str	r2, [r3, #4]

        if ((hspi->Init.Mode == SPI_MODE_MASTER) && ((hspi->Init.Direction == SPI_DIRECTION_1LINE)
 80052b8:	68fb      	ldr	r3, [r7, #12]
 80052ba:	685a      	ldr	r2, [r3, #4]
 80052bc:	2382      	movs	r3, #130	@ 0x82
 80052be:	005b      	lsls	r3, r3, #1
 80052c0:	429a      	cmp	r2, r3
 80052c2:	d113      	bne.n	80052ec <SPI_WaitFlagStateUntilTimeout+0x98>
 80052c4:	68fb      	ldr	r3, [r7, #12]
 80052c6:	689a      	ldr	r2, [r3, #8]
 80052c8:	2380      	movs	r3, #128	@ 0x80
 80052ca:	021b      	lsls	r3, r3, #8
 80052cc:	429a      	cmp	r2, r3
 80052ce:	d005      	beq.n	80052dc <SPI_WaitFlagStateUntilTimeout+0x88>
                                                     || (hspi->Init.Direction == SPI_DIRECTION_2LINES_RXONLY)))
 80052d0:	68fb      	ldr	r3, [r7, #12]
 80052d2:	689a      	ldr	r2, [r3, #8]
 80052d4:	2380      	movs	r3, #128	@ 0x80
 80052d6:	00db      	lsls	r3, r3, #3
 80052d8:	429a      	cmp	r2, r3
 80052da:	d107      	bne.n	80052ec <SPI_WaitFlagStateUntilTimeout+0x98>
        {
          /* Disable SPI peripheral */
          __HAL_SPI_DISABLE(hspi);
 80052dc:	68fb      	ldr	r3, [r7, #12]
 80052de:	681b      	ldr	r3, [r3, #0]
 80052e0:	681a      	ldr	r2, [r3, #0]
 80052e2:	68fb      	ldr	r3, [r7, #12]
 80052e4:	681b      	ldr	r3, [r3, #0]
 80052e6:	2140      	movs	r1, #64	@ 0x40
 80052e8:	438a      	bics	r2, r1
 80052ea:	601a      	str	r2, [r3, #0]
        }

        /* Reset CRC Calculation */
        if (hspi->Init.CRCCalculation == SPI_CRCCALCULATION_ENABLE)
 80052ec:	68fb      	ldr	r3, [r7, #12]
 80052ee:	6a9a      	ldr	r2, [r3, #40]	@ 0x28
 80052f0:	2380      	movs	r3, #128	@ 0x80
 80052f2:	019b      	lsls	r3, r3, #6
 80052f4:	429a      	cmp	r2, r3
 80052f6:	d110      	bne.n	800531a <SPI_WaitFlagStateUntilTimeout+0xc6>
        {
          SPI_RESET_CRC(hspi);
 80052f8:	68fb      	ldr	r3, [r7, #12]
 80052fa:	681b      	ldr	r3, [r3, #0]
 80052fc:	681a      	ldr	r2, [r3, #0]
 80052fe:	68fb      	ldr	r3, [r7, #12]
 8005300:	681b      	ldr	r3, [r3, #0]
 8005302:	491a      	ldr	r1, [pc, #104]	@ (800536c <SPI_WaitFlagStateUntilTimeout+0x118>)
 8005304:	400a      	ands	r2, r1
 8005306:	601a      	str	r2, [r3, #0]
 8005308:	68fb      	ldr	r3, [r7, #12]
 800530a:	681b      	ldr	r3, [r3, #0]
 800530c:	681a      	ldr	r2, [r3, #0]
 800530e:	68fb      	ldr	r3, [r7, #12]
 8005310:	681b      	ldr	r3, [r3, #0]
 8005312:	2180      	movs	r1, #128	@ 0x80
 8005314:	0189      	lsls	r1, r1, #6
 8005316:	430a      	orrs	r2, r1
 8005318:	601a      	str	r2, [r3, #0]
        }

        hspi->State = HAL_SPI_STATE_READY;
 800531a:	68fb      	ldr	r3, [r7, #12]
 800531c:	225d      	movs	r2, #93	@ 0x5d
 800531e:	2101      	movs	r1, #1
 8005320:	5499      	strb	r1, [r3, r2]

        /* Process Unlocked */
        __HAL_UNLOCK(hspi);
 8005322:	68fb      	ldr	r3, [r7, #12]
 8005324:	225c      	movs	r2, #92	@ 0x5c
 8005326:	2100      	movs	r1, #0
 8005328:	5499      	strb	r1, [r3, r2]

        return HAL_TIMEOUT;
 800532a:	2303      	movs	r3, #3
 800532c:	e017      	b.n	800535e <SPI_WaitFlagStateUntilTimeout+0x10a>
      }
      /* If Systick is disabled or not incremented, deactivate timeout to go in disable loop procedure */
      if (count == 0U)
 800532e:	697b      	ldr	r3, [r7, #20]
 8005330:	2b00      	cmp	r3, #0
 8005332:	d101      	bne.n	8005338 <SPI_WaitFlagStateUntilTimeout+0xe4>
      {
        tmp_timeout = 0U;
 8005334:	2300      	movs	r3, #0
 8005336:	61fb      	str	r3, [r7, #28]
      }
      count--;
 8005338:	697b      	ldr	r3, [r7, #20]
 800533a:	3b01      	subs	r3, #1
 800533c:	617b      	str	r3, [r7, #20]
  while ((__HAL_SPI_GET_FLAG(hspi, Flag) ? SET : RESET) != State)
 800533e:	68fb      	ldr	r3, [r7, #12]
 8005340:	681b      	ldr	r3, [r3, #0]
 8005342:	689b      	ldr	r3, [r3, #8]
 8005344:	68ba      	ldr	r2, [r7, #8]
 8005346:	4013      	ands	r3, r2
 8005348:	68ba      	ldr	r2, [r7, #8]
 800534a:	1ad3      	subs	r3, r2, r3
 800534c:	425a      	negs	r2, r3
 800534e:	4153      	adcs	r3, r2
 8005350:	b2db      	uxtb	r3, r3
 8005352:	001a      	movs	r2, r3
 8005354:	1dfb      	adds	r3, r7, #7
 8005356:	781b      	ldrb	r3, [r3, #0]
 8005358:	429a      	cmp	r2, r3
 800535a:	d197      	bne.n	800528c <SPI_WaitFlagStateUntilTimeout+0x38>
    }
  }

  return HAL_OK;
 800535c:	2300      	movs	r3, #0
}
 800535e:	0018      	movs	r0, r3
 8005360:	46bd      	mov	sp, r7
 8005362:	b008      	add	sp, #32
 8005364:	bd80      	pop	{r7, pc}
 8005366:	46c0      	nop			@ (mov r8, r8)
 8005368:	20000000 	.word	0x20000000
 800536c:	ffffdfff 	.word	0xffffdfff

08005370 <SPI_WaitFifoStateUntilTimeout>:
  * @param  Tickstart tick start value
  * @retval HAL status
  */
static HAL_StatusTypeDef SPI_WaitFifoStateUntilTimeout(SPI_HandleTypeDef *hspi, uint32_t Fifo, uint32_t State,
                                                       uint32_t Timeout, uint32_t Tickstart)
{
 8005370:	b580      	push	{r7, lr}
 8005372:	b08a      	sub	sp, #40	@ 0x28
 8005374:	af00      	add	r7, sp, #0
 8005376:	60f8      	str	r0, [r7, #12]
 8005378:	60b9      	str	r1, [r7, #8]
 800537a:	607a      	str	r2, [r7, #4]
 800537c:	603b      	str	r3, [r7, #0]
  __IO uint32_t count;
  uint32_t tmp_timeout;
  uint32_t tmp_tickstart;
  __IO uint8_t  *ptmpreg8;
  __IO uint8_t  tmpreg8 = 0;
 800537e:	2317      	movs	r3, #23
 8005380:	18fb      	adds	r3, r7, r3
 8005382:	2200      	movs	r2, #0
 8005384:	701a      	strb	r2, [r3, #0]

  /* Adjust Timeout value  in case of end of transfer */
  tmp_timeout = Timeout - (HAL_GetTick() - Tickstart);
 8005386:	f7fd ff33 	bl	80031f0 <HAL_GetTick>
 800538a:	0002      	movs	r2, r0
 800538c:	6b3b      	ldr	r3, [r7, #48]	@ 0x30
 800538e:	1a9b      	subs	r3, r3, r2
 8005390:	683a      	ldr	r2, [r7, #0]
 8005392:	18d3      	adds	r3, r2, r3
 8005394:	627b      	str	r3, [r7, #36]	@ 0x24
  tmp_tickstart = HAL_GetTick();
 8005396:	f7fd ff2b 	bl	80031f0 <HAL_GetTick>
 800539a:	0003      	movs	r3, r0
 800539c:	623b      	str	r3, [r7, #32]

  /* Initialize the 8bit temporary pointer */
  ptmpreg8 = (__IO uint8_t *)&hspi->Instance->DR;
 800539e:	68fb      	ldr	r3, [r7, #12]
 80053a0:	681b      	ldr	r3, [r3, #0]
 80053a2:	330c      	adds	r3, #12
 80053a4:	61fb      	str	r3, [r7, #28]

  /* Calculate Timeout based on a software loop to avoid blocking issue if Systick is disabled */
  count = tmp_timeout * ((SystemCoreClock * 35U) >> 20U);
 80053a6:	4b41      	ldr	r3, [pc, #260]	@ (80054ac <SPI_WaitFifoStateUntilTimeout+0x13c>)
 80053a8:	681a      	ldr	r2, [r3, #0]
 80053aa:	0013      	movs	r3, r2
 80053ac:	009b      	lsls	r3, r3, #2
 80053ae:	189b      	adds	r3, r3, r2
 80053b0:	00da      	lsls	r2, r3, #3
 80053b2:	1ad3      	subs	r3, r2, r3
 80053b4:	0d1b      	lsrs	r3, r3, #20
 80053b6:	6a7a      	ldr	r2, [r7, #36]	@ 0x24
 80053b8:	4353      	muls	r3, r2
 80053ba:	61bb      	str	r3, [r7, #24]

  while ((hspi->Instance->SR & Fifo) != State)
 80053bc:	e068      	b.n	8005490 <SPI_WaitFifoStateUntilTimeout+0x120>
  {
    if ((Fifo == SPI_SR_FRLVL) && (State == SPI_FRLVL_EMPTY))
 80053be:	68ba      	ldr	r2, [r7, #8]
 80053c0:	23c0      	movs	r3, #192	@ 0xc0
 80053c2:	00db      	lsls	r3, r3, #3
 80053c4:	429a      	cmp	r2, r3
 80053c6:	d10a      	bne.n	80053de <SPI_WaitFifoStateUntilTimeout+0x6e>
 80053c8:	687b      	ldr	r3, [r7, #4]
 80053ca:	2b00      	cmp	r3, #0
 80053cc:	d107      	bne.n	80053de <SPI_WaitFifoStateUntilTimeout+0x6e>
    {
      /* Flush Data Register by a blank read */
      tmpreg8 = *ptmpreg8;
 80053ce:	69fb      	ldr	r3, [r7, #28]
 80053d0:	781b      	ldrb	r3, [r3, #0]
 80053d2:	b2da      	uxtb	r2, r3
 80053d4:	2117      	movs	r1, #23
 80053d6:	187b      	adds	r3, r7, r1
 80053d8:	701a      	strb	r2, [r3, #0]
      /* To avoid GCC warning */
      UNUSED(tmpreg8);
 80053da:	187b      	adds	r3, r7, r1
 80053dc:	781b      	ldrb	r3, [r3, #0]
    }

    if (Timeout != HAL_MAX_DELAY)
 80053de:	683b      	ldr	r3, [r7, #0]
 80053e0:	3301      	adds	r3, #1
 80053e2:	d055      	beq.n	8005490 <SPI_WaitFifoStateUntilTimeout+0x120>
    {
      if (((HAL_GetTick() - tmp_tickstart) >= tmp_timeout) || (tmp_timeout == 0U))
 80053e4:	f7fd ff04 	bl	80031f0 <HAL_GetTick>
 80053e8:	0002      	movs	r2, r0
 80053ea:	6a3b      	ldr	r3, [r7, #32]
 80053ec:	1ad3      	subs	r3, r2, r3
 80053ee:	6a7a      	ldr	r2, [r7, #36]	@ 0x24
 80053f0:	429a      	cmp	r2, r3
 80053f2:	d902      	bls.n	80053fa <SPI_WaitFifoStateUntilTimeout+0x8a>
 80053f4:	6a7b      	ldr	r3, [r7, #36]	@ 0x24
 80053f6:	2b00      	cmp	r3, #0
 80053f8:	d142      	bne.n	8005480 <SPI_WaitFifoStateUntilTimeout+0x110>
        /* Disable the SPI and reset the CRC: the CRC value should be cleared
           on both master and slave sides in order to resynchronize the master
           and slave for their respective CRC calculation */

        /* Disable TXE, RXNE and ERR interrupts for the interrupt process */
        __HAL_SPI_DISABLE_IT(hspi, (SPI_IT_TXE | SPI_IT_RXNE | SPI_IT_ERR));
 80053fa:	68fb      	ldr	r3, [r7, #12]
 80053fc:	681b      	ldr	r3, [r3, #0]
 80053fe:	685a      	ldr	r2, [r3, #4]
 8005400:	68fb      	ldr	r3, [r7, #12]
 8005402:	681b      	ldr	r3, [r3, #0]
 8005404:	21e0      	movs	r1, #224	@ 0xe0
 8005406:	438a      	bics	r2, r1
 8005408:	605a      	str	r2, [r3, #4]

        if ((hspi->Init.Mode == SPI_MODE_MASTER) && ((hspi->Init.Direction == SPI_DIRECTION_1LINE)
 800540a:	68fb      	ldr	r3, [r7, #12]
 800540c:	685a      	ldr	r2, [r3, #4]
 800540e:	2382      	movs	r3, #130	@ 0x82
 8005410:	005b      	lsls	r3, r3, #1
 8005412:	429a      	cmp	r2, r3
 8005414:	d113      	bne.n	800543e <SPI_WaitFifoStateUntilTimeout+0xce>
 8005416:	68fb      	ldr	r3, [r7, #12]
 8005418:	689a      	ldr	r2, [r3, #8]
 800541a:	2380      	movs	r3, #128	@ 0x80
 800541c:	021b      	lsls	r3, r3, #8
 800541e:	429a      	cmp	r2, r3
 8005420:	d005      	beq.n	800542e <SPI_WaitFifoStateUntilTimeout+0xbe>
                                                     || (hspi->Init.Direction == SPI_DIRECTION_2LINES_RXONLY)))
 8005422:	68fb      	ldr	r3, [r7, #12]
 8005424:	689a      	ldr	r2, [r3, #8]
 8005426:	2380      	movs	r3, #128	@ 0x80
 8005428:	00db      	lsls	r3, r3, #3
 800542a:	429a      	cmp	r2, r3
 800542c:	d107      	bne.n	800543e <SPI_WaitFifoStateUntilTimeout+0xce>
        {
          /* Disable SPI peripheral */
          __HAL_SPI_DISABLE(hspi);
 800542e:	68fb      	ldr	r3, [r7, #12]
 8005430:	681b      	ldr	r3, [r3, #0]
 8005432:	681a      	ldr	r2, [r3, #0]
 8005434:	68fb      	ldr	r3, [r7, #12]
 8005436:	681b      	ldr	r3, [r3, #0]
 8005438:	2140      	movs	r1, #64	@ 0x40
 800543a:	438a      	bics	r2, r1
 800543c:	601a      	str	r2, [r3, #0]
        }

        /* Reset CRC Calculation */
        if (hspi->Init.CRCCalculation == SPI_CRCCALCULATION_ENABLE)
 800543e:	68fb      	ldr	r3, [r7, #12]
 8005440:	6a9a      	ldr	r2, [r3, #40]	@ 0x28
 8005442:	2380      	movs	r3, #128	@ 0x80
 8005444:	019b      	lsls	r3, r3, #6
 8005446:	429a      	cmp	r2, r3
 8005448:	d110      	bne.n	800546c <SPI_WaitFifoStateUntilTimeout+0xfc>
        {
          SPI_RESET_CRC(hspi);
 800544a:	68fb      	ldr	r3, [r7, #12]
 800544c:	681b      	ldr	r3, [r3, #0]
 800544e:	681a      	ldr	r2, [r3, #0]
 8005450:	68fb      	ldr	r3, [r7, #12]
 8005452:	681b      	ldr	r3, [r3, #0]
 8005454:	4916      	ldr	r1, [pc, #88]	@ (80054b0 <SPI_WaitFifoStateUntilTimeout+0x140>)
 8005456:	400a      	ands	r2, r1
 8005458:	601a      	str	r2, [r3, #0]
 800545a:	68fb      	ldr	r3, [r7, #12]
 800545c:	681b      	ldr	r3, [r3, #0]
 800545e:	681a      	ldr	r2, [r3, #0]
 8005460:	68fb      	ldr	r3, [r7, #12]
 8005462:	681b      	ldr	r3, [r3, #0]
 8005464:	2180      	movs	r1, #128	@ 0x80
 8005466:	0189      	lsls	r1, r1, #6
 8005468:	430a      	orrs	r2, r1
 800546a:	601a      	str	r2, [r3, #0]
        }

        hspi->State = HAL_SPI_STATE_READY;
 800546c:	68fb      	ldr	r3, [r7, #12]
 800546e:	225d      	movs	r2, #93	@ 0x5d
 8005470:	2101      	movs	r1, #1
 8005472:	5499      	strb	r1, [r3, r2]

        /* Process Unlocked */
        __HAL_UNLOCK(hspi);
 8005474:	68fb      	ldr	r3, [r7, #12]
 8005476:	225c      	movs	r2, #92	@ 0x5c
 8005478:	2100      	movs	r1, #0
 800547a:	5499      	strb	r1, [r3, r2]

        return HAL_TIMEOUT;
 800547c:	2303      	movs	r3, #3
 800547e:	e010      	b.n	80054a2 <SPI_WaitFifoStateUntilTimeout+0x132>
      }
      /* If Systick is disabled or not incremented, deactivate timeout to go in disable loop procedure */
      if (count == 0U)
 8005480:	69bb      	ldr	r3, [r7, #24]
 8005482:	2b00      	cmp	r3, #0
 8005484:	d101      	bne.n	800548a <SPI_WaitFifoStateUntilTimeout+0x11a>
      {
        tmp_timeout = 0U;
 8005486:	2300      	movs	r3, #0
 8005488:	627b      	str	r3, [r7, #36]	@ 0x24
      }
      count--;
 800548a:	69bb      	ldr	r3, [r7, #24]
 800548c:	3b01      	subs	r3, #1
 800548e:	61bb      	str	r3, [r7, #24]
  while ((hspi->Instance->SR & Fifo) != State)
 8005490:	68fb      	ldr	r3, [r7, #12]
 8005492:	681b      	ldr	r3, [r3, #0]
 8005494:	689b      	ldr	r3, [r3, #8]
 8005496:	68ba      	ldr	r2, [r7, #8]
 8005498:	4013      	ands	r3, r2
 800549a:	687a      	ldr	r2, [r7, #4]
 800549c:	429a      	cmp	r2, r3
 800549e:	d18e      	bne.n	80053be <SPI_WaitFifoStateUntilTimeout+0x4e>
    }
  }

  return HAL_OK;
 80054a0:	2300      	movs	r3, #0
}
 80054a2:	0018      	movs	r0, r3
 80054a4:	46bd      	mov	sp, r7
 80054a6:	b00a      	add	sp, #40	@ 0x28
 80054a8:	bd80      	pop	{r7, pc}
 80054aa:	46c0      	nop			@ (mov r8, r8)
 80054ac:	20000000 	.word	0x20000000
 80054b0:	ffffdfff 	.word	0xffffdfff

080054b4 <SPI_EndRxTxTransaction>:
  * @param  Timeout Timeout duration
  * @param  Tickstart tick start value
  * @retval HAL status
  */
static HAL_StatusTypeDef SPI_EndRxTxTransaction(SPI_HandleTypeDef *hspi, uint32_t Timeout, uint32_t Tickstart)
{
 80054b4:	b580      	push	{r7, lr}
 80054b6:	b086      	sub	sp, #24
 80054b8:	af02      	add	r7, sp, #8
 80054ba:	60f8      	str	r0, [r7, #12]
 80054bc:	60b9      	str	r1, [r7, #8]
 80054be:	607a      	str	r2, [r7, #4]
  /* Control if the TX fifo is empty */
  if (SPI_WaitFifoStateUntilTimeout(hspi, SPI_FLAG_FTLVL, SPI_FTLVL_EMPTY, Timeout, Tickstart) != HAL_OK)
 80054c0:	68ba      	ldr	r2, [r7, #8]
 80054c2:	23c0      	movs	r3, #192	@ 0xc0
 80054c4:	0159      	lsls	r1, r3, #5
 80054c6:	68f8      	ldr	r0, [r7, #12]
 80054c8:	687b      	ldr	r3, [r7, #4]
 80054ca:	9300      	str	r3, [sp, #0]
 80054cc:	0013      	movs	r3, r2
 80054ce:	2200      	movs	r2, #0
 80054d0:	f7ff ff4e 	bl	8005370 <SPI_WaitFifoStateUntilTimeout>
 80054d4:	1e03      	subs	r3, r0, #0
 80054d6:	d007      	beq.n	80054e8 <SPI_EndRxTxTransaction+0x34>
  {
    SET_BIT(hspi->ErrorCode, HAL_SPI_ERROR_FLAG);
 80054d8:	68fb      	ldr	r3, [r7, #12]
 80054da:	6e1b      	ldr	r3, [r3, #96]	@ 0x60
 80054dc:	2220      	movs	r2, #32
 80054de:	431a      	orrs	r2, r3
 80054e0:	68fb      	ldr	r3, [r7, #12]
 80054e2:	661a      	str	r2, [r3, #96]	@ 0x60
    return HAL_TIMEOUT;
 80054e4:	2303      	movs	r3, #3
 80054e6:	e027      	b.n	8005538 <SPI_EndRxTxTransaction+0x84>
  }

  /* Control the BSY flag */
  if (SPI_WaitFlagStateUntilTimeout(hspi, SPI_FLAG_BSY, RESET, Timeout, Tickstart) != HAL_OK)
 80054e8:	68ba      	ldr	r2, [r7, #8]
 80054ea:	68f8      	ldr	r0, [r7, #12]
 80054ec:	687b      	ldr	r3, [r7, #4]
 80054ee:	9300      	str	r3, [sp, #0]
 80054f0:	0013      	movs	r3, r2
 80054f2:	2200      	movs	r2, #0
 80054f4:	2180      	movs	r1, #128	@ 0x80
 80054f6:	f7ff fead 	bl	8005254 <SPI_WaitFlagStateUntilTimeout>
 80054fa:	1e03      	subs	r3, r0, #0
 80054fc:	d007      	beq.n	800550e <SPI_EndRxTxTransaction+0x5a>
  {
    SET_BIT(hspi->ErrorCode, HAL_SPI_ERROR_FLAG);
 80054fe:	68fb      	ldr	r3, [r7, #12]
 8005500:	6e1b      	ldr	r3, [r3, #96]	@ 0x60
 8005502:	2220      	movs	r2, #32
 8005504:	431a      	orrs	r2, r3
 8005506:	68fb      	ldr	r3, [r7, #12]
 8005508:	661a      	str	r2, [r3, #96]	@ 0x60
    return HAL_TIMEOUT;
 800550a:	2303      	movs	r3, #3
 800550c:	e014      	b.n	8005538 <SPI_EndRxTxTransaction+0x84>
  }

  /* Control if the RX fifo is empty */
  if (SPI_WaitFifoStateUntilTimeout(hspi, SPI_FLAG_FRLVL, SPI_FRLVL_EMPTY, Timeout, Tickstart) != HAL_OK)
 800550e:	68ba      	ldr	r2, [r7, #8]
 8005510:	23c0      	movs	r3, #192	@ 0xc0
 8005512:	00d9      	lsls	r1, r3, #3
 8005514:	68f8      	ldr	r0, [r7, #12]
 8005516:	687b      	ldr	r3, [r7, #4]
 8005518:	9300      	str	r3, [sp, #0]
 800551a:	0013      	movs	r3, r2
 800551c:	2200      	movs	r2, #0
 800551e:	f7ff ff27 	bl	8005370 <SPI_WaitFifoStateUntilTimeout>
 8005522:	1e03      	subs	r3, r0, #0
 8005524:	d007      	beq.n	8005536 <SPI_EndRxTxTransaction+0x82>
  {
    SET_BIT(hspi->ErrorCode, HAL_SPI_ERROR_FLAG);
 8005526:	68fb      	ldr	r3, [r7, #12]
 8005528:	6e1b      	ldr	r3, [r3, #96]	@ 0x60
 800552a:	2220      	movs	r2, #32
 800552c:	431a      	orrs	r2, r3
 800552e:	68fb      	ldr	r3, [r7, #12]
 8005530:	661a      	str	r2, [r3, #96]	@ 0x60
    return HAL_TIMEOUT;
 8005532:	2303      	movs	r3, #3
 8005534:	e000      	b.n	8005538 <SPI_EndRxTxTransaction+0x84>
  }

  return HAL_OK;
 8005536:	2300      	movs	r3, #0
}
 8005538:	0018      	movs	r0, r3
 800553a:	46bd      	mov	sp, r7
 800553c:	b004      	add	sp, #16
 800553e:	bd80      	pop	{r7, pc}

08005540 <HAL_TIM_Base_Init>:
  *         Ex: call @ref HAL_TIM_Base_DeInit() before HAL_TIM_Base_Init()
  * @param  htim TIM Base handle
  * @retval HAL status
  */
HAL_StatusTypeDef HAL_TIM_Base_Init(TIM_HandleTypeDef *htim)
{
 8005540:	b580      	push	{r7, lr}
 8005542:	b082      	sub	sp, #8
 8005544:	af00      	add	r7, sp, #0
 8005546:	6078      	str	r0, [r7, #4]
  /* Check the TIM handle allocation */
  if (htim == NULL)
 8005548:	687b      	ldr	r3, [r7, #4]
 800554a:	2b00      	cmp	r3, #0
 800554c:	d101      	bne.n	8005552 <HAL_TIM_Base_Init+0x12>
  {
    return HAL_ERROR;
 800554e:	2301      	movs	r3, #1
 8005550:	e042      	b.n	80055d8 <HAL_TIM_Base_Init+0x98>
  assert_param(IS_TIM_COUNTER_MODE(htim->Init.CounterMode));
  assert_param(IS_TIM_CLOCKDIVISION_DIV(htim->Init.ClockDivision));
  assert_param(IS_TIM_PERIOD(htim, htim->Init.Period));
  assert_param(IS_TIM_AUTORELOAD_PRELOAD(htim->Init.AutoReloadPreload));

  if (htim->State == HAL_TIM_STATE_RESET)
 8005552:	687b      	ldr	r3, [r7, #4]
 8005554:	223d      	movs	r2, #61	@ 0x3d
 8005556:	5c9b      	ldrb	r3, [r3, r2]
 8005558:	b2db      	uxtb	r3, r3
 800555a:	2b00      	cmp	r3, #0
 800555c:	d107      	bne.n	800556e <HAL_TIM_Base_Init+0x2e>
  {
    /* Allocate lock resource and initialize it */
    htim->Lock = HAL_UNLOCKED;
 800555e:	687b      	ldr	r3, [r7, #4]
 8005560:	223c      	movs	r2, #60	@ 0x3c
 8005562:	2100      	movs	r1, #0
 8005564:	5499      	strb	r1, [r3, r2]
    }
    /* Init the low level hardware : GPIO, CLOCK, NVIC */
    htim->Base_MspInitCallback(htim);
#else
    /* Init the low level hardware : GPIO, CLOCK, NVIC */
    HAL_TIM_Base_MspInit(htim);
 8005566:	687b      	ldr	r3, [r7, #4]
 8005568:	0018      	movs	r0, r3
 800556a:	f7fb fabd 	bl	8000ae8 <HAL_TIM_Base_MspInit>
#endif /* USE_HAL_TIM_REGISTER_CALLBACKS */
  }

  /* Set the TIM state */
  htim->State = HAL_TIM_STATE_BUSY;
 800556e:	687b      	ldr	r3, [r7, #4]
 8005570:	223d      	movs	r2, #61	@ 0x3d
 8005572:	2102      	movs	r1, #2
 8005574:	5499      	strb	r1, [r3, r2]

  /* Set the Time Base configuration */
  TIM_Base_SetConfig(htim->Instance, &htim->Init);
 8005576:	687b      	ldr	r3, [r7, #4]
 8005578:	681a      	ldr	r2, [r3, #0]
 800557a:	687b      	ldr	r3, [r7, #4]
 800557c:	3304      	adds	r3, #4
 800557e:	0019      	movs	r1, r3
 8005580:	0010      	movs	r0, r2
 8005582:	f000 f94b 	bl	800581c <TIM_Base_SetConfig>

  /* Initialize the DMA burst operation state */
  htim->DMABurstState = HAL_DMA_BURST_STATE_READY;
 8005586:	687b      	ldr	r3, [r7, #4]
 8005588:	2246      	movs	r2, #70	@ 0x46
 800558a:	2101      	movs	r1, #1
 800558c:	5499      	strb	r1, [r3, r2]

  /* Initialize the TIM channels state */
  TIM_CHANNEL_STATE_SET_ALL(htim, HAL_TIM_CHANNEL_STATE_READY);
 800558e:	687b      	ldr	r3, [r7, #4]
 8005590:	223e      	movs	r2, #62	@ 0x3e
 8005592:	2101      	movs	r1, #1
 8005594:	5499      	strb	r1, [r3, r2]
 8005596:	687b      	ldr	r3, [r7, #4]
 8005598:	223f      	movs	r2, #63	@ 0x3f
 800559a:	2101      	movs	r1, #1
 800559c:	5499      	strb	r1, [r3, r2]
 800559e:	687b      	ldr	r3, [r7, #4]
 80055a0:	2240      	movs	r2, #64	@ 0x40
 80055a2:	2101      	movs	r1, #1
 80055a4:	5499      	strb	r1, [r3, r2]
 80055a6:	687b      	ldr	r3, [r7, #4]
 80055a8:	2241      	movs	r2, #65	@ 0x41
 80055aa:	2101      	movs	r1, #1
 80055ac:	5499      	strb	r1, [r3, r2]
  TIM_CHANNEL_N_STATE_SET_ALL(htim, HAL_TIM_CHANNEL_STATE_READY);
 80055ae:	687b      	ldr	r3, [r7, #4]
 80055b0:	2242      	movs	r2, #66	@ 0x42
 80055b2:	2101      	movs	r1, #1
 80055b4:	5499      	strb	r1, [r3, r2]
 80055b6:	687b      	ldr	r3, [r7, #4]
 80055b8:	2243      	movs	r2, #67	@ 0x43
 80055ba:	2101      	movs	r1, #1
 80055bc:	5499      	strb	r1, [r3, r2]
 80055be:	687b      	ldr	r3, [r7, #4]
 80055c0:	2244      	movs	r2, #68	@ 0x44
 80055c2:	2101      	movs	r1, #1
 80055c4:	5499      	strb	r1, [r3, r2]
 80055c6:	687b      	ldr	r3, [r7, #4]
 80055c8:	2245      	movs	r2, #69	@ 0x45
 80055ca:	2101      	movs	r1, #1
 80055cc:	5499      	strb	r1, [r3, r2]

  /* Initialize the TIM state*/
  htim->State = HAL_TIM_STATE_READY;
 80055ce:	687b      	ldr	r3, [r7, #4]
 80055d0:	223d      	movs	r2, #61	@ 0x3d
 80055d2:	2101      	movs	r1, #1
 80055d4:	5499      	strb	r1, [r3, r2]

  return HAL_OK;
 80055d6:	2300      	movs	r3, #0
}
 80055d8:	0018      	movs	r0, r3
 80055da:	46bd      	mov	sp, r7
 80055dc:	b002      	add	sp, #8
 80055de:	bd80      	pop	{r7, pc}

080055e0 <HAL_TIM_Base_Start>:
  * @brief  Starts the TIM Base generation.
  * @param  htim TIM Base handle
  * @retval HAL status
  */
HAL_StatusTypeDef HAL_TIM_Base_Start(TIM_HandleTypeDef *htim)
{
 80055e0:	b580      	push	{r7, lr}
 80055e2:	b084      	sub	sp, #16
 80055e4:	af00      	add	r7, sp, #0
 80055e6:	6078      	str	r0, [r7, #4]

  /* Check the parameters */
  assert_param(IS_TIM_INSTANCE(htim->Instance));

  /* Check the TIM state */
  if (htim->State != HAL_TIM_STATE_READY)
 80055e8:	687b      	ldr	r3, [r7, #4]
 80055ea:	223d      	movs	r2, #61	@ 0x3d
 80055ec:	5c9b      	ldrb	r3, [r3, r2]
 80055ee:	b2db      	uxtb	r3, r3
 80055f0:	2b01      	cmp	r3, #1
 80055f2:	d001      	beq.n	80055f8 <HAL_TIM_Base_Start+0x18>
  {
    return HAL_ERROR;
 80055f4:	2301      	movs	r3, #1
 80055f6:	e033      	b.n	8005660 <HAL_TIM_Base_Start+0x80>
  }

  /* Set the TIM state */
  htim->State = HAL_TIM_STATE_BUSY;
 80055f8:	687b      	ldr	r3, [r7, #4]
 80055fa:	223d      	movs	r2, #61	@ 0x3d
 80055fc:	2102      	movs	r1, #2
 80055fe:	5499      	strb	r1, [r3, r2]

  /* Enable the Peripheral, except in trigger mode where enable is automatically done with trigger */
  if (IS_TIM_SLAVE_INSTANCE(htim->Instance))
 8005600:	687b      	ldr	r3, [r7, #4]
 8005602:	681b      	ldr	r3, [r3, #0]
 8005604:	4a18      	ldr	r2, [pc, #96]	@ (8005668 <HAL_TIM_Base_Start+0x88>)
 8005606:	4293      	cmp	r3, r2
 8005608:	d00f      	beq.n	800562a <HAL_TIM_Base_Start+0x4a>
 800560a:	687b      	ldr	r3, [r7, #4]
 800560c:	681a      	ldr	r2, [r3, #0]
 800560e:	2380      	movs	r3, #128	@ 0x80
 8005610:	05db      	lsls	r3, r3, #23
 8005612:	429a      	cmp	r2, r3
 8005614:	d009      	beq.n	800562a <HAL_TIM_Base_Start+0x4a>
 8005616:	687b      	ldr	r3, [r7, #4]
 8005618:	681b      	ldr	r3, [r3, #0]
 800561a:	4a14      	ldr	r2, [pc, #80]	@ (800566c <HAL_TIM_Base_Start+0x8c>)
 800561c:	4293      	cmp	r3, r2
 800561e:	d004      	beq.n	800562a <HAL_TIM_Base_Start+0x4a>
 8005620:	687b      	ldr	r3, [r7, #4]
 8005622:	681b      	ldr	r3, [r3, #0]
 8005624:	4a12      	ldr	r2, [pc, #72]	@ (8005670 <HAL_TIM_Base_Start+0x90>)
 8005626:	4293      	cmp	r3, r2
 8005628:	d111      	bne.n	800564e <HAL_TIM_Base_Start+0x6e>
  {
    tmpsmcr = htim->Instance->SMCR & TIM_SMCR_SMS;
 800562a:	687b      	ldr	r3, [r7, #4]
 800562c:	681b      	ldr	r3, [r3, #0]
 800562e:	689b      	ldr	r3, [r3, #8]
 8005630:	2207      	movs	r2, #7
 8005632:	4013      	ands	r3, r2
 8005634:	60fb      	str	r3, [r7, #12]
    if (!IS_TIM_SLAVEMODE_TRIGGER_ENABLED(tmpsmcr))
 8005636:	68fb      	ldr	r3, [r7, #12]
 8005638:	2b06      	cmp	r3, #6
 800563a:	d010      	beq.n	800565e <HAL_TIM_Base_Start+0x7e>
    {
      __HAL_TIM_ENABLE(htim);
 800563c:	687b      	ldr	r3, [r7, #4]
 800563e:	681b      	ldr	r3, [r3, #0]
 8005640:	681a      	ldr	r2, [r3, #0]
 8005642:	687b      	ldr	r3, [r7, #4]
 8005644:	681b      	ldr	r3, [r3, #0]
 8005646:	2101      	movs	r1, #1
 8005648:	430a      	orrs	r2, r1
 800564a:	601a      	str	r2, [r3, #0]
    if (!IS_TIM_SLAVEMODE_TRIGGER_ENABLED(tmpsmcr))
 800564c:	e007      	b.n	800565e <HAL_TIM_Base_Start+0x7e>
    }
  }
  else
  {
    __HAL_TIM_ENABLE(htim);
 800564e:	687b      	ldr	r3, [r7, #4]
 8005650:	681b      	ldr	r3, [r3, #0]
 8005652:	681a      	ldr	r2, [r3, #0]
 8005654:	687b      	ldr	r3, [r7, #4]
 8005656:	681b      	ldr	r3, [r3, #0]
 8005658:	2101      	movs	r1, #1
 800565a:	430a      	orrs	r2, r1
 800565c:	601a      	str	r2, [r3, #0]
  }

  /* Return function status */
  return HAL_OK;
 800565e:	2300      	movs	r3, #0
}
 8005660:	0018      	movs	r0, r3
 8005662:	46bd      	mov	sp, r7
 8005664:	b004      	add	sp, #16
 8005666:	bd80      	pop	{r7, pc}
 8005668:	40012c00 	.word	0x40012c00
 800566c:	40000400 	.word	0x40000400
 8005670:	40014000 	.word	0x40014000

08005674 <HAL_TIM_ConfigClockSource>:
  * @param  sClockSourceConfig pointer to a TIM_ClockConfigTypeDef structure that
  *         contains the clock source information for the TIM peripheral.
  * @retval HAL status
  */
HAL_StatusTypeDef HAL_TIM_ConfigClockSource(TIM_HandleTypeDef *htim, const TIM_ClockConfigTypeDef *sClockSourceConfig)
{
 8005674:	b580      	push	{r7, lr}
 8005676:	b084      	sub	sp, #16
 8005678:	af00      	add	r7, sp, #0
 800567a:	6078      	str	r0, [r7, #4]
 800567c:	6039      	str	r1, [r7, #0]
  HAL_StatusTypeDef status = HAL_OK;
 800567e:	230f      	movs	r3, #15
 8005680:	18fb      	adds	r3, r7, r3
 8005682:	2200      	movs	r2, #0
 8005684:	701a      	strb	r2, [r3, #0]
  uint32_t tmpsmcr;

  /* Process Locked */
  __HAL_LOCK(htim);
 8005686:	687b      	ldr	r3, [r7, #4]
 8005688:	223c      	movs	r2, #60	@ 0x3c
 800568a:	5c9b      	ldrb	r3, [r3, r2]
 800568c:	2b01      	cmp	r3, #1
 800568e:	d101      	bne.n	8005694 <HAL_TIM_ConfigClockSource+0x20>
 8005690:	2302      	movs	r3, #2
 8005692:	e0bc      	b.n	800580e <HAL_TIM_ConfigClockSource+0x19a>
 8005694:	687b      	ldr	r3, [r7, #4]
 8005696:	223c      	movs	r2, #60	@ 0x3c
 8005698:	2101      	movs	r1, #1
 800569a:	5499      	strb	r1, [r3, r2]

  htim->State = HAL_TIM_STATE_BUSY;
 800569c:	687b      	ldr	r3, [r7, #4]
 800569e:	223d      	movs	r2, #61	@ 0x3d
 80056a0:	2102      	movs	r1, #2
 80056a2:	5499      	strb	r1, [r3, r2]

  /* Check the parameters */
  assert_param(IS_TIM_CLOCKSOURCE(sClockSourceConfig->ClockSource));

  /* Reset the SMS, TS, ECE, ETPS and ETRF bits */
  tmpsmcr = htim->Instance->SMCR;
 80056a4:	687b      	ldr	r3, [r7, #4]
 80056a6:	681b      	ldr	r3, [r3, #0]
 80056a8:	689b      	ldr	r3, [r3, #8]
 80056aa:	60bb      	str	r3, [r7, #8]
  tmpsmcr &= ~(TIM_SMCR_SMS | TIM_SMCR_TS);
 80056ac:	68bb      	ldr	r3, [r7, #8]
 80056ae:	2277      	movs	r2, #119	@ 0x77
 80056b0:	4393      	bics	r3, r2
 80056b2:	60bb      	str	r3, [r7, #8]
  tmpsmcr &= ~(TIM_SMCR_ETF | TIM_SMCR_ETPS | TIM_SMCR_ECE | TIM_SMCR_ETP);
 80056b4:	68bb      	ldr	r3, [r7, #8]
 80056b6:	4a58      	ldr	r2, [pc, #352]	@ (8005818 <HAL_TIM_ConfigClockSource+0x1a4>)
 80056b8:	4013      	ands	r3, r2
 80056ba:	60bb      	str	r3, [r7, #8]
  htim->Instance->SMCR = tmpsmcr;
 80056bc:	687b      	ldr	r3, [r7, #4]
 80056be:	681b      	ldr	r3, [r3, #0]
 80056c0:	68ba      	ldr	r2, [r7, #8]
 80056c2:	609a      	str	r2, [r3, #8]

  switch (sClockSourceConfig->ClockSource)
 80056c4:	683b      	ldr	r3, [r7, #0]
 80056c6:	681b      	ldr	r3, [r3, #0]
 80056c8:	2280      	movs	r2, #128	@ 0x80
 80056ca:	0192      	lsls	r2, r2, #6
 80056cc:	4293      	cmp	r3, r2
 80056ce:	d040      	beq.n	8005752 <HAL_TIM_ConfigClockSource+0xde>
 80056d0:	2280      	movs	r2, #128	@ 0x80
 80056d2:	0192      	lsls	r2, r2, #6
 80056d4:	4293      	cmp	r3, r2
 80056d6:	d900      	bls.n	80056da <HAL_TIM_ConfigClockSource+0x66>
 80056d8:	e088      	b.n	80057ec <HAL_TIM_ConfigClockSource+0x178>
 80056da:	2280      	movs	r2, #128	@ 0x80
 80056dc:	0152      	lsls	r2, r2, #5
 80056de:	4293      	cmp	r3, r2
 80056e0:	d100      	bne.n	80056e4 <HAL_TIM_ConfigClockSource+0x70>
 80056e2:	e088      	b.n	80057f6 <HAL_TIM_ConfigClockSource+0x182>
 80056e4:	2280      	movs	r2, #128	@ 0x80
 80056e6:	0152      	lsls	r2, r2, #5
 80056e8:	4293      	cmp	r3, r2
 80056ea:	d900      	bls.n	80056ee <HAL_TIM_ConfigClockSource+0x7a>
 80056ec:	e07e      	b.n	80057ec <HAL_TIM_ConfigClockSource+0x178>
 80056ee:	2b70      	cmp	r3, #112	@ 0x70
 80056f0:	d018      	beq.n	8005724 <HAL_TIM_ConfigClockSource+0xb0>
 80056f2:	d900      	bls.n	80056f6 <HAL_TIM_ConfigClockSource+0x82>
 80056f4:	e07a      	b.n	80057ec <HAL_TIM_ConfigClockSource+0x178>
 80056f6:	2b60      	cmp	r3, #96	@ 0x60
 80056f8:	d04f      	beq.n	800579a <HAL_TIM_ConfigClockSource+0x126>
 80056fa:	d900      	bls.n	80056fe <HAL_TIM_ConfigClockSource+0x8a>
 80056fc:	e076      	b.n	80057ec <HAL_TIM_ConfigClockSource+0x178>
 80056fe:	2b50      	cmp	r3, #80	@ 0x50
 8005700:	d03b      	beq.n	800577a <HAL_TIM_ConfigClockSource+0x106>
 8005702:	d900      	bls.n	8005706 <HAL_TIM_ConfigClockSource+0x92>
 8005704:	e072      	b.n	80057ec <HAL_TIM_ConfigClockSource+0x178>
 8005706:	2b40      	cmp	r3, #64	@ 0x40
 8005708:	d057      	beq.n	80057ba <HAL_TIM_ConfigClockSource+0x146>
 800570a:	d900      	bls.n	800570e <HAL_TIM_ConfigClockSource+0x9a>
 800570c:	e06e      	b.n	80057ec <HAL_TIM_ConfigClockSource+0x178>
 800570e:	2b30      	cmp	r3, #48	@ 0x30
 8005710:	d063      	beq.n	80057da <HAL_TIM_ConfigClockSource+0x166>
 8005712:	d86b      	bhi.n	80057ec <HAL_TIM_ConfigClockSource+0x178>
 8005714:	2b20      	cmp	r3, #32
 8005716:	d060      	beq.n	80057da <HAL_TIM_ConfigClockSource+0x166>
 8005718:	d868      	bhi.n	80057ec <HAL_TIM_ConfigClockSource+0x178>
 800571a:	2b00      	cmp	r3, #0
 800571c:	d05d      	beq.n	80057da <HAL_TIM_ConfigClockSource+0x166>
 800571e:	2b10      	cmp	r3, #16
 8005720:	d05b      	beq.n	80057da <HAL_TIM_ConfigClockSource+0x166>
 8005722:	e063      	b.n	80057ec <HAL_TIM_ConfigClockSource+0x178>
      assert_param(IS_TIM_CLOCKPRESCALER(sClockSourceConfig->ClockPrescaler));
      assert_param(IS_TIM_CLOCKPOLARITY(sClockSourceConfig->ClockPolarity));
      assert_param(IS_TIM_CLOCKFILTER(sClockSourceConfig->ClockFilter));

      /* Configure the ETR Clock source */
      TIM_ETR_SetConfig(htim->Instance,
 8005724:	687b      	ldr	r3, [r7, #4]
 8005726:	6818      	ldr	r0, [r3, #0]
                        sClockSourceConfig->ClockPrescaler,
 8005728:	683b      	ldr	r3, [r7, #0]
 800572a:	6899      	ldr	r1, [r3, #8]
                        sClockSourceConfig->ClockPolarity,
 800572c:	683b      	ldr	r3, [r7, #0]
 800572e:	685a      	ldr	r2, [r3, #4]
                        sClockSourceConfig->ClockFilter);
 8005730:	683b      	ldr	r3, [r7, #0]
 8005732:	68db      	ldr	r3, [r3, #12]
      TIM_ETR_SetConfig(htim->Instance,
 8005734:	f000 f97a 	bl	8005a2c <TIM_ETR_SetConfig>

      /* Select the External clock mode1 and the ETRF trigger */
      tmpsmcr = htim->Instance->SMCR;
 8005738:	687b      	ldr	r3, [r7, #4]
 800573a:	681b      	ldr	r3, [r3, #0]
 800573c:	689b      	ldr	r3, [r3, #8]
 800573e:	60bb      	str	r3, [r7, #8]
      tmpsmcr |= (TIM_SLAVEMODE_EXTERNAL1 | TIM_CLOCKSOURCE_ETRMODE1);
 8005740:	68bb      	ldr	r3, [r7, #8]
 8005742:	2277      	movs	r2, #119	@ 0x77
 8005744:	4313      	orrs	r3, r2
 8005746:	60bb      	str	r3, [r7, #8]
      /* Write to TIMx SMCR */
      htim->Instance->SMCR = tmpsmcr;
 8005748:	687b      	ldr	r3, [r7, #4]
 800574a:	681b      	ldr	r3, [r3, #0]
 800574c:	68ba      	ldr	r2, [r7, #8]
 800574e:	609a      	str	r2, [r3, #8]
      break;
 8005750:	e052      	b.n	80057f8 <HAL_TIM_ConfigClockSource+0x184>
      assert_param(IS_TIM_CLOCKPRESCALER(sClockSourceConfig->ClockPrescaler));
      assert_param(IS_TIM_CLOCKPOLARITY(sClockSourceConfig->ClockPolarity));
      assert_param(IS_TIM_CLOCKFILTER(sClockSourceConfig->ClockFilter));

      /* Configure the ETR Clock source */
      TIM_ETR_SetConfig(htim->Instance,
 8005752:	687b      	ldr	r3, [r7, #4]
 8005754:	6818      	ldr	r0, [r3, #0]
                        sClockSourceConfig->ClockPrescaler,
 8005756:	683b      	ldr	r3, [r7, #0]
 8005758:	6899      	ldr	r1, [r3, #8]
                        sClockSourceConfig->ClockPolarity,
 800575a:	683b      	ldr	r3, [r7, #0]
 800575c:	685a      	ldr	r2, [r3, #4]
                        sClockSourceConfig->ClockFilter);
 800575e:	683b      	ldr	r3, [r7, #0]
 8005760:	68db      	ldr	r3, [r3, #12]
      TIM_ETR_SetConfig(htim->Instance,
 8005762:	f000 f963 	bl	8005a2c <TIM_ETR_SetConfig>
      /* Enable the External clock mode2 */
      htim->Instance->SMCR |= TIM_SMCR_ECE;
 8005766:	687b      	ldr	r3, [r7, #4]
 8005768:	681b      	ldr	r3, [r3, #0]
 800576a:	689a      	ldr	r2, [r3, #8]
 800576c:	687b      	ldr	r3, [r7, #4]
 800576e:	681b      	ldr	r3, [r3, #0]
 8005770:	2180      	movs	r1, #128	@ 0x80
 8005772:	01c9      	lsls	r1, r1, #7
 8005774:	430a      	orrs	r2, r1
 8005776:	609a      	str	r2, [r3, #8]
      break;
 8005778:	e03e      	b.n	80057f8 <HAL_TIM_ConfigClockSource+0x184>

      /* Check TI1 input conditioning related parameters */
      assert_param(IS_TIM_CLOCKPOLARITY(sClockSourceConfig->ClockPolarity));
      assert_param(IS_TIM_CLOCKFILTER(sClockSourceConfig->ClockFilter));

      TIM_TI1_ConfigInputStage(htim->Instance,
 800577a:	687b      	ldr	r3, [r7, #4]
 800577c:	6818      	ldr	r0, [r3, #0]
                               sClockSourceConfig->ClockPolarity,
 800577e:	683b      	ldr	r3, [r7, #0]
 8005780:	6859      	ldr	r1, [r3, #4]
                               sClockSourceConfig->ClockFilter);
 8005782:	683b      	ldr	r3, [r7, #0]
 8005784:	68db      	ldr	r3, [r3, #12]
      TIM_TI1_ConfigInputStage(htim->Instance,
 8005786:	001a      	movs	r2, r3
 8005788:	f000 f8d6 	bl	8005938 <TIM_TI1_ConfigInputStage>
      TIM_ITRx_SetConfig(htim->Instance, TIM_CLOCKSOURCE_TI1);
 800578c:	687b      	ldr	r3, [r7, #4]
 800578e:	681b      	ldr	r3, [r3, #0]
 8005790:	2150      	movs	r1, #80	@ 0x50
 8005792:	0018      	movs	r0, r3
 8005794:	f000 f930 	bl	80059f8 <TIM_ITRx_SetConfig>
      break;
 8005798:	e02e      	b.n	80057f8 <HAL_TIM_ConfigClockSource+0x184>

      /* Check TI2 input conditioning related parameters */
      assert_param(IS_TIM_CLOCKPOLARITY(sClockSourceConfig->ClockPolarity));
      assert_param(IS_TIM_CLOCKFILTER(sClockSourceConfig->ClockFilter));

      TIM_TI2_ConfigInputStage(htim->Instance,
 800579a:	687b      	ldr	r3, [r7, #4]
 800579c:	6818      	ldr	r0, [r3, #0]
                               sClockSourceConfig->ClockPolarity,
 800579e:	683b      	ldr	r3, [r7, #0]
 80057a0:	6859      	ldr	r1, [r3, #4]
                               sClockSourceConfig->ClockFilter);
 80057a2:	683b      	ldr	r3, [r7, #0]
 80057a4:	68db      	ldr	r3, [r3, #12]
      TIM_TI2_ConfigInputStage(htim->Instance,
 80057a6:	001a      	movs	r2, r3
 80057a8:	f000 f8f4 	bl	8005994 <TIM_TI2_ConfigInputStage>
      TIM_ITRx_SetConfig(htim->Instance, TIM_CLOCKSOURCE_TI2);
 80057ac:	687b      	ldr	r3, [r7, #4]
 80057ae:	681b      	ldr	r3, [r3, #0]
 80057b0:	2160      	movs	r1, #96	@ 0x60
 80057b2:	0018      	movs	r0, r3
 80057b4:	f000 f920 	bl	80059f8 <TIM_ITRx_SetConfig>
      break;
 80057b8:	e01e      	b.n	80057f8 <HAL_TIM_ConfigClockSource+0x184>

      /* Check TI1 input conditioning related parameters */
      assert_param(IS_TIM_CLOCKPOLARITY(sClockSourceConfig->ClockPolarity));
      assert_param(IS_TIM_CLOCKFILTER(sClockSourceConfig->ClockFilter));

      TIM_TI1_ConfigInputStage(htim->Instance,
 80057ba:	687b      	ldr	r3, [r7, #4]
 80057bc:	6818      	ldr	r0, [r3, #0]
                               sClockSourceConfig->ClockPolarity,
 80057be:	683b      	ldr	r3, [r7, #0]
 80057c0:	6859      	ldr	r1, [r3, #4]
                               sClockSourceConfig->ClockFilter);
 80057c2:	683b      	ldr	r3, [r7, #0]
 80057c4:	68db      	ldr	r3, [r3, #12]
      TIM_TI1_ConfigInputStage(htim->Instance,
 80057c6:	001a      	movs	r2, r3
 80057c8:	f000 f8b6 	bl	8005938 <TIM_TI1_ConfigInputStage>
      TIM_ITRx_SetConfig(htim->Instance, TIM_CLOCKSOURCE_TI1ED);
 80057cc:	687b      	ldr	r3, [r7, #4]
 80057ce:	681b      	ldr	r3, [r3, #0]
 80057d0:	2140      	movs	r1, #64	@ 0x40
 80057d2:	0018      	movs	r0, r3
 80057d4:	f000 f910 	bl	80059f8 <TIM_ITRx_SetConfig>
      break;
 80057d8:	e00e      	b.n	80057f8 <HAL_TIM_ConfigClockSource+0x184>
    case TIM_CLOCKSOURCE_ITR3:
    {
      /* Check whether or not the timer instance supports internal trigger input */
      assert_param(IS_TIM_CLOCKSOURCE_ITRX_INSTANCE(htim->Instance));

      TIM_ITRx_SetConfig(htim->Instance, sClockSourceConfig->ClockSource);
 80057da:	687b      	ldr	r3, [r7, #4]
 80057dc:	681a      	ldr	r2, [r3, #0]
 80057de:	683b      	ldr	r3, [r7, #0]
 80057e0:	681b      	ldr	r3, [r3, #0]
 80057e2:	0019      	movs	r1, r3
 80057e4:	0010      	movs	r0, r2
 80057e6:	f000 f907 	bl	80059f8 <TIM_ITRx_SetConfig>
      break;
 80057ea:	e005      	b.n	80057f8 <HAL_TIM_ConfigClockSource+0x184>
    }

    default:
      status = HAL_ERROR;
 80057ec:	230f      	movs	r3, #15
 80057ee:	18fb      	adds	r3, r7, r3
 80057f0:	2201      	movs	r2, #1
 80057f2:	701a      	strb	r2, [r3, #0]
      break;
 80057f4:	e000      	b.n	80057f8 <HAL_TIM_ConfigClockSource+0x184>
      break;
 80057f6:	46c0      	nop			@ (mov r8, r8)
  }
  htim->State = HAL_TIM_STATE_READY;
 80057f8:	687b      	ldr	r3, [r7, #4]
 80057fa:	223d      	movs	r2, #61	@ 0x3d
 80057fc:	2101      	movs	r1, #1
 80057fe:	5499      	strb	r1, [r3, r2]

  __HAL_UNLOCK(htim);
 8005800:	687b      	ldr	r3, [r7, #4]
 8005802:	223c      	movs	r2, #60	@ 0x3c
 8005804:	2100      	movs	r1, #0
 8005806:	5499      	strb	r1, [r3, r2]

  return status;
 8005808:	230f      	movs	r3, #15
 800580a:	18fb      	adds	r3, r7, r3
 800580c:	781b      	ldrb	r3, [r3, #0]
}
 800580e:	0018      	movs	r0, r3
 8005810:	46bd      	mov	sp, r7
 8005812:	b004      	add	sp, #16
 8005814:	bd80      	pop	{r7, pc}
 8005816:	46c0      	nop			@ (mov r8, r8)
 8005818:	ffff00ff 	.word	0xffff00ff

0800581c <TIM_Base_SetConfig>:
  * @param  TIMx TIM peripheral
  * @param  Structure TIM Base configuration structure
  * @retval None
  */
void TIM_Base_SetConfig(TIM_TypeDef *TIMx, const TIM_Base_InitTypeDef *Structure)
{
 800581c:	b580      	push	{r7, lr}
 800581e:	b084      	sub	sp, #16
 8005820:	af00      	add	r7, sp, #0
 8005822:	6078      	str	r0, [r7, #4]
 8005824:	6039      	str	r1, [r7, #0]
  uint32_t tmpcr1;
  tmpcr1 = TIMx->CR1;
 8005826:	687b      	ldr	r3, [r7, #4]
 8005828:	681b      	ldr	r3, [r3, #0]
 800582a:	60fb      	str	r3, [r7, #12]

  /* Set TIM Time Base Unit parameters ---------------------------------------*/
  if (IS_TIM_COUNTER_MODE_SELECT_INSTANCE(TIMx))
 800582c:	687b      	ldr	r3, [r7, #4]
 800582e:	4a3b      	ldr	r2, [pc, #236]	@ (800591c <TIM_Base_SetConfig+0x100>)
 8005830:	4293      	cmp	r3, r2
 8005832:	d008      	beq.n	8005846 <TIM_Base_SetConfig+0x2a>
 8005834:	687a      	ldr	r2, [r7, #4]
 8005836:	2380      	movs	r3, #128	@ 0x80
 8005838:	05db      	lsls	r3, r3, #23
 800583a:	429a      	cmp	r2, r3
 800583c:	d003      	beq.n	8005846 <TIM_Base_SetConfig+0x2a>
 800583e:	687b      	ldr	r3, [r7, #4]
 8005840:	4a37      	ldr	r2, [pc, #220]	@ (8005920 <TIM_Base_SetConfig+0x104>)
 8005842:	4293      	cmp	r3, r2
 8005844:	d108      	bne.n	8005858 <TIM_Base_SetConfig+0x3c>
  {
    /* Select the Counter Mode */
    tmpcr1 &= ~(TIM_CR1_DIR | TIM_CR1_CMS);
 8005846:	68fb      	ldr	r3, [r7, #12]
 8005848:	2270      	movs	r2, #112	@ 0x70
 800584a:	4393      	bics	r3, r2
 800584c:	60fb      	str	r3, [r7, #12]
    tmpcr1 |= Structure->CounterMode;
 800584e:	683b      	ldr	r3, [r7, #0]
 8005850:	685b      	ldr	r3, [r3, #4]
 8005852:	68fa      	ldr	r2, [r7, #12]
 8005854:	4313      	orrs	r3, r2
 8005856:	60fb      	str	r3, [r7, #12]
  }

  if (IS_TIM_CLOCK_DIVISION_INSTANCE(TIMx))
 8005858:	687b      	ldr	r3, [r7, #4]
 800585a:	4a30      	ldr	r2, [pc, #192]	@ (800591c <TIM_Base_SetConfig+0x100>)
 800585c:	4293      	cmp	r3, r2
 800585e:	d018      	beq.n	8005892 <TIM_Base_SetConfig+0x76>
 8005860:	687a      	ldr	r2, [r7, #4]
 8005862:	2380      	movs	r3, #128	@ 0x80
 8005864:	05db      	lsls	r3, r3, #23
 8005866:	429a      	cmp	r2, r3
 8005868:	d013      	beq.n	8005892 <TIM_Base_SetConfig+0x76>
 800586a:	687b      	ldr	r3, [r7, #4]
 800586c:	4a2c      	ldr	r2, [pc, #176]	@ (8005920 <TIM_Base_SetConfig+0x104>)
 800586e:	4293      	cmp	r3, r2
 8005870:	d00f      	beq.n	8005892 <TIM_Base_SetConfig+0x76>
 8005872:	687b      	ldr	r3, [r7, #4]
 8005874:	4a2b      	ldr	r2, [pc, #172]	@ (8005924 <TIM_Base_SetConfig+0x108>)
 8005876:	4293      	cmp	r3, r2
 8005878:	d00b      	beq.n	8005892 <TIM_Base_SetConfig+0x76>
 800587a:	687b      	ldr	r3, [r7, #4]
 800587c:	4a2a      	ldr	r2, [pc, #168]	@ (8005928 <TIM_Base_SetConfig+0x10c>)
 800587e:	4293      	cmp	r3, r2
 8005880:	d007      	beq.n	8005892 <TIM_Base_SetConfig+0x76>
 8005882:	687b      	ldr	r3, [r7, #4]
 8005884:	4a29      	ldr	r2, [pc, #164]	@ (800592c <TIM_Base_SetConfig+0x110>)
 8005886:	4293      	cmp	r3, r2
 8005888:	d003      	beq.n	8005892 <TIM_Base_SetConfig+0x76>
 800588a:	687b      	ldr	r3, [r7, #4]
 800588c:	4a28      	ldr	r2, [pc, #160]	@ (8005930 <TIM_Base_SetConfig+0x114>)
 800588e:	4293      	cmp	r3, r2
 8005890:	d108      	bne.n	80058a4 <TIM_Base_SetConfig+0x88>
  {
    /* Set the clock division */
    tmpcr1 &= ~TIM_CR1_CKD;
 8005892:	68fb      	ldr	r3, [r7, #12]
 8005894:	4a27      	ldr	r2, [pc, #156]	@ (8005934 <TIM_Base_SetConfig+0x118>)
 8005896:	4013      	ands	r3, r2
 8005898:	60fb      	str	r3, [r7, #12]
    tmpcr1 |= (uint32_t)Structure->ClockDivision;
 800589a:	683b      	ldr	r3, [r7, #0]
 800589c:	68db      	ldr	r3, [r3, #12]
 800589e:	68fa      	ldr	r2, [r7, #12]
 80058a0:	4313      	orrs	r3, r2
 80058a2:	60fb      	str	r3, [r7, #12]
  }

  /* Set the auto-reload preload */
  MODIFY_REG(tmpcr1, TIM_CR1_ARPE, Structure->AutoReloadPreload);
 80058a4:	68fb      	ldr	r3, [r7, #12]
 80058a6:	2280      	movs	r2, #128	@ 0x80
 80058a8:	4393      	bics	r3, r2
 80058aa:	001a      	movs	r2, r3
 80058ac:	683b      	ldr	r3, [r7, #0]
 80058ae:	695b      	ldr	r3, [r3, #20]
 80058b0:	4313      	orrs	r3, r2
 80058b2:	60fb      	str	r3, [r7, #12]

  TIMx->CR1 = tmpcr1;
 80058b4:	687b      	ldr	r3, [r7, #4]
 80058b6:	68fa      	ldr	r2, [r7, #12]
 80058b8:	601a      	str	r2, [r3, #0]

  /* Set the Autoreload value */
  TIMx->ARR = (uint32_t)Structure->Period ;
 80058ba:	683b      	ldr	r3, [r7, #0]
 80058bc:	689a      	ldr	r2, [r3, #8]
 80058be:	687b      	ldr	r3, [r7, #4]
 80058c0:	62da      	str	r2, [r3, #44]	@ 0x2c

  /* Set the Prescaler value */
  TIMx->PSC = Structure->Prescaler;
 80058c2:	683b      	ldr	r3, [r7, #0]
 80058c4:	681a      	ldr	r2, [r3, #0]
 80058c6:	687b      	ldr	r3, [r7, #4]
 80058c8:	629a      	str	r2, [r3, #40]	@ 0x28

  if (IS_TIM_REPETITION_COUNTER_INSTANCE(TIMx))
 80058ca:	687b      	ldr	r3, [r7, #4]
 80058cc:	4a13      	ldr	r2, [pc, #76]	@ (800591c <TIM_Base_SetConfig+0x100>)
 80058ce:	4293      	cmp	r3, r2
 80058d0:	d00b      	beq.n	80058ea <TIM_Base_SetConfig+0xce>
 80058d2:	687b      	ldr	r3, [r7, #4]
 80058d4:	4a14      	ldr	r2, [pc, #80]	@ (8005928 <TIM_Base_SetConfig+0x10c>)
 80058d6:	4293      	cmp	r3, r2
 80058d8:	d007      	beq.n	80058ea <TIM_Base_SetConfig+0xce>
 80058da:	687b      	ldr	r3, [r7, #4]
 80058dc:	4a13      	ldr	r2, [pc, #76]	@ (800592c <TIM_Base_SetConfig+0x110>)
 80058de:	4293      	cmp	r3, r2
 80058e0:	d003      	beq.n	80058ea <TIM_Base_SetConfig+0xce>
 80058e2:	687b      	ldr	r3, [r7, #4]
 80058e4:	4a12      	ldr	r2, [pc, #72]	@ (8005930 <TIM_Base_SetConfig+0x114>)
 80058e6:	4293      	cmp	r3, r2
 80058e8:	d103      	bne.n	80058f2 <TIM_Base_SetConfig+0xd6>
  {
    /* Set the Repetition Counter value */
    TIMx->RCR = Structure->RepetitionCounter;
 80058ea:	683b      	ldr	r3, [r7, #0]
 80058ec:	691a      	ldr	r2, [r3, #16]
 80058ee:	687b      	ldr	r3, [r7, #4]
 80058f0:	631a      	str	r2, [r3, #48]	@ 0x30
  }

  /* Generate an update event to reload the Prescaler
     and the repetition counter (only for advanced timer) value immediately */
  TIMx->EGR = TIM_EGR_UG;
 80058f2:	687b      	ldr	r3, [r7, #4]
 80058f4:	2201      	movs	r2, #1
 80058f6:	615a      	str	r2, [r3, #20]

  /* Check if the update flag is set after the Update Generation, if so clear the UIF flag */
  if (HAL_IS_BIT_SET(TIMx->SR, TIM_FLAG_UPDATE))
 80058f8:	687b      	ldr	r3, [r7, #4]
 80058fa:	691b      	ldr	r3, [r3, #16]
 80058fc:	2201      	movs	r2, #1
 80058fe:	4013      	ands	r3, r2
 8005900:	2b01      	cmp	r3, #1
 8005902:	d106      	bne.n	8005912 <TIM_Base_SetConfig+0xf6>
  {
    /* Clear the update flag */
    CLEAR_BIT(TIMx->SR, TIM_FLAG_UPDATE);
 8005904:	687b      	ldr	r3, [r7, #4]
 8005906:	691b      	ldr	r3, [r3, #16]
 8005908:	2201      	movs	r2, #1
 800590a:	4393      	bics	r3, r2
 800590c:	001a      	movs	r2, r3
 800590e:	687b      	ldr	r3, [r7, #4]
 8005910:	611a      	str	r2, [r3, #16]
  }
}
 8005912:	46c0      	nop			@ (mov r8, r8)
 8005914:	46bd      	mov	sp, r7
 8005916:	b004      	add	sp, #16
 8005918:	bd80      	pop	{r7, pc}
 800591a:	46c0      	nop			@ (mov r8, r8)
 800591c:	40012c00 	.word	0x40012c00
 8005920:	40000400 	.word	0x40000400
 8005924:	40002000 	.word	0x40002000
 8005928:	40014000 	.word	0x40014000
 800592c:	40014400 	.word	0x40014400
 8005930:	40014800 	.word	0x40014800
 8005934:	fffffcff 	.word	0xfffffcff

08005938 <TIM_TI1_ConfigInputStage>:
  * @param  TIM_ICFilter Specifies the Input Capture Filter.
  *          This parameter must be a value between 0x00 and 0x0F.
  * @retval None
  */
static void TIM_TI1_ConfigInputStage(TIM_TypeDef *TIMx, uint32_t TIM_ICPolarity, uint32_t TIM_ICFilter)
{
 8005938:	b580      	push	{r7, lr}
 800593a:	b086      	sub	sp, #24
 800593c:	af00      	add	r7, sp, #0
 800593e:	60f8      	str	r0, [r7, #12]
 8005940:	60b9      	str	r1, [r7, #8]
 8005942:	607a      	str	r2, [r7, #4]
  uint32_t tmpccmr1;
  uint32_t tmpccer;

  /* Disable the Channel 1: Reset the CC1E Bit */
  tmpccer = TIMx->CCER;
 8005944:	68fb      	ldr	r3, [r7, #12]
 8005946:	6a1b      	ldr	r3, [r3, #32]
 8005948:	617b      	str	r3, [r7, #20]
  TIMx->CCER &= ~TIM_CCER_CC1E;
 800594a:	68fb      	ldr	r3, [r7, #12]
 800594c:	6a1b      	ldr	r3, [r3, #32]
 800594e:	2201      	movs	r2, #1
 8005950:	4393      	bics	r3, r2
 8005952:	001a      	movs	r2, r3
 8005954:	68fb      	ldr	r3, [r7, #12]
 8005956:	621a      	str	r2, [r3, #32]
  tmpccmr1 = TIMx->CCMR1;
 8005958:	68fb      	ldr	r3, [r7, #12]
 800595a:	699b      	ldr	r3, [r3, #24]
 800595c:	613b      	str	r3, [r7, #16]

  /* Set the filter */
  tmpccmr1 &= ~TIM_CCMR1_IC1F;
 800595e:	693b      	ldr	r3, [r7, #16]
 8005960:	22f0      	movs	r2, #240	@ 0xf0
 8005962:	4393      	bics	r3, r2
 8005964:	613b      	str	r3, [r7, #16]
  tmpccmr1 |= (TIM_ICFilter << 4U);
 8005966:	687b      	ldr	r3, [r7, #4]
 8005968:	011b      	lsls	r3, r3, #4
 800596a:	693a      	ldr	r2, [r7, #16]
 800596c:	4313      	orrs	r3, r2
 800596e:	613b      	str	r3, [r7, #16]

  /* Select the Polarity and set the CC1E Bit */
  tmpccer &= ~(TIM_CCER_CC1P | TIM_CCER_CC1NP);
 8005970:	697b      	ldr	r3, [r7, #20]
 8005972:	220a      	movs	r2, #10
 8005974:	4393      	bics	r3, r2
 8005976:	617b      	str	r3, [r7, #20]
  tmpccer |= TIM_ICPolarity;
 8005978:	697a      	ldr	r2, [r7, #20]
 800597a:	68bb      	ldr	r3, [r7, #8]
 800597c:	4313      	orrs	r3, r2
 800597e:	617b      	str	r3, [r7, #20]

  /* Write to TIMx CCMR1 and CCER registers */
  TIMx->CCMR1 = tmpccmr1;
 8005980:	68fb      	ldr	r3, [r7, #12]
 8005982:	693a      	ldr	r2, [r7, #16]
 8005984:	619a      	str	r2, [r3, #24]
  TIMx->CCER = tmpccer;
 8005986:	68fb      	ldr	r3, [r7, #12]
 8005988:	697a      	ldr	r2, [r7, #20]
 800598a:	621a      	str	r2, [r3, #32]
}
 800598c:	46c0      	nop			@ (mov r8, r8)
 800598e:	46bd      	mov	sp, r7
 8005990:	b006      	add	sp, #24
 8005992:	bd80      	pop	{r7, pc}

08005994 <TIM_TI2_ConfigInputStage>:
  * @param  TIM_ICFilter Specifies the Input Capture Filter.
  *          This parameter must be a value between 0x00 and 0x0F.
  * @retval None
  */
static void TIM_TI2_ConfigInputStage(TIM_TypeDef *TIMx, uint32_t TIM_ICPolarity, uint32_t TIM_ICFilter)
{
 8005994:	b580      	push	{r7, lr}
 8005996:	b086      	sub	sp, #24
 8005998:	af00      	add	r7, sp, #0
 800599a:	60f8      	str	r0, [r7, #12]
 800599c:	60b9      	str	r1, [r7, #8]
 800599e:	607a      	str	r2, [r7, #4]
  uint32_t tmpccmr1;
  uint32_t tmpccer;

  /* Disable the Channel 2: Reset the CC2E Bit */
  tmpccer = TIMx->CCER;
 80059a0:	68fb      	ldr	r3, [r7, #12]
 80059a2:	6a1b      	ldr	r3, [r3, #32]
 80059a4:	617b      	str	r3, [r7, #20]
  TIMx->CCER &= ~TIM_CCER_CC2E;
 80059a6:	68fb      	ldr	r3, [r7, #12]
 80059a8:	6a1b      	ldr	r3, [r3, #32]
 80059aa:	2210      	movs	r2, #16
 80059ac:	4393      	bics	r3, r2
 80059ae:	001a      	movs	r2, r3
 80059b0:	68fb      	ldr	r3, [r7, #12]
 80059b2:	621a      	str	r2, [r3, #32]
  tmpccmr1 = TIMx->CCMR1;
 80059b4:	68fb      	ldr	r3, [r7, #12]
 80059b6:	699b      	ldr	r3, [r3, #24]
 80059b8:	613b      	str	r3, [r7, #16]

  /* Set the filter */
  tmpccmr1 &= ~TIM_CCMR1_IC2F;
 80059ba:	693b      	ldr	r3, [r7, #16]
 80059bc:	4a0d      	ldr	r2, [pc, #52]	@ (80059f4 <TIM_TI2_ConfigInputStage+0x60>)
 80059be:	4013      	ands	r3, r2
 80059c0:	613b      	str	r3, [r7, #16]
  tmpccmr1 |= (TIM_ICFilter << 12U);
 80059c2:	687b      	ldr	r3, [r7, #4]
 80059c4:	031b      	lsls	r3, r3, #12
 80059c6:	693a      	ldr	r2, [r7, #16]
 80059c8:	4313      	orrs	r3, r2
 80059ca:	613b      	str	r3, [r7, #16]

  /* Select the Polarity and set the CC2E Bit */
  tmpccer &= ~(TIM_CCER_CC2P | TIM_CCER_CC2NP);
 80059cc:	697b      	ldr	r3, [r7, #20]
 80059ce:	22a0      	movs	r2, #160	@ 0xa0
 80059d0:	4393      	bics	r3, r2
 80059d2:	617b      	str	r3, [r7, #20]
  tmpccer |= (TIM_ICPolarity << 4U);
 80059d4:	68bb      	ldr	r3, [r7, #8]
 80059d6:	011b      	lsls	r3, r3, #4
 80059d8:	697a      	ldr	r2, [r7, #20]
 80059da:	4313      	orrs	r3, r2
 80059dc:	617b      	str	r3, [r7, #20]

  /* Write to TIMx CCMR1 and CCER registers */
  TIMx->CCMR1 = tmpccmr1 ;
 80059de:	68fb      	ldr	r3, [r7, #12]
 80059e0:	693a      	ldr	r2, [r7, #16]
 80059e2:	619a      	str	r2, [r3, #24]
  TIMx->CCER = tmpccer;
 80059e4:	68fb      	ldr	r3, [r7, #12]
 80059e6:	697a      	ldr	r2, [r7, #20]
 80059e8:	621a      	str	r2, [r3, #32]
}
 80059ea:	46c0      	nop			@ (mov r8, r8)
 80059ec:	46bd      	mov	sp, r7
 80059ee:	b006      	add	sp, #24
 80059f0:	bd80      	pop	{r7, pc}
 80059f2:	46c0      	nop			@ (mov r8, r8)
 80059f4:	ffff0fff 	.word	0xffff0fff

080059f8 <TIM_ITRx_SetConfig>:
  *            @arg TIM_TS_TI2FP2: Filtered Timer Input 2
  *            @arg TIM_TS_ETRF: External Trigger input
  * @retval None
  */
static void TIM_ITRx_SetConfig(TIM_TypeDef *TIMx, uint32_t InputTriggerSource)
{
 80059f8:	b580      	push	{r7, lr}
 80059fa:	b084      	sub	sp, #16
 80059fc:	af00      	add	r7, sp, #0
 80059fe:	6078      	str	r0, [r7, #4]
 8005a00:	6039      	str	r1, [r7, #0]
  uint32_t tmpsmcr;

  /* Get the TIMx SMCR register value */
  tmpsmcr = TIMx->SMCR;
 8005a02:	687b      	ldr	r3, [r7, #4]
 8005a04:	689b      	ldr	r3, [r3, #8]
 8005a06:	60fb      	str	r3, [r7, #12]
  /* Reset the TS Bits */
  tmpsmcr &= ~TIM_SMCR_TS;
 8005a08:	68fb      	ldr	r3, [r7, #12]
 8005a0a:	2270      	movs	r2, #112	@ 0x70
 8005a0c:	4393      	bics	r3, r2
 8005a0e:	60fb      	str	r3, [r7, #12]
  /* Set the Input Trigger source and the slave mode*/
  tmpsmcr |= (InputTriggerSource | TIM_SLAVEMODE_EXTERNAL1);
 8005a10:	683a      	ldr	r2, [r7, #0]
 8005a12:	68fb      	ldr	r3, [r7, #12]
 8005a14:	4313      	orrs	r3, r2
 8005a16:	2207      	movs	r2, #7
 8005a18:	4313      	orrs	r3, r2
 8005a1a:	60fb      	str	r3, [r7, #12]
  /* Write to TIMx SMCR */
  TIMx->SMCR = tmpsmcr;
 8005a1c:	687b      	ldr	r3, [r7, #4]
 8005a1e:	68fa      	ldr	r2, [r7, #12]
 8005a20:	609a      	str	r2, [r3, #8]
}
 8005a22:	46c0      	nop			@ (mov r8, r8)
 8005a24:	46bd      	mov	sp, r7
 8005a26:	b004      	add	sp, #16
 8005a28:	bd80      	pop	{r7, pc}
	...

08005a2c <TIM_ETR_SetConfig>:
  *          This parameter must be a value between 0x00 and 0x0F
  * @retval None
  */
void TIM_ETR_SetConfig(TIM_TypeDef *TIMx, uint32_t TIM_ExtTRGPrescaler,
                       uint32_t TIM_ExtTRGPolarity, uint32_t ExtTRGFilter)
{
 8005a2c:	b580      	push	{r7, lr}
 8005a2e:	b086      	sub	sp, #24
 8005a30:	af00      	add	r7, sp, #0
 8005a32:	60f8      	str	r0, [r7, #12]
 8005a34:	60b9      	str	r1, [r7, #8]
 8005a36:	607a      	str	r2, [r7, #4]
 8005a38:	603b      	str	r3, [r7, #0]
  uint32_t tmpsmcr;

  tmpsmcr = TIMx->SMCR;
 8005a3a:	68fb      	ldr	r3, [r7, #12]
 8005a3c:	689b      	ldr	r3, [r3, #8]
 8005a3e:	617b      	str	r3, [r7, #20]

  /* Reset the ETR Bits */
  tmpsmcr &= ~(TIM_SMCR_ETF | TIM_SMCR_ETPS | TIM_SMCR_ECE | TIM_SMCR_ETP);
 8005a40:	697b      	ldr	r3, [r7, #20]
 8005a42:	4a09      	ldr	r2, [pc, #36]	@ (8005a68 <TIM_ETR_SetConfig+0x3c>)
 8005a44:	4013      	ands	r3, r2
 8005a46:	617b      	str	r3, [r7, #20]

  /* Set the Prescaler, the Filter value and the Polarity */
  tmpsmcr |= (uint32_t)(TIM_ExtTRGPrescaler | (TIM_ExtTRGPolarity | (ExtTRGFilter << 8U)));
 8005a48:	683b      	ldr	r3, [r7, #0]
 8005a4a:	021a      	lsls	r2, r3, #8
 8005a4c:	687b      	ldr	r3, [r7, #4]
 8005a4e:	431a      	orrs	r2, r3
 8005a50:	68bb      	ldr	r3, [r7, #8]
 8005a52:	4313      	orrs	r3, r2
 8005a54:	697a      	ldr	r2, [r7, #20]
 8005a56:	4313      	orrs	r3, r2
 8005a58:	617b      	str	r3, [r7, #20]

  /* Write to TIMx SMCR */
  TIMx->SMCR = tmpsmcr;
 8005a5a:	68fb      	ldr	r3, [r7, #12]
 8005a5c:	697a      	ldr	r2, [r7, #20]
 8005a5e:	609a      	str	r2, [r3, #8]
}
 8005a60:	46c0      	nop			@ (mov r8, r8)
 8005a62:	46bd      	mov	sp, r7
 8005a64:	b006      	add	sp, #24
 8005a66:	bd80      	pop	{r7, pc}
 8005a68:	ffff00ff 	.word	0xffff00ff

08005a6c <HAL_TIMEx_MasterConfigSynchronization>:
  *         mode.
  * @retval HAL status
  */
HAL_StatusTypeDef HAL_TIMEx_MasterConfigSynchronization(TIM_HandleTypeDef *htim,
                                                        const TIM_MasterConfigTypeDef *sMasterConfig)
{
 8005a6c:	b580      	push	{r7, lr}
 8005a6e:	b084      	sub	sp, #16
 8005a70:	af00      	add	r7, sp, #0
 8005a72:	6078      	str	r0, [r7, #4]
 8005a74:	6039      	str	r1, [r7, #0]
  assert_param(IS_TIM_MASTER_INSTANCE(htim->Instance));
  assert_param(IS_TIM_TRGO_SOURCE(sMasterConfig->MasterOutputTrigger));
  assert_param(IS_TIM_MSM_STATE(sMasterConfig->MasterSlaveMode));

  /* Check input state */
  __HAL_LOCK(htim);
 8005a76:	687b      	ldr	r3, [r7, #4]
 8005a78:	223c      	movs	r2, #60	@ 0x3c
 8005a7a:	5c9b      	ldrb	r3, [r3, r2]
 8005a7c:	2b01      	cmp	r3, #1
 8005a7e:	d101      	bne.n	8005a84 <HAL_TIMEx_MasterConfigSynchronization+0x18>
 8005a80:	2302      	movs	r3, #2
 8005a82:	e047      	b.n	8005b14 <HAL_TIMEx_MasterConfigSynchronization+0xa8>
 8005a84:	687b      	ldr	r3, [r7, #4]
 8005a86:	223c      	movs	r2, #60	@ 0x3c
 8005a88:	2101      	movs	r1, #1
 8005a8a:	5499      	strb	r1, [r3, r2]

  /* Change the handler state */
  htim->State = HAL_TIM_STATE_BUSY;
 8005a8c:	687b      	ldr	r3, [r7, #4]
 8005a8e:	223d      	movs	r2, #61	@ 0x3d
 8005a90:	2102      	movs	r1, #2
 8005a92:	5499      	strb	r1, [r3, r2]

  /* Get the TIMx CR2 register value */
  tmpcr2 = htim->Instance->CR2;
 8005a94:	687b      	ldr	r3, [r7, #4]
 8005a96:	681b      	ldr	r3, [r3, #0]
 8005a98:	685b      	ldr	r3, [r3, #4]
 8005a9a:	60fb      	str	r3, [r7, #12]

  /* Get the TIMx SMCR register value */
  tmpsmcr = htim->Instance->SMCR;
 8005a9c:	687b      	ldr	r3, [r7, #4]
 8005a9e:	681b      	ldr	r3, [r3, #0]
 8005aa0:	689b      	ldr	r3, [r3, #8]
 8005aa2:	60bb      	str	r3, [r7, #8]

  /* Reset the MMS Bits */
  tmpcr2 &= ~TIM_CR2_MMS;
 8005aa4:	68fb      	ldr	r3, [r7, #12]
 8005aa6:	2270      	movs	r2, #112	@ 0x70
 8005aa8:	4393      	bics	r3, r2
 8005aaa:	60fb      	str	r3, [r7, #12]
  /* Select the TRGO source */
  tmpcr2 |=  sMasterConfig->MasterOutputTrigger;
 8005aac:	683b      	ldr	r3, [r7, #0]
 8005aae:	681b      	ldr	r3, [r3, #0]
 8005ab0:	68fa      	ldr	r2, [r7, #12]
 8005ab2:	4313      	orrs	r3, r2
 8005ab4:	60fb      	str	r3, [r7, #12]

  /* Update TIMx CR2 */
  htim->Instance->CR2 = tmpcr2;
 8005ab6:	687b      	ldr	r3, [r7, #4]
 8005ab8:	681b      	ldr	r3, [r3, #0]
 8005aba:	68fa      	ldr	r2, [r7, #12]
 8005abc:	605a      	str	r2, [r3, #4]

  if (IS_TIM_SLAVE_INSTANCE(htim->Instance))
 8005abe:	687b      	ldr	r3, [r7, #4]
 8005ac0:	681b      	ldr	r3, [r3, #0]
 8005ac2:	4a16      	ldr	r2, [pc, #88]	@ (8005b1c <HAL_TIMEx_MasterConfigSynchronization+0xb0>)
 8005ac4:	4293      	cmp	r3, r2
 8005ac6:	d00f      	beq.n	8005ae8 <HAL_TIMEx_MasterConfigSynchronization+0x7c>
 8005ac8:	687b      	ldr	r3, [r7, #4]
 8005aca:	681a      	ldr	r2, [r3, #0]
 8005acc:	2380      	movs	r3, #128	@ 0x80
 8005ace:	05db      	lsls	r3, r3, #23
 8005ad0:	429a      	cmp	r2, r3
 8005ad2:	d009      	beq.n	8005ae8 <HAL_TIMEx_MasterConfigSynchronization+0x7c>
 8005ad4:	687b      	ldr	r3, [r7, #4]
 8005ad6:	681b      	ldr	r3, [r3, #0]
 8005ad8:	4a11      	ldr	r2, [pc, #68]	@ (8005b20 <HAL_TIMEx_MasterConfigSynchronization+0xb4>)
 8005ada:	4293      	cmp	r3, r2
 8005adc:	d004      	beq.n	8005ae8 <HAL_TIMEx_MasterConfigSynchronization+0x7c>
 8005ade:	687b      	ldr	r3, [r7, #4]
 8005ae0:	681b      	ldr	r3, [r3, #0]
 8005ae2:	4a10      	ldr	r2, [pc, #64]	@ (8005b24 <HAL_TIMEx_MasterConfigSynchronization+0xb8>)
 8005ae4:	4293      	cmp	r3, r2
 8005ae6:	d10c      	bne.n	8005b02 <HAL_TIMEx_MasterConfigSynchronization+0x96>
  {
    /* Reset the MSM Bit */
    tmpsmcr &= ~TIM_SMCR_MSM;
 8005ae8:	68bb      	ldr	r3, [r7, #8]
 8005aea:	2280      	movs	r2, #128	@ 0x80
 8005aec:	4393      	bics	r3, r2
 8005aee:	60bb      	str	r3, [r7, #8]
    /* Set master mode */
    tmpsmcr |= sMasterConfig->MasterSlaveMode;
 8005af0:	683b      	ldr	r3, [r7, #0]
 8005af2:	685b      	ldr	r3, [r3, #4]
 8005af4:	68ba      	ldr	r2, [r7, #8]
 8005af6:	4313      	orrs	r3, r2
 8005af8:	60bb      	str	r3, [r7, #8]

    /* Update TIMx SMCR */
    htim->Instance->SMCR = tmpsmcr;
 8005afa:	687b      	ldr	r3, [r7, #4]
 8005afc:	681b      	ldr	r3, [r3, #0]
 8005afe:	68ba      	ldr	r2, [r7, #8]
 8005b00:	609a      	str	r2, [r3, #8]
  }

  /* Change the htim state */
  htim->State = HAL_TIM_STATE_READY;
 8005b02:	687b      	ldr	r3, [r7, #4]
 8005b04:	223d      	movs	r2, #61	@ 0x3d
 8005b06:	2101      	movs	r1, #1
 8005b08:	5499      	strb	r1, [r3, r2]

  __HAL_UNLOCK(htim);
 8005b0a:	687b      	ldr	r3, [r7, #4]
 8005b0c:	223c      	movs	r2, #60	@ 0x3c
 8005b0e:	2100      	movs	r1, #0
 8005b10:	5499      	strb	r1, [r3, r2]

  return HAL_OK;
 8005b12:	2300      	movs	r3, #0
}
 8005b14:	0018      	movs	r0, r3
 8005b16:	46bd      	mov	sp, r7
 8005b18:	b004      	add	sp, #16
 8005b1a:	bd80      	pop	{r7, pc}
 8005b1c:	40012c00 	.word	0x40012c00
 8005b20:	40000400 	.word	0x40000400
 8005b24:	40014000 	.word	0x40014000

08005b28 <__itoa>:
 8005b28:	1e93      	subs	r3, r2, #2
 8005b2a:	b510      	push	{r4, lr}
 8005b2c:	000c      	movs	r4, r1
 8005b2e:	2b22      	cmp	r3, #34	@ 0x22
 8005b30:	d904      	bls.n	8005b3c <__itoa+0x14>
 8005b32:	2300      	movs	r3, #0
 8005b34:	001c      	movs	r4, r3
 8005b36:	700b      	strb	r3, [r1, #0]
 8005b38:	0020      	movs	r0, r4
 8005b3a:	bd10      	pop	{r4, pc}
 8005b3c:	2a0a      	cmp	r2, #10
 8005b3e:	d109      	bne.n	8005b54 <__itoa+0x2c>
 8005b40:	2800      	cmp	r0, #0
 8005b42:	da07      	bge.n	8005b54 <__itoa+0x2c>
 8005b44:	232d      	movs	r3, #45	@ 0x2d
 8005b46:	700b      	strb	r3, [r1, #0]
 8005b48:	2101      	movs	r1, #1
 8005b4a:	4240      	negs	r0, r0
 8005b4c:	1861      	adds	r1, r4, r1
 8005b4e:	f000 f807 	bl	8005b60 <__utoa>
 8005b52:	e7f1      	b.n	8005b38 <__itoa+0x10>
 8005b54:	2100      	movs	r1, #0
 8005b56:	e7f9      	b.n	8005b4c <__itoa+0x24>

08005b58 <itoa>:
 8005b58:	b510      	push	{r4, lr}
 8005b5a:	f7ff ffe5 	bl	8005b28 <__itoa>
 8005b5e:	bd10      	pop	{r4, pc}

08005b60 <__utoa>:
 8005b60:	b5f0      	push	{r4, r5, r6, r7, lr}
 8005b62:	000c      	movs	r4, r1
 8005b64:	0016      	movs	r6, r2
 8005b66:	b08d      	sub	sp, #52	@ 0x34
 8005b68:	2225      	movs	r2, #37	@ 0x25
 8005b6a:	0007      	movs	r7, r0
 8005b6c:	4915      	ldr	r1, [pc, #84]	@ (8005bc4 <__utoa+0x64>)
 8005b6e:	a802      	add	r0, sp, #8
 8005b70:	f000 f856 	bl	8005c20 <memcpy>
 8005b74:	1e62      	subs	r2, r4, #1
 8005b76:	1eb3      	subs	r3, r6, #2
 8005b78:	2500      	movs	r5, #0
 8005b7a:	9201      	str	r2, [sp, #4]
 8005b7c:	2b22      	cmp	r3, #34	@ 0x22
 8005b7e:	d904      	bls.n	8005b8a <__utoa+0x2a>
 8005b80:	7025      	strb	r5, [r4, #0]
 8005b82:	002c      	movs	r4, r5
 8005b84:	0020      	movs	r0, r4
 8005b86:	b00d      	add	sp, #52	@ 0x34
 8005b88:	bdf0      	pop	{r4, r5, r6, r7, pc}
 8005b8a:	0038      	movs	r0, r7
 8005b8c:	0031      	movs	r1, r6
 8005b8e:	f7fa fb3f 	bl	8000210 <__aeabi_uidivmod>
 8005b92:	000b      	movs	r3, r1
 8005b94:	aa02      	add	r2, sp, #8
 8005b96:	5cd3      	ldrb	r3, [r2, r3]
 8005b98:	9a01      	ldr	r2, [sp, #4]
 8005b9a:	0029      	movs	r1, r5
 8005b9c:	3501      	adds	r5, #1
 8005b9e:	5553      	strb	r3, [r2, r5]
 8005ba0:	003b      	movs	r3, r7
 8005ba2:	0007      	movs	r7, r0
 8005ba4:	429e      	cmp	r6, r3
 8005ba6:	d9f0      	bls.n	8005b8a <__utoa+0x2a>
 8005ba8:	2300      	movs	r3, #0
 8005baa:	0022      	movs	r2, r4
 8005bac:	5563      	strb	r3, [r4, r5]
 8005bae:	000b      	movs	r3, r1
 8005bb0:	1ac8      	subs	r0, r1, r3
 8005bb2:	4283      	cmp	r3, r0
 8005bb4:	dde6      	ble.n	8005b84 <__utoa+0x24>
 8005bb6:	7810      	ldrb	r0, [r2, #0]
 8005bb8:	5ce5      	ldrb	r5, [r4, r3]
 8005bba:	7015      	strb	r5, [r2, #0]
 8005bbc:	54e0      	strb	r0, [r4, r3]
 8005bbe:	3201      	adds	r2, #1
 8005bc0:	3b01      	subs	r3, #1
 8005bc2:	e7f5      	b.n	8005bb0 <__utoa+0x50>
 8005bc4:	080067d0 	.word	0x080067d0

08005bc8 <memset>:
 8005bc8:	0003      	movs	r3, r0
 8005bca:	1882      	adds	r2, r0, r2
 8005bcc:	4293      	cmp	r3, r2
 8005bce:	d100      	bne.n	8005bd2 <memset+0xa>
 8005bd0:	4770      	bx	lr
 8005bd2:	7019      	strb	r1, [r3, #0]
 8005bd4:	3301      	adds	r3, #1
 8005bd6:	e7f9      	b.n	8005bcc <memset+0x4>

08005bd8 <__libc_init_array>:
 8005bd8:	b570      	push	{r4, r5, r6, lr}
 8005bda:	2600      	movs	r6, #0
 8005bdc:	4c0c      	ldr	r4, [pc, #48]	@ (8005c10 <__libc_init_array+0x38>)
 8005bde:	4d0d      	ldr	r5, [pc, #52]	@ (8005c14 <__libc_init_array+0x3c>)
 8005be0:	1b64      	subs	r4, r4, r5
 8005be2:	10a4      	asrs	r4, r4, #2
 8005be4:	42a6      	cmp	r6, r4
 8005be6:	d109      	bne.n	8005bfc <__libc_init_array+0x24>
 8005be8:	2600      	movs	r6, #0
 8005bea:	f000 f823 	bl	8005c34 <_init>
 8005bee:	4c0a      	ldr	r4, [pc, #40]	@ (8005c18 <__libc_init_array+0x40>)
 8005bf0:	4d0a      	ldr	r5, [pc, #40]	@ (8005c1c <__libc_init_array+0x44>)
 8005bf2:	1b64      	subs	r4, r4, r5
 8005bf4:	10a4      	asrs	r4, r4, #2
 8005bf6:	42a6      	cmp	r6, r4
 8005bf8:	d105      	bne.n	8005c06 <__libc_init_array+0x2e>
 8005bfa:	bd70      	pop	{r4, r5, r6, pc}
 8005bfc:	00b3      	lsls	r3, r6, #2
 8005bfe:	58eb      	ldr	r3, [r5, r3]
 8005c00:	4798      	blx	r3
 8005c02:	3601      	adds	r6, #1
 8005c04:	e7ee      	b.n	8005be4 <__libc_init_array+0xc>
 8005c06:	00b3      	lsls	r3, r6, #2
 8005c08:	58eb      	ldr	r3, [r5, r3]
 8005c0a:	4798      	blx	r3
 8005c0c:	3601      	adds	r6, #1
 8005c0e:	e7f2      	b.n	8005bf6 <__libc_init_array+0x1e>
 8005c10:	080067f8 	.word	0x080067f8
 8005c14:	080067f8 	.word	0x080067f8
 8005c18:	080067fc 	.word	0x080067fc
 8005c1c:	080067f8 	.word	0x080067f8

08005c20 <memcpy>:
 8005c20:	2300      	movs	r3, #0
 8005c22:	b510      	push	{r4, lr}
 8005c24:	429a      	cmp	r2, r3
 8005c26:	d100      	bne.n	8005c2a <memcpy+0xa>
 8005c28:	bd10      	pop	{r4, pc}
 8005c2a:	5ccc      	ldrb	r4, [r1, r3]
 8005c2c:	54c4      	strb	r4, [r0, r3]
 8005c2e:	3301      	adds	r3, #1
 8005c30:	e7f8      	b.n	8005c24 <memcpy+0x4>
	...

08005c34 <_init>:
 8005c34:	b5f8      	push	{r3, r4, r5, r6, r7, lr}
 8005c36:	46c0      	nop			@ (mov r8, r8)
 8005c38:	bcf8      	pop	{r3, r4, r5, r6, r7}
 8005c3a:	bc08      	pop	{r3}
 8005c3c:	469e      	mov	lr, r3
 8005c3e:	4770      	bx	lr

08005c40 <_fini>:
 8005c40:	b5f8      	push	{r3, r4, r5, r6, r7, lr}
 8005c42:	46c0      	nop			@ (mov r8, r8)
 8005c44:	bcf8      	pop	{r3, r4, r5, r6, r7}
 8005c46:	bc08      	pop	{r3}
 8005c48:	469e      	mov	lr, r3
 8005c4a:	4770      	bx	lr
